
system:     file format elf32-littleriscv


Disassembly of section .text:

80000000 <_start>:
80000000:	80021197          	auipc	gp,0x80021
80000004:	03018193          	addi	gp,gp,48 # 21030 <__global_pointer$>
80000008:	80021517          	auipc	a0,0x80021
8000000c:	82850513          	addi	a0,a0,-2008 # 20830 <_edata>
80000010:	87418613          	addi	a2,gp,-1932 # 208a4 <_bend>
80000014:	40a60633          	sub	a2,a2,a0
80000018:	00000593          	li	a1,0
8000001c:	2d0000ef          	jal	ra,800002ec <memset>
80000020:	00000517          	auipc	a0,0x0
80000024:	1b850513          	addi	a0,a0,440 # 800001d8 <__libc_fini_array>
80000028:	168000ef          	jal	ra,80000190 <atexit>
8000002c:	220000ef          	jal	ra,8000024c <__libc_init_array>
80000030:	00012503          	lw	a0,0(sp)
80000034:	00410593          	addi	a1,sp,4
80000038:	00000613          	li	a2,0
8000003c:	248010ef          	jal	ra,80001284 <_etext>
80000040:	1640006f          	j	800001a4 <exit>

80000044 <_fini>:
80000044:	00008067          	ret

80000048 <deregister_tm_clones>:
80000048:	81418713          	addi	a4,gp,-2028 # 20844 <__TMC_END__>
8000004c:	81418793          	addi	a5,gp,-2028 # 20844 <__TMC_END__>
80000050:	00e78c63          	beq	a5,a4,80000068 <deregister_tm_clones+0x20>
80000054:	00000337          	lui	t1,0x0
80000058:	00030313          	mv	t1,t1
8000005c:	00030663          	beqz	t1,80000068 <deregister_tm_clones+0x20>
80000060:	81418513          	addi	a0,gp,-2028 # 20844 <__TMC_END__>
80000064:	00030067          	jr	t1
80000068:	00008067          	ret

8000006c <register_tm_clones>:
8000006c:	81418593          	addi	a1,gp,-2028 # 20844 <__TMC_END__>
80000070:	81418793          	addi	a5,gp,-2028 # 20844 <__TMC_END__>
80000074:	40f585b3          	sub	a1,a1,a5
80000078:	4025d593          	srai	a1,a1,0x2
8000007c:	00200793          	li	a5,2
80000080:	02f5c5b3          	div	a1,a1,a5
80000084:	00058c63          	beqz	a1,8000009c <register_tm_clones+0x30>
80000088:	00000337          	lui	t1,0x0
8000008c:	00030313          	mv	t1,t1
80000090:	00030663          	beqz	t1,8000009c <register_tm_clones+0x30>
80000094:	81418513          	addi	a0,gp,-2028 # 20844 <__TMC_END__>
80000098:	00030067          	jr	t1
8000009c:	00008067          	ret

800000a0 <__do_global_dtors_aux>:
800000a0:	82c1c703          	lbu	a4,-2004(gp) # 2085c <_bstart>
800000a4:	04071663          	bnez	a4,800000f0 <__do_global_dtors_aux+0x50>
800000a8:	ff010113          	addi	sp,sp,-16
800000ac:	00812423          	sw	s0,8(sp)
800000b0:	00112623          	sw	ra,12(sp)
800000b4:	00078413          	mv	s0,a5
800000b8:	f91ff0ef          	jal	ra,80000048 <deregister_tm_clones>
800000bc:	000007b7          	lui	a5,0x0
800000c0:	00078793          	mv	a5,a5
800000c4:	00078a63          	beqz	a5,800000d8 <__do_global_dtors_aux+0x38>
800000c8:	80001537          	lui	a0,0x80001
800000cc:	2a850513          	addi	a0,a0,680 # 800012a8 <__EH_FRAME_BEGIN__+0x0>
800000d0:	80000097          	auipc	ra,0x80000
800000d4:	f30080e7          	jalr	-208(ra) # 0 <_data-0x20000>
800000d8:	00100793          	li	a5,1
800000dc:	82f18623          	sb	a5,-2004(gp) # 2085c <_bstart>
800000e0:	00c12083          	lw	ra,12(sp)
800000e4:	00812403          	lw	s0,8(sp)
800000e8:	01010113          	addi	sp,sp,16
800000ec:	00008067          	ret
800000f0:	00008067          	ret

800000f4 <frame_dummy>:
800000f4:	000007b7          	lui	a5,0x0
800000f8:	00078793          	mv	a5,a5
800000fc:	02078463          	beqz	a5,80000124 <frame_dummy+0x30>
80000100:	80001537          	lui	a0,0x80001
80000104:	ff010113          	addi	sp,sp,-16
80000108:	83018593          	addi	a1,gp,-2000 # 20860 <object.5183>
8000010c:	2a850513          	addi	a0,a0,680 # 800012a8 <__EH_FRAME_BEGIN__+0x0>
80000110:	00112623          	sw	ra,12(sp)
80000114:	80000097          	auipc	ra,0x80000
80000118:	eec080e7          	jalr	-276(ra) # 0 <_data-0x20000>
8000011c:	00c12083          	lw	ra,12(sp)
80000120:	01010113          	addi	sp,sp,16
80000124:	f49ff06f          	j	8000006c <register_tm_clones>

80000128 <debug_puts>:
80000128:	fe010113          	addi	sp,sp,-32
8000012c:	00812c23          	sw	s0,24(sp)
80000130:	00112e23          	sw	ra,28(sp)
80000134:	00a12623          	sw	a0,12(sp)
80000138:	290000ef          	jal	ra,800003c8 <strlen>
8000013c:	00c12583          	lw	a1,12(sp)
80000140:	00050413          	mv	s0,a0
80000144:	00050613          	mv	a2,a0
80000148:	00100513          	li	a0,1
8000014c:	298000ef          	jal	ra,800003e4 <write>
80000150:	00850663          	beq	a0,s0,8000015c <debug_puts+0x34>
80000154:	00100513          	li	a0,1
80000158:	7cd000ef          	jal	ra,80001124 <_exit>
8000015c:	01c12083          	lw	ra,28(sp)
80000160:	01812403          	lw	s0,24(sp)
80000164:	02010113          	addi	sp,sp,32
80000168:	00008067          	ret

8000016c <debug_print>:
8000016c:	fbdff06f          	j	80000128 <debug_puts>

80000170 <debug_println>:
80000170:	ff010113          	addi	sp,sp,-16
80000174:	00112623          	sw	ra,12(sp)
80000178:	fb1ff0ef          	jal	ra,80000128 <debug_puts>
8000017c:	00c12083          	lw	ra,12(sp)
80000180:	80001537          	lui	a0,0x80001
80000184:	2ac50513          	addi	a0,a0,684 # 800012ac <__EH_FRAME_BEGIN__+0x4>
80000188:	01010113          	addi	sp,sp,16
8000018c:	f9dff06f          	j	80000128 <debug_puts>

80000190 <atexit>:
80000190:	00050593          	mv	a1,a0
80000194:	00000693          	li	a3,0
80000198:	00000613          	li	a2,0
8000019c:	00000513          	li	a0,0
800001a0:	2a80006f          	j	80000448 <__register_exitproc>

800001a4 <exit>:
800001a4:	ff010113          	addi	sp,sp,-16
800001a8:	00000593          	li	a1,0
800001ac:	00812423          	sw	s0,8(sp)
800001b0:	00112623          	sw	ra,12(sp)
800001b4:	00050413          	mv	s0,a0
800001b8:	310000ef          	jal	ra,800004c8 <__call_exitprocs>
800001bc:	000217b7          	lui	a5,0x21
800001c0:	8347a503          	lw	a0,-1996(a5) # 20834 <_global_impure_ptr>
800001c4:	03c52783          	lw	a5,60(a0)
800001c8:	00078463          	beqz	a5,800001d0 <exit+0x2c>
800001cc:	000780e7          	jalr	a5
800001d0:	00040513          	mv	a0,s0
800001d4:	751000ef          	jal	ra,80001124 <_exit>

800001d8 <__libc_fini_array>:
800001d8:	fe010113          	addi	sp,sp,-32
800001dc:	000007b7          	lui	a5,0x0
800001e0:	00000737          	lui	a4,0x0
800001e4:	00812c23          	sw	s0,24(sp)
800001e8:	00070713          	mv	a4,a4
800001ec:	00078413          	mv	s0,a5
800001f0:	40e40433          	sub	s0,s0,a4
800001f4:	00912a23          	sw	s1,20(sp)
800001f8:	01212823          	sw	s2,16(sp)
800001fc:	01312623          	sw	s3,12(sp)
80000200:	00112e23          	sw	ra,28(sp)
80000204:	40245413          	srai	s0,s0,0x2
80000208:	00000493          	li	s1,0
8000020c:	00078913          	mv	s2,a5
80000210:	ffc00993          	li	s3,-4
80000214:	02941063          	bne	s0,s1,80000234 <__libc_fini_array+0x5c>
80000218:	01812403          	lw	s0,24(sp)
8000021c:	01c12083          	lw	ra,28(sp)
80000220:	01412483          	lw	s1,20(sp)
80000224:	01012903          	lw	s2,16(sp)
80000228:	00c12983          	lw	s3,12(sp)
8000022c:	02010113          	addi	sp,sp,32
80000230:	e15ff06f          	j	80000044 <_fini>
80000234:	033487b3          	mul	a5,s1,s3
80000238:	00148493          	addi	s1,s1,1
8000023c:	00f907b3          	add	a5,s2,a5
80000240:	ffc7a783          	lw	a5,-4(a5) # fffffffc <__EH_FRAME_BEGIN__+0x7fffed54>
80000244:	000780e7          	jalr	a5
80000248:	fcdff06f          	j	80000214 <__libc_fini_array+0x3c>

8000024c <__libc_init_array>:
8000024c:	ff010113          	addi	sp,sp,-16
80000250:	00812423          	sw	s0,8(sp)
80000254:	00912223          	sw	s1,4(sp)
80000258:	00000437          	lui	s0,0x0
8000025c:	000004b7          	lui	s1,0x0
80000260:	00048793          	mv	a5,s1
80000264:	00040413          	mv	s0,s0
80000268:	40f40433          	sub	s0,s0,a5
8000026c:	01212023          	sw	s2,0(sp)
80000270:	00112623          	sw	ra,12(sp)
80000274:	40245413          	srai	s0,s0,0x2
80000278:	00048493          	mv	s1,s1
8000027c:	00000913          	li	s2,0
80000280:	04891263          	bne	s2,s0,800002c4 <__libc_init_array+0x78>
80000284:	000004b7          	lui	s1,0x0
80000288:	dbdff0ef          	jal	ra,80000044 <_fini>
8000028c:	00000437          	lui	s0,0x0
80000290:	00048793          	mv	a5,s1
80000294:	00040413          	mv	s0,s0
80000298:	40f40433          	sub	s0,s0,a5
8000029c:	40245413          	srai	s0,s0,0x2
800002a0:	00048493          	mv	s1,s1
800002a4:	00000913          	li	s2,0
800002a8:	02891863          	bne	s2,s0,800002d8 <__libc_init_array+0x8c>
800002ac:	00c12083          	lw	ra,12(sp)
800002b0:	00812403          	lw	s0,8(sp)
800002b4:	00412483          	lw	s1,4(sp)
800002b8:	00012903          	lw	s2,0(sp)
800002bc:	01010113          	addi	sp,sp,16
800002c0:	00008067          	ret
800002c4:	0004a783          	lw	a5,0(s1) # 0 <_data-0x20000>
800002c8:	00190913          	addi	s2,s2,1
800002cc:	00448493          	addi	s1,s1,4
800002d0:	000780e7          	jalr	a5
800002d4:	fadff06f          	j	80000280 <__libc_init_array+0x34>
800002d8:	0004a783          	lw	a5,0(s1)
800002dc:	00190913          	addi	s2,s2,1
800002e0:	00448493          	addi	s1,s1,4
800002e4:	000780e7          	jalr	a5
800002e8:	fc1ff06f          	j	800002a8 <__libc_init_array+0x5c>

800002ec <memset>:
800002ec:	00f00313          	li	t1,15
800002f0:	00050713          	mv	a4,a0
800002f4:	02c37e63          	bleu	a2,t1,80000330 <memset+0x44>
800002f8:	00f77793          	andi	a5,a4,15
800002fc:	0a079063          	bnez	a5,8000039c <memset+0xb0>
80000300:	08059263          	bnez	a1,80000384 <memset+0x98>
80000304:	ff067693          	andi	a3,a2,-16
80000308:	00f67613          	andi	a2,a2,15
8000030c:	00e686b3          	add	a3,a3,a4
80000310:	00b72023          	sw	a1,0(a4) # 0 <_data-0x20000>
80000314:	00b72223          	sw	a1,4(a4)
80000318:	00b72423          	sw	a1,8(a4)
8000031c:	00b72623          	sw	a1,12(a4)
80000320:	01070713          	addi	a4,a4,16
80000324:	fed766e3          	bltu	a4,a3,80000310 <memset+0x24>
80000328:	00061463          	bnez	a2,80000330 <memset+0x44>
8000032c:	00008067          	ret
80000330:	40c306b3          	sub	a3,t1,a2
80000334:	00269693          	slli	a3,a3,0x2
80000338:	00000297          	auipc	t0,0x0
8000033c:	005686b3          	add	a3,a3,t0
80000340:	00c68067          	jr	12(a3)
80000344:	00b70723          	sb	a1,14(a4)
80000348:	00b706a3          	sb	a1,13(a4)
8000034c:	00b70623          	sb	a1,12(a4)
80000350:	00b705a3          	sb	a1,11(a4)
80000354:	00b70523          	sb	a1,10(a4)
80000358:	00b704a3          	sb	a1,9(a4)
8000035c:	00b70423          	sb	a1,8(a4)
80000360:	00b703a3          	sb	a1,7(a4)
80000364:	00b70323          	sb	a1,6(a4)
80000368:	00b702a3          	sb	a1,5(a4)
8000036c:	00b70223          	sb	a1,4(a4)
80000370:	00b701a3          	sb	a1,3(a4)
80000374:	00b70123          	sb	a1,2(a4)
80000378:	00b700a3          	sb	a1,1(a4)
8000037c:	00b70023          	sb	a1,0(a4)
80000380:	00008067          	ret
80000384:	0ff5f593          	andi	a1,a1,255
80000388:	00859693          	slli	a3,a1,0x8
8000038c:	00d5e5b3          	or	a1,a1,a3
80000390:	01059693          	slli	a3,a1,0x10
80000394:	00d5e5b3          	or	a1,a1,a3
80000398:	f6dff06f          	j	80000304 <memset+0x18>
8000039c:	00279693          	slli	a3,a5,0x2
800003a0:	00000297          	auipc	t0,0x0
800003a4:	005686b3          	add	a3,a3,t0
800003a8:	00008293          	mv	t0,ra
800003ac:	fa0680e7          	jalr	-96(a3)
800003b0:	00028093          	mv	ra,t0
800003b4:	ff078793          	addi	a5,a5,-16
800003b8:	40f70733          	sub	a4,a4,a5
800003bc:	00f60633          	add	a2,a2,a5
800003c0:	f6c378e3          	bleu	a2,t1,80000330 <memset+0x44>
800003c4:	f3dff06f          	j	80000300 <memset+0x14>

800003c8 <strlen>:
800003c8:	00050793          	mv	a5,a0
800003cc:	00178793          	addi	a5,a5,1
800003d0:	fff7c703          	lbu	a4,-1(a5)
800003d4:	fe071ce3          	bnez	a4,800003cc <strlen+0x4>
800003d8:	40a78533          	sub	a0,a5,a0
800003dc:	fff50513          	addi	a0,a0,-1
800003e0:	00008067          	ret

800003e4 <write>:
800003e4:	00060693          	mv	a3,a2
800003e8:	00058613          	mv	a2,a1
800003ec:	00050593          	mv	a1,a0
800003f0:	8081a503          	lw	a0,-2040(gp) # 20838 <_impure_ptr>
800003f4:	0040006f          	j	800003f8 <_write_r>

800003f8 <_write_r>:
800003f8:	ff010113          	addi	sp,sp,-16
800003fc:	00812423          	sw	s0,8(sp)
80000400:	00912223          	sw	s1,4(sp)
80000404:	00050493          	mv	s1,a0
80000408:	00058513          	mv	a0,a1
8000040c:	00060593          	mv	a1,a2
80000410:	00068613          	mv	a2,a3
80000414:	00112623          	sw	ra,12(sp)
80000418:	8601a823          	sw	zero,-1936(gp) # 208a0 <errno>
8000041c:	615000ef          	jal	ra,80001230 <_write>
80000420:	fff00793          	li	a5,-1
80000424:	00f51863          	bne	a0,a5,80000434 <_write_r+0x3c>
80000428:	8701a783          	lw	a5,-1936(gp) # 208a0 <errno>
8000042c:	00078463          	beqz	a5,80000434 <_write_r+0x3c>
80000430:	00f4a023          	sw	a5,0(s1)
80000434:	00c12083          	lw	ra,12(sp)
80000438:	00812403          	lw	s0,8(sp)
8000043c:	00412483          	lw	s1,4(sp)
80000440:	01010113          	addi	sp,sp,16
80000444:	00008067          	ret

80000448 <__register_exitproc>:
80000448:	000217b7          	lui	a5,0x21
8000044c:	8347a703          	lw	a4,-1996(a5) # 20834 <_global_impure_ptr>
80000450:	00050313          	mv	t1,a0
80000454:	14872783          	lw	a5,328(a4)
80000458:	00079663          	bnez	a5,80000464 <__register_exitproc+0x1c>
8000045c:	14c70793          	addi	a5,a4,332
80000460:	14f72423          	sw	a5,328(a4)
80000464:	0047a703          	lw	a4,4(a5)
80000468:	01f00813          	li	a6,31
8000046c:	fff00513          	li	a0,-1
80000470:	04e84a63          	blt	a6,a4,800004c4 <__register_exitproc+0x7c>
80000474:	00271893          	slli	a7,a4,0x2
80000478:	02030c63          	beqz	t1,800004b0 <__register_exitproc+0x68>
8000047c:	01178533          	add	a0,a5,a7
80000480:	08c52423          	sw	a2,136(a0)
80000484:	1887a803          	lw	a6,392(a5)
80000488:	00100613          	li	a2,1
8000048c:	00e61633          	sll	a2,a2,a4
80000490:	00c86833          	or	a6,a6,a2
80000494:	1907a423          	sw	a6,392(a5)
80000498:	10d52423          	sw	a3,264(a0)
8000049c:	00200693          	li	a3,2
800004a0:	00d31863          	bne	t1,a3,800004b0 <__register_exitproc+0x68>
800004a4:	18c7a683          	lw	a3,396(a5)
800004a8:	00c6e633          	or	a2,a3,a2
800004ac:	18c7a623          	sw	a2,396(a5)
800004b0:	00170713          	addi	a4,a4,1
800004b4:	00e7a223          	sw	a4,4(a5)
800004b8:	011787b3          	add	a5,a5,a7
800004bc:	00b7a423          	sw	a1,8(a5)
800004c0:	00000513          	li	a0,0
800004c4:	00008067          	ret

800004c8 <__call_exitprocs>:
800004c8:	fd010113          	addi	sp,sp,-48
800004cc:	000217b7          	lui	a5,0x21
800004d0:	01312e23          	sw	s3,28(sp)
800004d4:	8347a983          	lw	s3,-1996(a5) # 20834 <_global_impure_ptr>
800004d8:	01412c23          	sw	s4,24(sp)
800004dc:	01512a23          	sw	s5,20(sp)
800004e0:	01612823          	sw	s6,16(sp)
800004e4:	02112623          	sw	ra,44(sp)
800004e8:	02812423          	sw	s0,40(sp)
800004ec:	02912223          	sw	s1,36(sp)
800004f0:	03212023          	sw	s2,32(sp)
800004f4:	01712623          	sw	s7,12(sp)
800004f8:	00050a93          	mv	s5,a0
800004fc:	00058a13          	mv	s4,a1
80000500:	00100b13          	li	s6,1
80000504:	1489a483          	lw	s1,328(s3)
80000508:	00048c63          	beqz	s1,80000520 <__call_exitprocs+0x58>
8000050c:	0044a403          	lw	s0,4(s1)
80000510:	fff40913          	addi	s2,s0,-1
80000514:	00241413          	slli	s0,s0,0x2
80000518:	00848433          	add	s0,s1,s0
8000051c:	02095863          	bgez	s2,8000054c <__call_exitprocs+0x84>
80000520:	02c12083          	lw	ra,44(sp)
80000524:	02812403          	lw	s0,40(sp)
80000528:	02412483          	lw	s1,36(sp)
8000052c:	02012903          	lw	s2,32(sp)
80000530:	01c12983          	lw	s3,28(sp)
80000534:	01812a03          	lw	s4,24(sp)
80000538:	01412a83          	lw	s5,20(sp)
8000053c:	01012b03          	lw	s6,16(sp)
80000540:	00c12b83          	lw	s7,12(sp)
80000544:	03010113          	addi	sp,sp,48
80000548:	00008067          	ret
8000054c:	000a0c63          	beqz	s4,80000564 <__call_exitprocs+0x9c>
80000550:	10442783          	lw	a5,260(s0)
80000554:	01478863          	beq	a5,s4,80000564 <__call_exitprocs+0x9c>
80000558:	fff90913          	addi	s2,s2,-1
8000055c:	ffc40413          	addi	s0,s0,-4
80000560:	fbdff06f          	j	8000051c <__call_exitprocs+0x54>
80000564:	0044a703          	lw	a4,4(s1)
80000568:	00442783          	lw	a5,4(s0)
8000056c:	fff70713          	addi	a4,a4,-1
80000570:	03271c63          	bne	a4,s2,800005a8 <__call_exitprocs+0xe0>
80000574:	0124a223          	sw	s2,4(s1)
80000578:	fe0780e3          	beqz	a5,80000558 <__call_exitprocs+0x90>
8000057c:	1884a683          	lw	a3,392(s1)
80000580:	012b1733          	sll	a4,s6,s2
80000584:	0044ab83          	lw	s7,4(s1)
80000588:	00d776b3          	and	a3,a4,a3
8000058c:	02069263          	bnez	a3,800005b0 <__call_exitprocs+0xe8>
80000590:	000780e7          	jalr	a5
80000594:	0044a703          	lw	a4,4(s1)
80000598:	1489a783          	lw	a5,328(s3)
8000059c:	f77714e3          	bne	a4,s7,80000504 <__call_exitprocs+0x3c>
800005a0:	faf48ce3          	beq	s1,a5,80000558 <__call_exitprocs+0x90>
800005a4:	f61ff06f          	j	80000504 <__call_exitprocs+0x3c>
800005a8:	00042223          	sw	zero,4(s0)
800005ac:	fcdff06f          	j	80000578 <__call_exitprocs+0xb0>
800005b0:	18c4a683          	lw	a3,396(s1)
800005b4:	08442583          	lw	a1,132(s0)
800005b8:	00d77733          	and	a4,a4,a3
800005bc:	00071863          	bnez	a4,800005cc <__call_exitprocs+0x104>
800005c0:	000a8513          	mv	a0,s5
800005c4:	000780e7          	jalr	a5
800005c8:	fcdff06f          	j	80000594 <__call_exitprocs+0xcc>
800005cc:	00058513          	mv	a0,a1
800005d0:	000780e7          	jalr	a5
800005d4:	fc1ff06f          	j	80000594 <__call_exitprocs+0xcc>

800005d8 <cleanup_glue>:
800005d8:	ff010113          	addi	sp,sp,-16
800005dc:	00812423          	sw	s0,8(sp)
800005e0:	00058413          	mv	s0,a1
800005e4:	0005a583          	lw	a1,0(a1)
800005e8:	00912223          	sw	s1,4(sp)
800005ec:	00112623          	sw	ra,12(sp)
800005f0:	00050493          	mv	s1,a0
800005f4:	00058463          	beqz	a1,800005fc <cleanup_glue+0x24>
800005f8:	fe1ff0ef          	jal	ra,800005d8 <cleanup_glue>
800005fc:	00040593          	mv	a1,s0
80000600:	00812403          	lw	s0,8(sp)
80000604:	00c12083          	lw	ra,12(sp)
80000608:	00048513          	mv	a0,s1
8000060c:	00412483          	lw	s1,4(sp)
80000610:	01010113          	addi	sp,sp,16
80000614:	2200006f          	j	80000834 <_free_r>

80000618 <_reclaim_reent>:
80000618:	8081a783          	lw	a5,-2040(gp) # 20838 <_impure_ptr>
8000061c:	10a78263          	beq	a5,a0,80000720 <_reclaim_reent+0x108>
80000620:	04c52783          	lw	a5,76(a0)
80000624:	fe010113          	addi	sp,sp,-32
80000628:	00812c23          	sw	s0,24(sp)
8000062c:	00912a23          	sw	s1,20(sp)
80000630:	01212823          	sw	s2,16(sp)
80000634:	00112e23          	sw	ra,28(sp)
80000638:	01312623          	sw	s3,12(sp)
8000063c:	00050413          	mv	s0,a0
80000640:	00000493          	li	s1,0
80000644:	08000913          	li	s2,128
80000648:	04079463          	bnez	a5,80000690 <_reclaim_reent+0x78>
8000064c:	04042583          	lw	a1,64(s0)
80000650:	00058663          	beqz	a1,8000065c <_reclaim_reent+0x44>
80000654:	00040513          	mv	a0,s0
80000658:	1dc000ef          	jal	ra,80000834 <_free_r>
8000065c:	14842583          	lw	a1,328(s0)
80000660:	04058c63          	beqz	a1,800006b8 <_reclaim_reent+0xa0>
80000664:	14c40493          	addi	s1,s0,332
80000668:	04958863          	beq	a1,s1,800006b8 <_reclaim_reent+0xa0>
8000066c:	0005a903          	lw	s2,0(a1)
80000670:	00040513          	mv	a0,s0
80000674:	1c0000ef          	jal	ra,80000834 <_free_r>
80000678:	00090593          	mv	a1,s2
8000067c:	fedff06f          	j	80000668 <_reclaim_reent+0x50>
80000680:	009585b3          	add	a1,a1,s1
80000684:	0005a583          	lw	a1,0(a1)
80000688:	00059e63          	bnez	a1,800006a4 <_reclaim_reent+0x8c>
8000068c:	00448493          	addi	s1,s1,4
80000690:	04c42583          	lw	a1,76(s0)
80000694:	ff2496e3          	bne	s1,s2,80000680 <_reclaim_reent+0x68>
80000698:	00040513          	mv	a0,s0
8000069c:	198000ef          	jal	ra,80000834 <_free_r>
800006a0:	fadff06f          	j	8000064c <_reclaim_reent+0x34>
800006a4:	0005a983          	lw	s3,0(a1)
800006a8:	00040513          	mv	a0,s0
800006ac:	188000ef          	jal	ra,80000834 <_free_r>
800006b0:	00098593          	mv	a1,s3
800006b4:	fd5ff06f          	j	80000688 <_reclaim_reent+0x70>
800006b8:	05442583          	lw	a1,84(s0)
800006bc:	00058663          	beqz	a1,800006c8 <_reclaim_reent+0xb0>
800006c0:	00040513          	mv	a0,s0
800006c4:	170000ef          	jal	ra,80000834 <_free_r>
800006c8:	03842783          	lw	a5,56(s0)
800006cc:	02078c63          	beqz	a5,80000704 <_reclaim_reent+0xec>
800006d0:	03c42783          	lw	a5,60(s0)
800006d4:	00040513          	mv	a0,s0
800006d8:	000780e7          	jalr	a5
800006dc:	2e042583          	lw	a1,736(s0)
800006e0:	02058263          	beqz	a1,80000704 <_reclaim_reent+0xec>
800006e4:	00040513          	mv	a0,s0
800006e8:	01812403          	lw	s0,24(sp)
800006ec:	01c12083          	lw	ra,28(sp)
800006f0:	01412483          	lw	s1,20(sp)
800006f4:	01012903          	lw	s2,16(sp)
800006f8:	00c12983          	lw	s3,12(sp)
800006fc:	02010113          	addi	sp,sp,32
80000700:	ed9ff06f          	j	800005d8 <cleanup_glue>
80000704:	01c12083          	lw	ra,28(sp)
80000708:	01812403          	lw	s0,24(sp)
8000070c:	01412483          	lw	s1,20(sp)
80000710:	01012903          	lw	s2,16(sp)
80000714:	00c12983          	lw	s3,12(sp)
80000718:	02010113          	addi	sp,sp,32
8000071c:	00008067          	ret
80000720:	00008067          	ret

80000724 <_malloc_trim_r>:
80000724:	fd010113          	addi	sp,sp,-48
80000728:	03212023          	sw	s2,32(sp)
8000072c:	00020937          	lui	s2,0x20
80000730:	02812423          	sw	s0,40(sp)
80000734:	02912223          	sw	s1,36(sp)
80000738:	01312e23          	sw	s3,28(sp)
8000073c:	00b12623          	sw	a1,12(sp)
80000740:	02112623          	sw	ra,44(sp)
80000744:	00050993          	mv	s3,a0
80000748:	42890913          	addi	s2,s2,1064 # 20428 <__malloc_av_>
8000074c:	189000ef          	jal	ra,800010d4 <__malloc_lock>
80000750:	00892783          	lw	a5,8(s2)
80000754:	00c12583          	lw	a1,12(sp)
80000758:	0047a483          	lw	s1,4(a5)
8000075c:	000017b7          	lui	a5,0x1
80000760:	fef78413          	addi	s0,a5,-17 # fef <_data-0x1f011>
80000764:	ffc4f493          	andi	s1,s1,-4
80000768:	40b40433          	sub	s0,s0,a1
8000076c:	00940433          	add	s0,s0,s1
80000770:	00c45413          	srli	s0,s0,0xc
80000774:	fff40413          	addi	s0,s0,-1
80000778:	00c41413          	slli	s0,s0,0xc
8000077c:	02f45663          	ble	a5,s0,800007a8 <_malloc_trim_r+0x84>
80000780:	00098513          	mv	a0,s3
80000784:	155000ef          	jal	ra,800010d8 <__malloc_unlock>
80000788:	00000513          	li	a0,0
8000078c:	02c12083          	lw	ra,44(sp)
80000790:	02812403          	lw	s0,40(sp)
80000794:	02412483          	lw	s1,36(sp)
80000798:	02012903          	lw	s2,32(sp)
8000079c:	01c12983          	lw	s3,28(sp)
800007a0:	03010113          	addi	sp,sp,48
800007a4:	00008067          	ret
800007a8:	00000593          	li	a1,0
800007ac:	00098513          	mv	a0,s3
800007b0:	12d000ef          	jal	ra,800010dc <_sbrk_r>
800007b4:	00892783          	lw	a5,8(s2)
800007b8:	009787b3          	add	a5,a5,s1
800007bc:	fcf512e3          	bne	a0,a5,80000780 <_malloc_trim_r+0x5c>
800007c0:	408005b3          	neg	a1,s0
800007c4:	00098513          	mv	a0,s3
800007c8:	115000ef          	jal	ra,800010dc <_sbrk_r>
800007cc:	fff00793          	li	a5,-1
800007d0:	02f51c63          	bne	a0,a5,80000808 <_malloc_trim_r+0xe4>
800007d4:	00000593          	li	a1,0
800007d8:	00098513          	mv	a0,s3
800007dc:	101000ef          	jal	ra,800010dc <_sbrk_r>
800007e0:	00892703          	lw	a4,8(s2)
800007e4:	00f00693          	li	a3,15
800007e8:	40e507b3          	sub	a5,a0,a4
800007ec:	f8f6dae3          	ble	a5,a3,80000780 <_malloc_trim_r+0x5c>
800007f0:	80c1a683          	lw	a3,-2036(gp) # 2083c <__malloc_sbrk_base>
800007f4:	0017e793          	ori	a5,a5,1
800007f8:	00f72223          	sw	a5,4(a4)
800007fc:	40d50533          	sub	a0,a0,a3
80000800:	84a1a423          	sw	a0,-1976(gp) # 20878 <__malloc_current_mallinfo>
80000804:	f7dff06f          	j	80000780 <_malloc_trim_r+0x5c>
80000808:	00892783          	lw	a5,8(s2)
8000080c:	408484b3          	sub	s1,s1,s0
80000810:	0014e493          	ori	s1,s1,1
80000814:	0097a223          	sw	s1,4(a5)
80000818:	8481a783          	lw	a5,-1976(gp) # 20878 <__malloc_current_mallinfo>
8000081c:	00098513          	mv	a0,s3
80000820:	40878433          	sub	s0,a5,s0
80000824:	8481a423          	sw	s0,-1976(gp) # 20878 <__malloc_current_mallinfo>
80000828:	0b1000ef          	jal	ra,800010d8 <__malloc_unlock>
8000082c:	00100513          	li	a0,1
80000830:	f5dff06f          	j	8000078c <_malloc_trim_r+0x68>

80000834 <_free_r>:
80000834:	24058c63          	beqz	a1,80000a8c <_free_r+0x258>
80000838:	ff010113          	addi	sp,sp,-16
8000083c:	00812423          	sw	s0,8(sp)
80000840:	00912223          	sw	s1,4(sp)
80000844:	00050413          	mv	s0,a0
80000848:	00058493          	mv	s1,a1
8000084c:	00112623          	sw	ra,12(sp)
80000850:	085000ef          	jal	ra,800010d4 <__malloc_lock>
80000854:	ffc4a503          	lw	a0,-4(s1)
80000858:	00020637          	lui	a2,0x20
8000085c:	ff848693          	addi	a3,s1,-8
80000860:	ffe57793          	andi	a5,a0,-2
80000864:	42860813          	addi	a6,a2,1064 # 20428 <__malloc_av_>
80000868:	00f685b3          	add	a1,a3,a5
8000086c:	0045a703          	lw	a4,4(a1)
80000870:	00882803          	lw	a6,8(a6)
80000874:	42860613          	addi	a2,a2,1064
80000878:	ffc77713          	andi	a4,a4,-4
8000087c:	00157513          	andi	a0,a0,1
80000880:	06b81063          	bne	a6,a1,800008e0 <_free_r+0xac>
80000884:	00e787b3          	add	a5,a5,a4
80000888:	02051063          	bnez	a0,800008a8 <_free_r+0x74>
8000088c:	ff84a703          	lw	a4,-8(s1)
80000890:	40e686b3          	sub	a3,a3,a4
80000894:	0086a583          	lw	a1,8(a3)
80000898:	00e787b3          	add	a5,a5,a4
8000089c:	00c6a703          	lw	a4,12(a3)
800008a0:	00e5a623          	sw	a4,12(a1)
800008a4:	00b72423          	sw	a1,8(a4)
800008a8:	0017e713          	ori	a4,a5,1
800008ac:	00e6a223          	sw	a4,4(a3)
800008b0:	8101a703          	lw	a4,-2032(gp) # 20840 <__malloc_trim_threshold>
800008b4:	00d62423          	sw	a3,8(a2)
800008b8:	00e7e863          	bltu	a5,a4,800008c8 <_free_r+0x94>
800008bc:	8241a583          	lw	a1,-2012(gp) # 20854 <__malloc_top_pad>
800008c0:	00040513          	mv	a0,s0
800008c4:	e61ff0ef          	jal	ra,80000724 <_malloc_trim_r>
800008c8:	00040513          	mv	a0,s0
800008cc:	00812403          	lw	s0,8(sp)
800008d0:	00c12083          	lw	ra,12(sp)
800008d4:	00412483          	lw	s1,4(sp)
800008d8:	01010113          	addi	sp,sp,16
800008dc:	7fc0006f          	j	800010d8 <__malloc_unlock>
800008e0:	00e5a223          	sw	a4,4(a1)
800008e4:	00000813          	li	a6,0
800008e8:	02051663          	bnez	a0,80000914 <_free_r+0xe0>
800008ec:	ff84a503          	lw	a0,-8(s1)
800008f0:	000208b7          	lui	a7,0x20
800008f4:	43088893          	addi	a7,a7,1072 # 20430 <__malloc_av_+0x8>
800008f8:	40a686b3          	sub	a3,a3,a0
800008fc:	00a787b3          	add	a5,a5,a0
80000900:	0086a503          	lw	a0,8(a3)
80000904:	0b150663          	beq	a0,a7,800009b0 <_free_r+0x17c>
80000908:	00c6a883          	lw	a7,12(a3)
8000090c:	01152623          	sw	a7,12(a0)
80000910:	00a8a423          	sw	a0,8(a7)
80000914:	00e58533          	add	a0,a1,a4
80000918:	00452503          	lw	a0,4(a0)
8000091c:	00157513          	andi	a0,a0,1
80000920:	02051863          	bnez	a0,80000950 <_free_r+0x11c>
80000924:	00e787b3          	add	a5,a5,a4
80000928:	0085a703          	lw	a4,8(a1)
8000092c:	08081663          	bnez	a6,800009b8 <_free_r+0x184>
80000930:	00020537          	lui	a0,0x20
80000934:	43050513          	addi	a0,a0,1072 # 20430 <__malloc_av_+0x8>
80000938:	08a71063          	bne	a4,a0,800009b8 <_free_r+0x184>
8000093c:	00d62a23          	sw	a3,20(a2)
80000940:	00d62823          	sw	a3,16(a2)
80000944:	00e6a623          	sw	a4,12(a3)
80000948:	00e6a423          	sw	a4,8(a3)
8000094c:	00100813          	li	a6,1
80000950:	0017e713          	ori	a4,a5,1
80000954:	00e6a223          	sw	a4,4(a3)
80000958:	00f68733          	add	a4,a3,a5
8000095c:	00f72023          	sw	a5,0(a4)
80000960:	f60814e3          	bnez	a6,800008c8 <_free_r+0x94>
80000964:	1ff00713          	li	a4,511
80000968:	06f76063          	bltu	a4,a5,800009c8 <_free_r+0x194>
8000096c:	0037d793          	srli	a5,a5,0x3
80000970:	4027d593          	srai	a1,a5,0x2
80000974:	00100713          	li	a4,1
80000978:	00b71733          	sll	a4,a4,a1
8000097c:	00462583          	lw	a1,4(a2)
80000980:	00178793          	addi	a5,a5,1
80000984:	00379793          	slli	a5,a5,0x3
80000988:	00f607b3          	add	a5,a2,a5
8000098c:	00b76733          	or	a4,a4,a1
80000990:	00e62223          	sw	a4,4(a2)
80000994:	0007a703          	lw	a4,0(a5)
80000998:	ff878613          	addi	a2,a5,-8
8000099c:	00c6a623          	sw	a2,12(a3)
800009a0:	00e6a423          	sw	a4,8(a3)
800009a4:	00d7a023          	sw	a3,0(a5)
800009a8:	00d72623          	sw	a3,12(a4)
800009ac:	f1dff06f          	j	800008c8 <_free_r+0x94>
800009b0:	00100813          	li	a6,1
800009b4:	f61ff06f          	j	80000914 <_free_r+0xe0>
800009b8:	00c5a583          	lw	a1,12(a1)
800009bc:	00b72623          	sw	a1,12(a4)
800009c0:	00e5a423          	sw	a4,8(a1)
800009c4:	f8dff06f          	j	80000950 <_free_r+0x11c>
800009c8:	0097d593          	srli	a1,a5,0x9
800009cc:	00400713          	li	a4,4
800009d0:	04b76863          	bltu	a4,a1,80000a20 <_free_r+0x1ec>
800009d4:	0067d713          	srli	a4,a5,0x6
800009d8:	03870713          	addi	a4,a4,56
800009dc:	00170593          	addi	a1,a4,1
800009e0:	00359593          	slli	a1,a1,0x3
800009e4:	00b605b3          	add	a1,a2,a1
800009e8:	ff858513          	addi	a0,a1,-8
800009ec:	0005a583          	lw	a1,0(a1)
800009f0:	08b51463          	bne	a0,a1,80000a78 <_free_r+0x244>
800009f4:	00100793          	li	a5,1
800009f8:	40275713          	srai	a4,a4,0x2
800009fc:	00e79733          	sll	a4,a5,a4
80000a00:	00462783          	lw	a5,4(a2)
80000a04:	00f76733          	or	a4,a4,a5
80000a08:	00e62223          	sw	a4,4(a2)
80000a0c:	00a6a623          	sw	a0,12(a3)
80000a10:	00b6a423          	sw	a1,8(a3)
80000a14:	00d52423          	sw	a3,8(a0)
80000a18:	00d5a623          	sw	a3,12(a1)
80000a1c:	eadff06f          	j	800008c8 <_free_r+0x94>
80000a20:	01400713          	li	a4,20
80000a24:	00b76663          	bltu	a4,a1,80000a30 <_free_r+0x1fc>
80000a28:	05b58713          	addi	a4,a1,91
80000a2c:	fb1ff06f          	j	800009dc <_free_r+0x1a8>
80000a30:	05400713          	li	a4,84
80000a34:	00b76863          	bltu	a4,a1,80000a44 <_free_r+0x210>
80000a38:	00c7d713          	srli	a4,a5,0xc
80000a3c:	06e70713          	addi	a4,a4,110
80000a40:	f9dff06f          	j	800009dc <_free_r+0x1a8>
80000a44:	15400713          	li	a4,340
80000a48:	00b76863          	bltu	a4,a1,80000a58 <_free_r+0x224>
80000a4c:	00f7d713          	srli	a4,a5,0xf
80000a50:	07770713          	addi	a4,a4,119
80000a54:	f89ff06f          	j	800009dc <_free_r+0x1a8>
80000a58:	55400513          	li	a0,1364
80000a5c:	07e00713          	li	a4,126
80000a60:	f6b56ee3          	bltu	a0,a1,800009dc <_free_r+0x1a8>
80000a64:	0127d713          	srli	a4,a5,0x12
80000a68:	07c70713          	addi	a4,a4,124
80000a6c:	f71ff06f          	j	800009dc <_free_r+0x1a8>
80000a70:	0085a583          	lw	a1,8(a1)
80000a74:	00b50863          	beq	a0,a1,80000a84 <_free_r+0x250>
80000a78:	0045a703          	lw	a4,4(a1)
80000a7c:	ffc77713          	andi	a4,a4,-4
80000a80:	fee7e8e3          	bltu	a5,a4,80000a70 <_free_r+0x23c>
80000a84:	00c5a503          	lw	a0,12(a1)
80000a88:	f85ff06f          	j	80000a0c <_free_r+0x1d8>
80000a8c:	00008067          	ret

80000a90 <_malloc_r>:
80000a90:	fd010113          	addi	sp,sp,-48
80000a94:	02112623          	sw	ra,44(sp)
80000a98:	02812423          	sw	s0,40(sp)
80000a9c:	02912223          	sw	s1,36(sp)
80000aa0:	03212023          	sw	s2,32(sp)
80000aa4:	01312e23          	sw	s3,28(sp)
80000aa8:	01412c23          	sw	s4,24(sp)
80000aac:	01512a23          	sw	s5,20(sp)
80000ab0:	01612823          	sw	s6,16(sp)
80000ab4:	01712623          	sw	s7,12(sp)
80000ab8:	01812423          	sw	s8,8(sp)
80000abc:	00b58793          	addi	a5,a1,11
80000ac0:	01600713          	li	a4,22
80000ac4:	04f77463          	bleu	a5,a4,80000b0c <_malloc_r+0x7c>
80000ac8:	ff87f493          	andi	s1,a5,-8
80000acc:	0404d263          	bgez	s1,80000b10 <_malloc_r+0x80>
80000ad0:	00c00793          	li	a5,12
80000ad4:	00f52023          	sw	a5,0(a0)
80000ad8:	00000513          	li	a0,0
80000adc:	02c12083          	lw	ra,44(sp)
80000ae0:	02812403          	lw	s0,40(sp)
80000ae4:	02412483          	lw	s1,36(sp)
80000ae8:	02012903          	lw	s2,32(sp)
80000aec:	01c12983          	lw	s3,28(sp)
80000af0:	01812a03          	lw	s4,24(sp)
80000af4:	01412a83          	lw	s5,20(sp)
80000af8:	01012b03          	lw	s6,16(sp)
80000afc:	00c12b83          	lw	s7,12(sp)
80000b00:	00812c03          	lw	s8,8(sp)
80000b04:	03010113          	addi	sp,sp,48
80000b08:	00008067          	ret
80000b0c:	01000493          	li	s1,16
80000b10:	fcb4e0e3          	bltu	s1,a1,80000ad0 <_malloc_r+0x40>
80000b14:	00050993          	mv	s3,a0
80000b18:	5bc000ef          	jal	ra,800010d4 <__malloc_lock>
80000b1c:	00020937          	lui	s2,0x20
80000b20:	1f700793          	li	a5,503
80000b24:	42890913          	addi	s2,s2,1064 # 20428 <__malloc_av_>
80000b28:	0497ea63          	bltu	a5,s1,80000b7c <_malloc_r+0xec>
80000b2c:	00848713          	addi	a4,s1,8
80000b30:	00e90733          	add	a4,s2,a4
80000b34:	00472403          	lw	s0,4(a4)
80000b38:	ff870693          	addi	a3,a4,-8
80000b3c:	0034d793          	srli	a5,s1,0x3
80000b40:	00d41863          	bne	s0,a3,80000b50 <_malloc_r+0xc0>
80000b44:	00c72403          	lw	s0,12(a4)
80000b48:	00278793          	addi	a5,a5,2
80000b4c:	08870063          	beq	a4,s0,80000bcc <_malloc_r+0x13c>
80000b50:	00442783          	lw	a5,4(s0)
80000b54:	00c42703          	lw	a4,12(s0)
80000b58:	00842683          	lw	a3,8(s0)
80000b5c:	ffc7f793          	andi	a5,a5,-4
80000b60:	00f407b3          	add	a5,s0,a5
80000b64:	00e6a623          	sw	a4,12(a3)
80000b68:	00d72423          	sw	a3,8(a4)
80000b6c:	0047a703          	lw	a4,4(a5)
80000b70:	00176713          	ori	a4,a4,1
80000b74:	00e7a223          	sw	a4,4(a5)
80000b78:	0a80006f          	j	80000c20 <_malloc_r+0x190>
80000b7c:	0094d713          	srli	a4,s1,0x9
80000b80:	03f00793          	li	a5,63
80000b84:	00070a63          	beqz	a4,80000b98 <_malloc_r+0x108>
80000b88:	00400793          	li	a5,4
80000b8c:	0ae7e263          	bltu	a5,a4,80000c30 <_malloc_r+0x1a0>
80000b90:	0064d793          	srli	a5,s1,0x6
80000b94:	03878793          	addi	a5,a5,56
80000b98:	00178713          	addi	a4,a5,1
80000b9c:	00371713          	slli	a4,a4,0x3
80000ba0:	00e90733          	add	a4,s2,a4
80000ba4:	00472403          	lw	s0,4(a4)
80000ba8:	ff870593          	addi	a1,a4,-8
80000bac:	00f00513          	li	a0,15
80000bb0:	00b40c63          	beq	s0,a1,80000bc8 <_malloc_r+0x138>
80000bb4:	00442703          	lw	a4,4(s0)
80000bb8:	ffc77713          	andi	a4,a4,-4
80000bbc:	40970633          	sub	a2,a4,s1
80000bc0:	0cc55063          	ble	a2,a0,80000c80 <_malloc_r+0x1f0>
80000bc4:	fff78793          	addi	a5,a5,-1
80000bc8:	00178793          	addi	a5,a5,1
80000bcc:	01092403          	lw	s0,16(s2)
80000bd0:	000205b7          	lui	a1,0x20
80000bd4:	00890693          	addi	a3,s2,8
80000bd8:	43058593          	addi	a1,a1,1072 # 20430 <__malloc_av_+0x8>
80000bdc:	12d40863          	beq	s0,a3,80000d0c <_malloc_r+0x27c>
80000be0:	00442703          	lw	a4,4(s0)
80000be4:	00f00613          	li	a2,15
80000be8:	ffc77713          	andi	a4,a4,-4
80000bec:	40970533          	sub	a0,a4,s1
80000bf0:	0aa65a63          	ble	a0,a2,80000ca4 <_malloc_r+0x214>
80000bf4:	0014e793          	ori	a5,s1,1
80000bf8:	00f42223          	sw	a5,4(s0)
80000bfc:	00940633          	add	a2,s0,s1
80000c00:	00c92a23          	sw	a2,20(s2)
80000c04:	00c92823          	sw	a2,16(s2)
80000c08:	00156793          	ori	a5,a0,1
80000c0c:	00d62623          	sw	a3,12(a2)
80000c10:	00d62423          	sw	a3,8(a2)
80000c14:	00f62223          	sw	a5,4(a2)
80000c18:	00e40733          	add	a4,s0,a4
80000c1c:	00a72023          	sw	a0,0(a4)
80000c20:	00098513          	mv	a0,s3
80000c24:	4b4000ef          	jal	ra,800010d8 <__malloc_unlock>
80000c28:	00840513          	addi	a0,s0,8
80000c2c:	eb1ff06f          	j	80000adc <_malloc_r+0x4c>
80000c30:	01400793          	li	a5,20
80000c34:	00e7e663          	bltu	a5,a4,80000c40 <_malloc_r+0x1b0>
80000c38:	05b70793          	addi	a5,a4,91
80000c3c:	f5dff06f          	j	80000b98 <_malloc_r+0x108>
80000c40:	05400793          	li	a5,84
80000c44:	00e7e863          	bltu	a5,a4,80000c54 <_malloc_r+0x1c4>
80000c48:	00c4d793          	srli	a5,s1,0xc
80000c4c:	06e78793          	addi	a5,a5,110
80000c50:	f49ff06f          	j	80000b98 <_malloc_r+0x108>
80000c54:	15400793          	li	a5,340
80000c58:	00e7e863          	bltu	a5,a4,80000c68 <_malloc_r+0x1d8>
80000c5c:	00f4d793          	srli	a5,s1,0xf
80000c60:	07778793          	addi	a5,a5,119
80000c64:	f35ff06f          	j	80000b98 <_malloc_r+0x108>
80000c68:	55400693          	li	a3,1364
80000c6c:	07e00793          	li	a5,126
80000c70:	f2e6e4e3          	bltu	a3,a4,80000b98 <_malloc_r+0x108>
80000c74:	0124d793          	srli	a5,s1,0x12
80000c78:	07c78793          	addi	a5,a5,124
80000c7c:	f1dff06f          	j	80000b98 <_malloc_r+0x108>
80000c80:	00c42683          	lw	a3,12(s0)
80000c84:	00064c63          	bltz	a2,80000c9c <_malloc_r+0x20c>
80000c88:	00842783          	lw	a5,8(s0)
80000c8c:	00d7a623          	sw	a3,12(a5)
80000c90:	00f6a423          	sw	a5,8(a3)
80000c94:	00e407b3          	add	a5,s0,a4
80000c98:	ed5ff06f          	j	80000b6c <_malloc_r+0xdc>
80000c9c:	00068413          	mv	s0,a3
80000ca0:	f11ff06f          	j	80000bb0 <_malloc_r+0x120>
80000ca4:	00d92a23          	sw	a3,20(s2)
80000ca8:	00d92823          	sw	a3,16(s2)
80000cac:	00054c63          	bltz	a0,80000cc4 <_malloc_r+0x234>
80000cb0:	00e40733          	add	a4,s0,a4
80000cb4:	00472783          	lw	a5,4(a4)
80000cb8:	0017e793          	ori	a5,a5,1
80000cbc:	00f72223          	sw	a5,4(a4)
80000cc0:	f61ff06f          	j	80000c20 <_malloc_r+0x190>
80000cc4:	1ff00693          	li	a3,511
80000cc8:	00492803          	lw	a6,4(s2)
80000ccc:	16e6e663          	bltu	a3,a4,80000e38 <_malloc_r+0x3a8>
80000cd0:	00375713          	srli	a4,a4,0x3
80000cd4:	40275613          	srai	a2,a4,0x2
80000cd8:	00100693          	li	a3,1
80000cdc:	00170713          	addi	a4,a4,1
80000ce0:	00c696b3          	sll	a3,a3,a2
80000ce4:	00371713          	slli	a4,a4,0x3
80000ce8:	00e90733          	add	a4,s2,a4
80000cec:	0106e6b3          	or	a3,a3,a6
80000cf0:	00d92223          	sw	a3,4(s2)
80000cf4:	00072683          	lw	a3,0(a4)
80000cf8:	ff870613          	addi	a2,a4,-8
80000cfc:	00c42623          	sw	a2,12(s0)
80000d00:	00d42423          	sw	a3,8(s0)
80000d04:	00872023          	sw	s0,0(a4)
80000d08:	0086a623          	sw	s0,12(a3)
80000d0c:	4027d713          	srai	a4,a5,0x2
80000d10:	00100313          	li	t1,1
80000d14:	00e31333          	sll	t1,t1,a4
80000d18:	00492703          	lw	a4,4(s2)
80000d1c:	06676a63          	bltu	a4,t1,80000d90 <_malloc_r+0x300>
80000d20:	006776b3          	and	a3,a4,t1
80000d24:	00069c63          	bnez	a3,80000d3c <_malloc_r+0x2ac>
80000d28:	ffc7f793          	andi	a5,a5,-4
80000d2c:	00131313          	slli	t1,t1,0x1
80000d30:	006776b3          	and	a3,a4,t1
80000d34:	00478793          	addi	a5,a5,4
80000d38:	fe068ae3          	beqz	a3,80000d2c <_malloc_r+0x29c>
80000d3c:	00f00e13          	li	t3,15
80000d40:	00379693          	slli	a3,a5,0x3
80000d44:	00d906b3          	add	a3,s2,a3
80000d48:	00068813          	mv	a6,a3
80000d4c:	00078513          	mv	a0,a5
80000d50:	00c82403          	lw	s0,12(a6)
80000d54:	1b041263          	bne	s0,a6,80000ef8 <_malloc_r+0x468>
80000d58:	00150513          	addi	a0,a0,1
80000d5c:	00357713          	andi	a4,a0,3
80000d60:	00880813          	addi	a6,a6,8
80000d64:	fe0716e3          	bnez	a4,80000d50 <_malloc_r+0x2c0>
80000d68:	0037f713          	andi	a4,a5,3
80000d6c:	20071463          	bnez	a4,80000f74 <_malloc_r+0x4e4>
80000d70:	00492703          	lw	a4,4(s2)
80000d74:	fff34793          	not	a5,t1
80000d78:	00f777b3          	and	a5,a4,a5
80000d7c:	00f92223          	sw	a5,4(s2)
80000d80:	00492703          	lw	a4,4(s2)
80000d84:	00131313          	slli	t1,t1,0x1
80000d88:	00676463          	bltu	a4,t1,80000d90 <_malloc_r+0x300>
80000d8c:	20031863          	bnez	t1,80000f9c <_malloc_r+0x50c>
80000d90:	00892b83          	lw	s7,8(s2)
80000d94:	004ba403          	lw	s0,4(s7)
80000d98:	ffc47a93          	andi	s5,s0,-4
80000d9c:	009ae863          	bltu	s5,s1,80000dac <_malloc_r+0x31c>
80000da0:	409a8733          	sub	a4,s5,s1
80000da4:	00f00793          	li	a5,15
80000da8:	30e7ca63          	blt	a5,a4,800010bc <_malloc_r+0x62c>
80000dac:	8241a403          	lw	s0,-2012(gp) # 20854 <__malloc_top_pad>
80000db0:	80c1a703          	lw	a4,-2036(gp) # 2083c <__malloc_sbrk_base>
80000db4:	fff00793          	li	a5,-1
80000db8:	00848433          	add	s0,s1,s0
80000dbc:	1ef71463          	bne	a4,a5,80000fa4 <_malloc_r+0x514>
80000dc0:	01040413          	addi	s0,s0,16
80000dc4:	00040593          	mv	a1,s0
80000dc8:	00098513          	mv	a0,s3
80000dcc:	310000ef          	jal	ra,800010dc <_sbrk_r>
80000dd0:	fff00793          	li	a5,-1
80000dd4:	00050b13          	mv	s6,a0
80000dd8:	26f50863          	beq	a0,a5,80001048 <_malloc_r+0x5b8>
80000ddc:	015b87b3          	add	a5,s7,s5
80000de0:	00f57463          	bleu	a5,a0,80000de8 <_malloc_r+0x358>
80000de4:	272b9263          	bne	s7,s2,80001048 <_malloc_r+0x5b8>
80000de8:	84818693          	addi	a3,gp,-1976 # 20878 <__malloc_current_mallinfo>
80000dec:	0006a703          	lw	a4,0(a3)
80000df0:	84818c13          	addi	s8,gp,-1976 # 20878 <__malloc_current_mallinfo>
80000df4:	00e40733          	add	a4,s0,a4
80000df8:	00e6a023          	sw	a4,0(a3)
80000dfc:	1d679063          	bne	a5,s6,80000fbc <_malloc_r+0x52c>
80000e00:	01479693          	slli	a3,a5,0x14
80000e04:	1a069c63          	bnez	a3,80000fbc <_malloc_r+0x52c>
80000e08:	00892783          	lw	a5,8(s2)
80000e0c:	008a8433          	add	s0,s5,s0
80000e10:	00146413          	ori	s0,s0,1
80000e14:	0087a223          	sw	s0,4(a5)
80000e18:	000c2783          	lw	a5,0(s8)
80000e1c:	8201a683          	lw	a3,-2016(gp) # 20850 <__malloc_max_sbrked_mem>
80000e20:	00f6f463          	bleu	a5,a3,80000e28 <_malloc_r+0x398>
80000e24:	82f1a023          	sw	a5,-2016(gp) # 20850 <__malloc_max_sbrked_mem>
80000e28:	81c1a683          	lw	a3,-2020(gp) # 2084c <__malloc_max_total_mem>
80000e2c:	20f6fe63          	bleu	a5,a3,80001048 <_malloc_r+0x5b8>
80000e30:	80f1ae23          	sw	a5,-2020(gp) # 2084c <__malloc_max_total_mem>
80000e34:	2140006f          	j	80001048 <_malloc_r+0x5b8>
80000e38:	00975613          	srli	a2,a4,0x9
80000e3c:	00400693          	li	a3,4
80000e40:	04c6e663          	bltu	a3,a2,80000e8c <_malloc_r+0x3fc>
80000e44:	00675693          	srli	a3,a4,0x6
80000e48:	03868693          	addi	a3,a3,56
80000e4c:	00168613          	addi	a2,a3,1
80000e50:	00361613          	slli	a2,a2,0x3
80000e54:	00c90633          	add	a2,s2,a2
80000e58:	ff860513          	addi	a0,a2,-8
80000e5c:	00062603          	lw	a2,0(a2)
80000e60:	08c51263          	bne	a0,a2,80000ee4 <_malloc_r+0x454>
80000e64:	4026d693          	srai	a3,a3,0x2
80000e68:	00100713          	li	a4,1
80000e6c:	00d716b3          	sll	a3,a4,a3
80000e70:	0106e6b3          	or	a3,a3,a6
80000e74:	00d92223          	sw	a3,4(s2)
80000e78:	00a42623          	sw	a0,12(s0)
80000e7c:	00c42423          	sw	a2,8(s0)
80000e80:	00852423          	sw	s0,8(a0)
80000e84:	00862623          	sw	s0,12(a2)
80000e88:	e85ff06f          	j	80000d0c <_malloc_r+0x27c>
80000e8c:	01400693          	li	a3,20
80000e90:	00c6e663          	bltu	a3,a2,80000e9c <_malloc_r+0x40c>
80000e94:	05b60693          	addi	a3,a2,91
80000e98:	fb5ff06f          	j	80000e4c <_malloc_r+0x3bc>
80000e9c:	05400693          	li	a3,84
80000ea0:	00c6e863          	bltu	a3,a2,80000eb0 <_malloc_r+0x420>
80000ea4:	00c75693          	srli	a3,a4,0xc
80000ea8:	06e68693          	addi	a3,a3,110
80000eac:	fa1ff06f          	j	80000e4c <_malloc_r+0x3bc>
80000eb0:	15400693          	li	a3,340
80000eb4:	00c6e863          	bltu	a3,a2,80000ec4 <_malloc_r+0x434>
80000eb8:	00f75693          	srli	a3,a4,0xf
80000ebc:	07768693          	addi	a3,a3,119
80000ec0:	f8dff06f          	j	80000e4c <_malloc_r+0x3bc>
80000ec4:	55400513          	li	a0,1364
80000ec8:	07e00693          	li	a3,126
80000ecc:	f8c560e3          	bltu	a0,a2,80000e4c <_malloc_r+0x3bc>
80000ed0:	01275693          	srli	a3,a4,0x12
80000ed4:	07c68693          	addi	a3,a3,124
80000ed8:	f75ff06f          	j	80000e4c <_malloc_r+0x3bc>
80000edc:	00862603          	lw	a2,8(a2)
80000ee0:	00c50863          	beq	a0,a2,80000ef0 <_malloc_r+0x460>
80000ee4:	00462683          	lw	a3,4(a2)
80000ee8:	ffc6f693          	andi	a3,a3,-4
80000eec:	fed768e3          	bltu	a4,a3,80000edc <_malloc_r+0x44c>
80000ef0:	00c62503          	lw	a0,12(a2)
80000ef4:	f85ff06f          	j	80000e78 <_malloc_r+0x3e8>
80000ef8:	00442703          	lw	a4,4(s0)
80000efc:	00c42603          	lw	a2,12(s0)
80000f00:	ffc77713          	andi	a4,a4,-4
80000f04:	409708b3          	sub	a7,a4,s1
80000f08:	051e5063          	ble	a7,t3,80000f48 <_malloc_r+0x4b8>
80000f0c:	0014e793          	ori	a5,s1,1
80000f10:	00f42223          	sw	a5,4(s0)
80000f14:	00842783          	lw	a5,8(s0)
80000f18:	009406b3          	add	a3,s0,s1
80000f1c:	00e40733          	add	a4,s0,a4
80000f20:	00c7a623          	sw	a2,12(a5)
80000f24:	00f62423          	sw	a5,8(a2)
80000f28:	00d92a23          	sw	a3,20(s2)
80000f2c:	00d92823          	sw	a3,16(s2)
80000f30:	0018e793          	ori	a5,a7,1
80000f34:	00b6a623          	sw	a1,12(a3)
80000f38:	00b6a423          	sw	a1,8(a3)
80000f3c:	00f6a223          	sw	a5,4(a3)
80000f40:	01172023          	sw	a7,0(a4)
80000f44:	cddff06f          	j	80000c20 <_malloc_r+0x190>
80000f48:	0208c263          	bltz	a7,80000f6c <_malloc_r+0x4dc>
80000f4c:	00e40733          	add	a4,s0,a4
80000f50:	00472783          	lw	a5,4(a4)
80000f54:	0017e793          	ori	a5,a5,1
80000f58:	00f72223          	sw	a5,4(a4)
80000f5c:	00842783          	lw	a5,8(s0)
80000f60:	00c7a623          	sw	a2,12(a5)
80000f64:	00f62423          	sw	a5,8(a2)
80000f68:	cb9ff06f          	j	80000c20 <_malloc_r+0x190>
80000f6c:	00060413          	mv	s0,a2
80000f70:	de5ff06f          	j	80000d54 <_malloc_r+0x2c4>
80000f74:	ff868713          	addi	a4,a3,-8
80000f78:	0006a683          	lw	a3,0(a3)
80000f7c:	fff78793          	addi	a5,a5,-1
80000f80:	dee684e3          	beq	a3,a4,80000d68 <_malloc_r+0x2d8>
80000f84:	dfdff06f          	j	80000d80 <_malloc_r+0x2f0>
80000f88:	00478793          	addi	a5,a5,4
80000f8c:	00131313          	slli	t1,t1,0x1
80000f90:	006776b3          	and	a3,a4,t1
80000f94:	fe068ae3          	beqz	a3,80000f88 <_malloc_r+0x4f8>
80000f98:	da9ff06f          	j	80000d40 <_malloc_r+0x2b0>
80000f9c:	00050793          	mv	a5,a0
80000fa0:	ff1ff06f          	j	80000f90 <_malloc_r+0x500>
80000fa4:	000017b7          	lui	a5,0x1
80000fa8:	00f78793          	addi	a5,a5,15 # 100f <_data-0x1eff1>
80000fac:	00f40433          	add	s0,s0,a5
80000fb0:	fffff7b7          	lui	a5,0xfffff
80000fb4:	00f47433          	and	s0,s0,a5
80000fb8:	e0dff06f          	j	80000dc4 <_malloc_r+0x334>
80000fbc:	80c1a603          	lw	a2,-2036(gp) # 2083c <__malloc_sbrk_base>
80000fc0:	fff00693          	li	a3,-1
80000fc4:	0ad61663          	bne	a2,a3,80001070 <_malloc_r+0x5e0>
80000fc8:	8161a623          	sw	s6,-2036(gp) # 2083c <__malloc_sbrk_base>
80000fcc:	007b7593          	andi	a1,s6,7
80000fd0:	00058863          	beqz	a1,80000fe0 <_malloc_r+0x550>
80000fd4:	00800793          	li	a5,8
80000fd8:	40b785b3          	sub	a1,a5,a1
80000fdc:	00bb0b33          	add	s6,s6,a1
80000fe0:	000017b7          	lui	a5,0x1
80000fe4:	00f585b3          	add	a1,a1,a5
80000fe8:	008b0433          	add	s0,s6,s0
80000fec:	fff78793          	addi	a5,a5,-1 # fff <_data-0x1f001>
80000ff0:	00f47433          	and	s0,s0,a5
80000ff4:	40858a33          	sub	s4,a1,s0
80000ff8:	000a0593          	mv	a1,s4
80000ffc:	00098513          	mv	a0,s3
80001000:	0dc000ef          	jal	ra,800010dc <_sbrk_r>
80001004:	fff00793          	li	a5,-1
80001008:	00f51663          	bne	a0,a5,80001014 <_malloc_r+0x584>
8000100c:	000b0513          	mv	a0,s6
80001010:	00000a13          	li	s4,0
80001014:	000c2783          	lw	a5,0(s8)
80001018:	41650533          	sub	a0,a0,s6
8000101c:	01692423          	sw	s6,8(s2)
80001020:	014787b3          	add	a5,a5,s4
80001024:	01450a33          	add	s4,a0,s4
80001028:	001a6a13          	ori	s4,s4,1
8000102c:	00fc2023          	sw	a5,0(s8)
80001030:	014b2223          	sw	s4,4(s6)
80001034:	df2b82e3          	beq	s7,s2,80000e18 <_malloc_r+0x388>
80001038:	00f00713          	li	a4,15
8000103c:	05576263          	bltu	a4,s5,80001080 <_malloc_r+0x5f0>
80001040:	00100793          	li	a5,1
80001044:	00fb2223          	sw	a5,4(s6)
80001048:	00892783          	lw	a5,8(s2)
8000104c:	0047a783          	lw	a5,4(a5)
80001050:	ffc7f793          	andi	a5,a5,-4
80001054:	40978733          	sub	a4,a5,s1
80001058:	0097e663          	bltu	a5,s1,80001064 <_malloc_r+0x5d4>
8000105c:	00f00793          	li	a5,15
80001060:	04e7ce63          	blt	a5,a4,800010bc <_malloc_r+0x62c>
80001064:	00098513          	mv	a0,s3
80001068:	070000ef          	jal	ra,800010d8 <__malloc_unlock>
8000106c:	a6dff06f          	j	80000ad8 <_malloc_r+0x48>
80001070:	40fb07b3          	sub	a5,s6,a5
80001074:	00e787b3          	add	a5,a5,a4
80001078:	00fc2023          	sw	a5,0(s8)
8000107c:	f51ff06f          	j	80000fcc <_malloc_r+0x53c>
80001080:	004ba783          	lw	a5,4(s7)
80001084:	ff4a8413          	addi	s0,s5,-12
80001088:	ff847413          	andi	s0,s0,-8
8000108c:	0017f793          	andi	a5,a5,1
80001090:	0087e7b3          	or	a5,a5,s0
80001094:	00fba223          	sw	a5,4(s7)
80001098:	00500693          	li	a3,5
8000109c:	008b87b3          	add	a5,s7,s0
800010a0:	00d7a223          	sw	a3,4(a5)
800010a4:	00d7a423          	sw	a3,8(a5)
800010a8:	d68778e3          	bleu	s0,a4,80000e18 <_malloc_r+0x388>
800010ac:	008b8593          	addi	a1,s7,8
800010b0:	00098513          	mv	a0,s3
800010b4:	f80ff0ef          	jal	ra,80000834 <_free_r>
800010b8:	d61ff06f          	j	80000e18 <_malloc_r+0x388>
800010bc:	00892403          	lw	s0,8(s2)
800010c0:	0014e793          	ori	a5,s1,1
800010c4:	00f42223          	sw	a5,4(s0)
800010c8:	009407b3          	add	a5,s0,s1
800010cc:	00f92423          	sw	a5,8(s2)
800010d0:	aa1ff06f          	j	80000b70 <_malloc_r+0xe0>

800010d4 <__malloc_lock>:
800010d4:	00008067          	ret

800010d8 <__malloc_unlock>:
800010d8:	00008067          	ret

800010dc <_sbrk_r>:
800010dc:	ff010113          	addi	sp,sp,-16
800010e0:	00812423          	sw	s0,8(sp)
800010e4:	00912223          	sw	s1,4(sp)
800010e8:	00050493          	mv	s1,a0
800010ec:	00058513          	mv	a0,a1
800010f0:	00112623          	sw	ra,12(sp)
800010f4:	8601a823          	sw	zero,-1936(gp) # 208a0 <errno>
800010f8:	070000ef          	jal	ra,80001168 <_sbrk>
800010fc:	fff00793          	li	a5,-1
80001100:	00f51863          	bne	a0,a5,80001110 <_sbrk_r+0x34>
80001104:	8701a783          	lw	a5,-1936(gp) # 208a0 <errno>
80001108:	00078463          	beqz	a5,80001110 <_sbrk_r+0x34>
8000110c:	00f4a023          	sw	a5,0(s1)
80001110:	00c12083          	lw	ra,12(sp)
80001114:	00812403          	lw	s0,8(sp)
80001118:	00412483          	lw	s1,4(sp)
8000111c:	01010113          	addi	sp,sp,16
80001120:	00008067          	ret

80001124 <_exit>:
80001124:	00000593          	li	a1,0
80001128:	00000613          	li	a2,0
8000112c:	00000693          	li	a3,0
80001130:	00000713          	li	a4,0
80001134:	00000793          	li	a5,0
80001138:	05d00893          	li	a7,93
8000113c:	00000073          	ecall
80001140:	02055263          	bgez	a0,80001164 <_exit+0x40>
80001144:	ff010113          	addi	sp,sp,-16
80001148:	00812423          	sw	s0,8(sp)
8000114c:	00050413          	mv	s0,a0
80001150:	00112623          	sw	ra,12(sp)
80001154:	40800433          	neg	s0,s0
80001158:	124000ef          	jal	ra,8000127c <__errno>
8000115c:	00852023          	sw	s0,0(a0)
80001160:	0000006f          	j	80001160 <_exit+0x3c>
80001164:	0000006f          	j	80001164 <_exit+0x40>

80001168 <_sbrk>:
80001168:	ff010113          	addi	sp,sp,-16
8000116c:	00812423          	sw	s0,8(sp)
80001170:	8281a783          	lw	a5,-2008(gp) # 20858 <heap_end.2476>
80001174:	01212023          	sw	s2,0(sp)
80001178:	00112623          	sw	ra,12(sp)
8000117c:	00912223          	sw	s1,4(sp)
80001180:	00050913          	mv	s2,a0
80001184:	04079a63          	bnez	a5,800011d8 <_sbrk+0x70>
80001188:	00000513          	li	a0,0
8000118c:	00000593          	li	a1,0
80001190:	00000613          	li	a2,0
80001194:	00000693          	li	a3,0
80001198:	00000713          	li	a4,0
8000119c:	0d600893          	li	a7,214
800011a0:	00000073          	ecall
800011a4:	00050493          	mv	s1,a0
800011a8:	02055663          	bgez	a0,800011d4 <_sbrk+0x6c>
800011ac:	0d0000ef          	jal	ra,8000127c <__errno>
800011b0:	409004b3          	neg	s1,s1
800011b4:	00952023          	sw	s1,0(a0)
800011b8:	fff00513          	li	a0,-1
800011bc:	00c12083          	lw	ra,12(sp)
800011c0:	00812403          	lw	s0,8(sp)
800011c4:	00412483          	lw	s1,4(sp)
800011c8:	00012903          	lw	s2,0(sp)
800011cc:	01010113          	addi	sp,sp,16
800011d0:	00008067          	ret
800011d4:	82a1a423          	sw	a0,-2008(gp) # 20858 <heap_end.2476>
800011d8:	8281a503          	lw	a0,-2008(gp) # 20858 <heap_end.2476>
800011dc:	00000593          	li	a1,0
800011e0:	00000613          	li	a2,0
800011e4:	00a90533          	add	a0,s2,a0
800011e8:	00000693          	li	a3,0
800011ec:	00000713          	li	a4,0
800011f0:	00000793          	li	a5,0
800011f4:	0d600893          	li	a7,214
800011f8:	00000073          	ecall
800011fc:	00050493          	mv	s1,a0
80001200:	00055a63          	bgez	a0,80001214 <_sbrk+0xac>
80001204:	409004b3          	neg	s1,s1
80001208:	074000ef          	jal	ra,8000127c <__errno>
8000120c:	00952023          	sw	s1,0(a0)
80001210:	fff00493          	li	s1,-1
80001214:	8281a783          	lw	a5,-2008(gp) # 20858 <heap_end.2476>
80001218:	fff00513          	li	a0,-1
8000121c:	00f90933          	add	s2,s2,a5
80001220:	f9249ee3          	bne	s1,s2,800011bc <_sbrk+0x54>
80001224:	8291a423          	sw	s1,-2008(gp) # 20858 <heap_end.2476>
80001228:	00078513          	mv	a0,a5
8000122c:	f91ff06f          	j	800011bc <_sbrk+0x54>

80001230 <_write>:
80001230:	ff010113          	addi	sp,sp,-16
80001234:	00112623          	sw	ra,12(sp)
80001238:	00812423          	sw	s0,8(sp)
8000123c:	00000693          	li	a3,0
80001240:	00000713          	li	a4,0
80001244:	00000793          	li	a5,0
80001248:	04000893          	li	a7,64
8000124c:	00000073          	ecall
80001250:	00050413          	mv	s0,a0
80001254:	00055a63          	bgez	a0,80001268 <_write+0x38>
80001258:	40800433          	neg	s0,s0
8000125c:	020000ef          	jal	ra,8000127c <__errno>
80001260:	00852023          	sw	s0,0(a0)
80001264:	fff00413          	li	s0,-1
80001268:	00040513          	mv	a0,s0
8000126c:	00c12083          	lw	ra,12(sp)
80001270:	00812403          	lw	s0,8(sp)
80001274:	01010113          	addi	sp,sp,16
80001278:	00008067          	ret

8000127c <__errno>:
8000127c:	8081a503          	lw	a0,-2040(gp) # 20838 <_impure_ptr>
80001280:	00008067          	ret

Disassembly of section .text.startup:

80001284 <main>:
80001284:	80001537          	lui	a0,0x80001
80001288:	ff010113          	addi	sp,sp,-16
8000128c:	2b050513          	addi	a0,a0,688 # 800012b0 <__EH_FRAME_BEGIN__+0x8>
80001290:	00112623          	sw	ra,12(sp)
80001294:	eddfe0ef          	jal	ra,80000170 <debug_println>
80001298:	00c12083          	lw	ra,12(sp)
8000129c:	00000513          	li	a0,0
800012a0:	01010113          	addi	sp,sp,16
800012a4:	00008067          	ret

Disassembly of section .mdata:

00020000 <_data>:
   20000:	0000                	unimp
   20002:	0000                	unimp
   20004:	02ec                	addi	a1,sp,332
   20006:	0002                	0x2
   20008:	0354                	addi	a3,sp,388
   2000a:	0002                	0x2
   2000c:	03bc                	addi	a5,sp,456
   2000e:	0002                	0x2
	...
   200a8:	0001                	nop
   200aa:	0000                	unimp
   200ac:	0000                	unimp
   200ae:	0000                	unimp
   200b0:	330e                	fld	ft6,224(sp)
   200b2:	abcd                	j	206a4 <__malloc_av_+0x27c>
   200b4:	1234                	addi	a3,sp,296
   200b6:	e66d                	bnez	a2,201a0 <_data+0x1a0>
   200b8:	deec                	sw	a1,124(a3)
   200ba:	0005                	c.addi	zero,1
   200bc:	0000000b          	0xb
	...

00020428 <__malloc_av_>:
	...
   20430:	0428                	addi	a0,sp,520
   20432:	0002                	0x2
   20434:	0428                	addi	a0,sp,520
   20436:	0002                	0x2
   20438:	0430                	addi	a2,sp,520
   2043a:	0002                	0x2
   2043c:	0430                	addi	a2,sp,520
   2043e:	0002                	0x2
   20440:	0438                	addi	a4,sp,520
   20442:	0002                	0x2
   20444:	0438                	addi	a4,sp,520
   20446:	0002                	0x2
   20448:	0440                	addi	s0,sp,516
   2044a:	0002                	0x2
   2044c:	0440                	addi	s0,sp,516
   2044e:	0002                	0x2
   20450:	0448                	addi	a0,sp,516
   20452:	0002                	0x2
   20454:	0448                	addi	a0,sp,516
   20456:	0002                	0x2
   20458:	0450                	addi	a2,sp,516
   2045a:	0002                	0x2
   2045c:	0450                	addi	a2,sp,516
   2045e:	0002                	0x2
   20460:	0458                	addi	a4,sp,516
   20462:	0002                	0x2
   20464:	0458                	addi	a4,sp,516
   20466:	0002                	0x2
   20468:	0460                	addi	s0,sp,524
   2046a:	0002                	0x2
   2046c:	0460                	addi	s0,sp,524
   2046e:	0002                	0x2
   20470:	0468                	addi	a0,sp,524
   20472:	0002                	0x2
   20474:	0468                	addi	a0,sp,524
   20476:	0002                	0x2
   20478:	0470                	addi	a2,sp,524
   2047a:	0002                	0x2
   2047c:	0470                	addi	a2,sp,524
   2047e:	0002                	0x2
   20480:	0478                	addi	a4,sp,524
   20482:	0002                	0x2
   20484:	0478                	addi	a4,sp,524
   20486:	0002                	0x2
   20488:	0480                	addi	s0,sp,576
   2048a:	0002                	0x2
   2048c:	0480                	addi	s0,sp,576
   2048e:	0002                	0x2
   20490:	0488                	addi	a0,sp,576
   20492:	0002                	0x2
   20494:	0488                	addi	a0,sp,576
   20496:	0002                	0x2
   20498:	0490                	addi	a2,sp,576
   2049a:	0002                	0x2
   2049c:	0490                	addi	a2,sp,576
   2049e:	0002                	0x2
   204a0:	0498                	addi	a4,sp,576
   204a2:	0002                	0x2
   204a4:	0498                	addi	a4,sp,576
   204a6:	0002                	0x2
   204a8:	04a0                	addi	s0,sp,584
   204aa:	0002                	0x2
   204ac:	04a0                	addi	s0,sp,584
   204ae:	0002                	0x2
   204b0:	04a8                	addi	a0,sp,584
   204b2:	0002                	0x2
   204b4:	04a8                	addi	a0,sp,584
   204b6:	0002                	0x2
   204b8:	04b0                	addi	a2,sp,584
   204ba:	0002                	0x2
   204bc:	04b0                	addi	a2,sp,584
   204be:	0002                	0x2
   204c0:	04b8                	addi	a4,sp,584
   204c2:	0002                	0x2
   204c4:	04b8                	addi	a4,sp,584
   204c6:	0002                	0x2
   204c8:	04c0                	addi	s0,sp,580
   204ca:	0002                	0x2
   204cc:	04c0                	addi	s0,sp,580
   204ce:	0002                	0x2
   204d0:	04c8                	addi	a0,sp,580
   204d2:	0002                	0x2
   204d4:	04c8                	addi	a0,sp,580
   204d6:	0002                	0x2
   204d8:	04d0                	addi	a2,sp,580
   204da:	0002                	0x2
   204dc:	04d0                	addi	a2,sp,580
   204de:	0002                	0x2
   204e0:	04d8                	addi	a4,sp,580
   204e2:	0002                	0x2
   204e4:	04d8                	addi	a4,sp,580
   204e6:	0002                	0x2
   204e8:	04e0                	addi	s0,sp,588
   204ea:	0002                	0x2
   204ec:	04e0                	addi	s0,sp,588
   204ee:	0002                	0x2
   204f0:	04e8                	addi	a0,sp,588
   204f2:	0002                	0x2
   204f4:	04e8                	addi	a0,sp,588
   204f6:	0002                	0x2
   204f8:	04f0                	addi	a2,sp,588
   204fa:	0002                	0x2
   204fc:	04f0                	addi	a2,sp,588
   204fe:	0002                	0x2
   20500:	04f8                	addi	a4,sp,588
   20502:	0002                	0x2
   20504:	04f8                	addi	a4,sp,588
   20506:	0002                	0x2
   20508:	0500                	addi	s0,sp,640
   2050a:	0002                	0x2
   2050c:	0500                	addi	s0,sp,640
   2050e:	0002                	0x2
   20510:	0508                	addi	a0,sp,640
   20512:	0002                	0x2
   20514:	0508                	addi	a0,sp,640
   20516:	0002                	0x2
   20518:	0510                	addi	a2,sp,640
   2051a:	0002                	0x2
   2051c:	0510                	addi	a2,sp,640
   2051e:	0002                	0x2
   20520:	0518                	addi	a4,sp,640
   20522:	0002                	0x2
   20524:	0518                	addi	a4,sp,640
   20526:	0002                	0x2
   20528:	0520                	addi	s0,sp,648
   2052a:	0002                	0x2
   2052c:	0520                	addi	s0,sp,648
   2052e:	0002                	0x2
   20530:	0528                	addi	a0,sp,648
   20532:	0002                	0x2
   20534:	0528                	addi	a0,sp,648
   20536:	0002                	0x2
   20538:	0530                	addi	a2,sp,648
   2053a:	0002                	0x2
   2053c:	0530                	addi	a2,sp,648
   2053e:	0002                	0x2
   20540:	0538                	addi	a4,sp,648
   20542:	0002                	0x2
   20544:	0538                	addi	a4,sp,648
   20546:	0002                	0x2
   20548:	0540                	addi	s0,sp,644
   2054a:	0002                	0x2
   2054c:	0540                	addi	s0,sp,644
   2054e:	0002                	0x2
   20550:	0548                	addi	a0,sp,644
   20552:	0002                	0x2
   20554:	0548                	addi	a0,sp,644
   20556:	0002                	0x2
   20558:	0550                	addi	a2,sp,644
   2055a:	0002                	0x2
   2055c:	0550                	addi	a2,sp,644
   2055e:	0002                	0x2
   20560:	0558                	addi	a4,sp,644
   20562:	0002                	0x2
   20564:	0558                	addi	a4,sp,644
   20566:	0002                	0x2
   20568:	0560                	addi	s0,sp,652
   2056a:	0002                	0x2
   2056c:	0560                	addi	s0,sp,652
   2056e:	0002                	0x2
   20570:	0568                	addi	a0,sp,652
   20572:	0002                	0x2
   20574:	0568                	addi	a0,sp,652
   20576:	0002                	0x2
   20578:	0570                	addi	a2,sp,652
   2057a:	0002                	0x2
   2057c:	0570                	addi	a2,sp,652
   2057e:	0002                	0x2
   20580:	0578                	addi	a4,sp,652
   20582:	0002                	0x2
   20584:	0578                	addi	a4,sp,652
   20586:	0002                	0x2
   20588:	0580                	addi	s0,sp,704
   2058a:	0002                	0x2
   2058c:	0580                	addi	s0,sp,704
   2058e:	0002                	0x2
   20590:	0588                	addi	a0,sp,704
   20592:	0002                	0x2
   20594:	0588                	addi	a0,sp,704
   20596:	0002                	0x2
   20598:	0590                	addi	a2,sp,704
   2059a:	0002                	0x2
   2059c:	0590                	addi	a2,sp,704
   2059e:	0002                	0x2
   205a0:	0598                	addi	a4,sp,704
   205a2:	0002                	0x2
   205a4:	0598                	addi	a4,sp,704
   205a6:	0002                	0x2
   205a8:	05a0                	addi	s0,sp,712
   205aa:	0002                	0x2
   205ac:	05a0                	addi	s0,sp,712
   205ae:	0002                	0x2
   205b0:	05a8                	addi	a0,sp,712
   205b2:	0002                	0x2
   205b4:	05a8                	addi	a0,sp,712
   205b6:	0002                	0x2
   205b8:	05b0                	addi	a2,sp,712
   205ba:	0002                	0x2
   205bc:	05b0                	addi	a2,sp,712
   205be:	0002                	0x2
   205c0:	05b8                	addi	a4,sp,712
   205c2:	0002                	0x2
   205c4:	05b8                	addi	a4,sp,712
   205c6:	0002                	0x2
   205c8:	05c0                	addi	s0,sp,708
   205ca:	0002                	0x2
   205cc:	05c0                	addi	s0,sp,708
   205ce:	0002                	0x2
   205d0:	05c8                	addi	a0,sp,708
   205d2:	0002                	0x2
   205d4:	05c8                	addi	a0,sp,708
   205d6:	0002                	0x2
   205d8:	05d0                	addi	a2,sp,708
   205da:	0002                	0x2
   205dc:	05d0                	addi	a2,sp,708
   205de:	0002                	0x2
   205e0:	05d8                	addi	a4,sp,708
   205e2:	0002                	0x2
   205e4:	05d8                	addi	a4,sp,708
   205e6:	0002                	0x2
   205e8:	05e0                	addi	s0,sp,716
   205ea:	0002                	0x2
   205ec:	05e0                	addi	s0,sp,716
   205ee:	0002                	0x2
   205f0:	05e8                	addi	a0,sp,716
   205f2:	0002                	0x2
   205f4:	05e8                	addi	a0,sp,716
   205f6:	0002                	0x2
   205f8:	05f0                	addi	a2,sp,716
   205fa:	0002                	0x2
   205fc:	05f0                	addi	a2,sp,716
   205fe:	0002                	0x2
   20600:	05f8                	addi	a4,sp,716
   20602:	0002                	0x2
   20604:	05f8                	addi	a4,sp,716
   20606:	0002                	0x2
   20608:	0600                	addi	s0,sp,768
   2060a:	0002                	0x2
   2060c:	0600                	addi	s0,sp,768
   2060e:	0002                	0x2
   20610:	0608                	addi	a0,sp,768
   20612:	0002                	0x2
   20614:	0608                	addi	a0,sp,768
   20616:	0002                	0x2
   20618:	0610                	addi	a2,sp,768
   2061a:	0002                	0x2
   2061c:	0610                	addi	a2,sp,768
   2061e:	0002                	0x2
   20620:	0618                	addi	a4,sp,768
   20622:	0002                	0x2
   20624:	0618                	addi	a4,sp,768
   20626:	0002                	0x2
   20628:	0620                	addi	s0,sp,776
   2062a:	0002                	0x2
   2062c:	0620                	addi	s0,sp,776
   2062e:	0002                	0x2
   20630:	0628                	addi	a0,sp,776
   20632:	0002                	0x2
   20634:	0628                	addi	a0,sp,776
   20636:	0002                	0x2
   20638:	0630                	addi	a2,sp,776
   2063a:	0002                	0x2
   2063c:	0630                	addi	a2,sp,776
   2063e:	0002                	0x2
   20640:	0638                	addi	a4,sp,776
   20642:	0002                	0x2
   20644:	0638                	addi	a4,sp,776
   20646:	0002                	0x2
   20648:	0640                	addi	s0,sp,772
   2064a:	0002                	0x2
   2064c:	0640                	addi	s0,sp,772
   2064e:	0002                	0x2
   20650:	0648                	addi	a0,sp,772
   20652:	0002                	0x2
   20654:	0648                	addi	a0,sp,772
   20656:	0002                	0x2
   20658:	0650                	addi	a2,sp,772
   2065a:	0002                	0x2
   2065c:	0650                	addi	a2,sp,772
   2065e:	0002                	0x2
   20660:	0658                	addi	a4,sp,772
   20662:	0002                	0x2
   20664:	0658                	addi	a4,sp,772
   20666:	0002                	0x2
   20668:	0660                	addi	s0,sp,780
   2066a:	0002                	0x2
   2066c:	0660                	addi	s0,sp,780
   2066e:	0002                	0x2
   20670:	0668                	addi	a0,sp,780
   20672:	0002                	0x2
   20674:	0668                	addi	a0,sp,780
   20676:	0002                	0x2
   20678:	0670                	addi	a2,sp,780
   2067a:	0002                	0x2
   2067c:	0670                	addi	a2,sp,780
   2067e:	0002                	0x2
   20680:	0678                	addi	a4,sp,780
   20682:	0002                	0x2
   20684:	0678                	addi	a4,sp,780
   20686:	0002                	0x2
   20688:	0680                	addi	s0,sp,832
   2068a:	0002                	0x2
   2068c:	0680                	addi	s0,sp,832
   2068e:	0002                	0x2
   20690:	0688                	addi	a0,sp,832
   20692:	0002                	0x2
   20694:	0688                	addi	a0,sp,832
   20696:	0002                	0x2
   20698:	0690                	addi	a2,sp,832
   2069a:	0002                	0x2
   2069c:	0690                	addi	a2,sp,832
   2069e:	0002                	0x2
   206a0:	0698                	addi	a4,sp,832
   206a2:	0002                	0x2
   206a4:	0698                	addi	a4,sp,832
   206a6:	0002                	0x2
   206a8:	06a0                	addi	s0,sp,840
   206aa:	0002                	0x2
   206ac:	06a0                	addi	s0,sp,840
   206ae:	0002                	0x2
   206b0:	06a8                	addi	a0,sp,840
   206b2:	0002                	0x2
   206b4:	06a8                	addi	a0,sp,840
   206b6:	0002                	0x2
   206b8:	06b0                	addi	a2,sp,840
   206ba:	0002                	0x2
   206bc:	06b0                	addi	a2,sp,840
   206be:	0002                	0x2
   206c0:	06b8                	addi	a4,sp,840
   206c2:	0002                	0x2
   206c4:	06b8                	addi	a4,sp,840
   206c6:	0002                	0x2
   206c8:	06c0                	addi	s0,sp,836
   206ca:	0002                	0x2
   206cc:	06c0                	addi	s0,sp,836
   206ce:	0002                	0x2
   206d0:	06c8                	addi	a0,sp,836
   206d2:	0002                	0x2
   206d4:	06c8                	addi	a0,sp,836
   206d6:	0002                	0x2
   206d8:	06d0                	addi	a2,sp,836
   206da:	0002                	0x2
   206dc:	06d0                	addi	a2,sp,836
   206de:	0002                	0x2
   206e0:	06d8                	addi	a4,sp,836
   206e2:	0002                	0x2
   206e4:	06d8                	addi	a4,sp,836
   206e6:	0002                	0x2
   206e8:	06e0                	addi	s0,sp,844
   206ea:	0002                	0x2
   206ec:	06e0                	addi	s0,sp,844
   206ee:	0002                	0x2
   206f0:	06e8                	addi	a0,sp,844
   206f2:	0002                	0x2
   206f4:	06e8                	addi	a0,sp,844
   206f6:	0002                	0x2
   206f8:	06f0                	addi	a2,sp,844
   206fa:	0002                	0x2
   206fc:	06f0                	addi	a2,sp,844
   206fe:	0002                	0x2
   20700:	06f8                	addi	a4,sp,844
   20702:	0002                	0x2
   20704:	06f8                	addi	a4,sp,844
   20706:	0002                	0x2
   20708:	0700                	addi	s0,sp,896
   2070a:	0002                	0x2
   2070c:	0700                	addi	s0,sp,896
   2070e:	0002                	0x2
   20710:	0708                	addi	a0,sp,896
   20712:	0002                	0x2
   20714:	0708                	addi	a0,sp,896
   20716:	0002                	0x2
   20718:	0710                	addi	a2,sp,896
   2071a:	0002                	0x2
   2071c:	0710                	addi	a2,sp,896
   2071e:	0002                	0x2
   20720:	0718                	addi	a4,sp,896
   20722:	0002                	0x2
   20724:	0718                	addi	a4,sp,896
   20726:	0002                	0x2
   20728:	0720                	addi	s0,sp,904
   2072a:	0002                	0x2
   2072c:	0720                	addi	s0,sp,904
   2072e:	0002                	0x2
   20730:	0728                	addi	a0,sp,904
   20732:	0002                	0x2
   20734:	0728                	addi	a0,sp,904
   20736:	0002                	0x2
   20738:	0730                	addi	a2,sp,904
   2073a:	0002                	0x2
   2073c:	0730                	addi	a2,sp,904
   2073e:	0002                	0x2
   20740:	0738                	addi	a4,sp,904
   20742:	0002                	0x2
   20744:	0738                	addi	a4,sp,904
   20746:	0002                	0x2
   20748:	0740                	addi	s0,sp,900
   2074a:	0002                	0x2
   2074c:	0740                	addi	s0,sp,900
   2074e:	0002                	0x2
   20750:	0748                	addi	a0,sp,900
   20752:	0002                	0x2
   20754:	0748                	addi	a0,sp,900
   20756:	0002                	0x2
   20758:	0750                	addi	a2,sp,900
   2075a:	0002                	0x2
   2075c:	0750                	addi	a2,sp,900
   2075e:	0002                	0x2
   20760:	0758                	addi	a4,sp,900
   20762:	0002                	0x2
   20764:	0758                	addi	a4,sp,900
   20766:	0002                	0x2
   20768:	0760                	addi	s0,sp,908
   2076a:	0002                	0x2
   2076c:	0760                	addi	s0,sp,908
   2076e:	0002                	0x2
   20770:	0768                	addi	a0,sp,908
   20772:	0002                	0x2
   20774:	0768                	addi	a0,sp,908
   20776:	0002                	0x2
   20778:	0770                	addi	a2,sp,908
   2077a:	0002                	0x2
   2077c:	0770                	addi	a2,sp,908
   2077e:	0002                	0x2
   20780:	0778                	addi	a4,sp,908
   20782:	0002                	0x2
   20784:	0778                	addi	a4,sp,908
   20786:	0002                	0x2
   20788:	0780                	addi	s0,sp,960
   2078a:	0002                	0x2
   2078c:	0780                	addi	s0,sp,960
   2078e:	0002                	0x2
   20790:	0788                	addi	a0,sp,960
   20792:	0002                	0x2
   20794:	0788                	addi	a0,sp,960
   20796:	0002                	0x2
   20798:	0790                	addi	a2,sp,960
   2079a:	0002                	0x2
   2079c:	0790                	addi	a2,sp,960
   2079e:	0002                	0x2
   207a0:	0798                	addi	a4,sp,960
   207a2:	0002                	0x2
   207a4:	0798                	addi	a4,sp,960
   207a6:	0002                	0x2
   207a8:	07a0                	addi	s0,sp,968
   207aa:	0002                	0x2
   207ac:	07a0                	addi	s0,sp,968
   207ae:	0002                	0x2
   207b0:	07a8                	addi	a0,sp,968
   207b2:	0002                	0x2
   207b4:	07a8                	addi	a0,sp,968
   207b6:	0002                	0x2
   207b8:	07b0                	addi	a2,sp,968
   207ba:	0002                	0x2
   207bc:	07b0                	addi	a2,sp,968
   207be:	0002                	0x2
   207c0:	07b8                	addi	a4,sp,968
   207c2:	0002                	0x2
   207c4:	07b8                	addi	a4,sp,968
   207c6:	0002                	0x2
   207c8:	07c0                	addi	s0,sp,964
   207ca:	0002                	0x2
   207cc:	07c0                	addi	s0,sp,964
   207ce:	0002                	0x2
   207d0:	07c8                	addi	a0,sp,964
   207d2:	0002                	0x2
   207d4:	07c8                	addi	a0,sp,964
   207d6:	0002                	0x2
   207d8:	07d0                	addi	a2,sp,964
   207da:	0002                	0x2
   207dc:	07d0                	addi	a2,sp,964
   207de:	0002                	0x2
   207e0:	07d8                	addi	a4,sp,964
   207e2:	0002                	0x2
   207e4:	07d8                	addi	a4,sp,964
   207e6:	0002                	0x2
   207e8:	07e0                	addi	s0,sp,972
   207ea:	0002                	0x2
   207ec:	07e0                	addi	s0,sp,972
   207ee:	0002                	0x2
   207f0:	07e8                	addi	a0,sp,972
   207f2:	0002                	0x2
   207f4:	07e8                	addi	a0,sp,972
   207f6:	0002                	0x2
   207f8:	07f0                	addi	a2,sp,972
   207fa:	0002                	0x2
   207fc:	07f0                	addi	a2,sp,972
   207fe:	0002                	0x2
   20800:	07f8                	addi	a4,sp,972
   20802:	0002                	0x2
   20804:	07f8                	addi	a4,sp,972
   20806:	0002                	0x2
   20808:	0800                	addi	s0,sp,16
   2080a:	0002                	0x2
   2080c:	0800                	addi	s0,sp,16
   2080e:	0002                	0x2
   20810:	0808                	addi	a0,sp,16
   20812:	0002                	0x2
   20814:	0808                	addi	a0,sp,16
   20816:	0002                	0x2
   20818:	0810                	addi	a2,sp,16
   2081a:	0002                	0x2
   2081c:	0810                	addi	a2,sp,16
   2081e:	0002                	0x2
   20820:	0818                	addi	a4,sp,16
   20822:	0002                	0x2
   20824:	0818                	addi	a4,sp,16
   20826:	0002                	0x2
   20828:	0820                	addi	s0,sp,24
   2082a:	0002                	0x2
   2082c:	0820                	addi	s0,sp,24
   2082e:	0002                	0x2
