
system:     file format elf32-littleriscv


Disassembly of section .text:

80000000 <_start>:
80000000:	80021197          	auipc	gp,0x80021
80000004:	03018193          	addi	gp,gp,48 # 21030 <__global_pointer$>
80000008:	80021517          	auipc	a0,0x80021
8000000c:	82850513          	addi	a0,a0,-2008 # 20830 <_edata>
80000010:	87418613          	addi	a2,gp,-1932 # 208a4 <_bend>
80000014:	40a60633          	sub	a2,a2,a0
80000018:	00000593          	li	a1,0
8000001c:	2d0000ef          	jal	ra,800002ec <memset>
80000020:	00000517          	auipc	a0,0x0
80000024:	1b850513          	addi	a0,a0,440 # 800001d8 <__libc_fini_array>
80000028:	168000ef          	jal	ra,80000190 <atexit>
8000002c:	220000ef          	jal	ra,8000024c <__libc_init_array>
80000030:	00012503          	lw	a0,0(sp)
80000034:	00410593          	addi	a1,sp,4
80000038:	00000613          	li	a2,0
8000003c:	248010ef          	jal	ra,80001284 <_etext>
80000040:	1640006f          	j	800001a4 <exit>

80000044 <_fini>:
80000044:	00008067          	ret

80000048 <deregister_tm_clones>:
80000048:	81418713          	addi	a4,gp,-2028 # 20844 <__TMC_END__>
8000004c:	81418793          	addi	a5,gp,-2028 # 20844 <__TMC_END__>
80000050:	00e78c63          	beq	a5,a4,80000068 <deregister_tm_clones+0x20>
80000054:	00000337          	lui	t1,0x0
80000058:	00030313          	mv	t1,t1
8000005c:	00030663          	beqz	t1,80000068 <deregister_tm_clones+0x20>
80000060:	81418513          	addi	a0,gp,-2028 # 20844 <__TMC_END__>
80000064:	00030067          	jr	t1
80000068:	00008067          	ret

8000006c <register_tm_clones>:
8000006c:	81418593          	addi	a1,gp,-2028 # 20844 <__TMC_END__>
80000070:	81418793          	addi	a5,gp,-2028 # 20844 <__TMC_END__>
80000074:	40f585b3          	sub	a1,a1,a5
80000078:	4025d593          	srai	a1,a1,0x2
8000007c:	00200793          	li	a5,2
80000080:	02f5c5b3          	div	a1,a1,a5
80000084:	00058c63          	beqz	a1,8000009c <register_tm_clones+0x30>
80000088:	00000337          	lui	t1,0x0
8000008c:	00030313          	mv	t1,t1
80000090:	00030663          	beqz	t1,8000009c <register_tm_clones+0x30>
80000094:	81418513          	addi	a0,gp,-2028 # 20844 <__TMC_END__>
80000098:	00030067          	jr	t1
8000009c:	00008067          	ret

800000a0 <__do_global_dtors_aux>:
800000a0:	82c1c703          	lbu	a4,-2004(gp) # 2085c <_bstart>
800000a4:	04071663          	bnez	a4,800000f0 <__do_global_dtors_aux+0x50>
800000a8:	ff010113          	addi	sp,sp,-16
800000ac:	00812423          	sw	s0,8(sp)
800000b0:	00112623          	sw	ra,12(sp)
800000b4:	00078413          	mv	s0,a5
800000b8:	f91ff0ef          	jal	ra,80000048 <deregister_tm_clones>
800000bc:	000007b7          	lui	a5,0x0
800000c0:	00078793          	mv	a5,a5
800000c4:	00078a63          	beqz	a5,800000d8 <__do_global_dtors_aux+0x38>
800000c8:	80001537          	lui	a0,0x80001
800000cc:	2a850513          	addi	a0,a0,680 # 800012a8 <__EH_FRAME_BEGIN__+0x0>
800000d0:	80000097          	auipc	ra,0x80000
800000d4:	f30080e7          	jalr	-208(ra) # 0 <_data-0x20000>
800000d8:	00100793          	li	a5,1
800000dc:	82f18623          	sb	a5,-2004(gp) # 2085c <_bstart>
800000e0:	00c12083          	lw	ra,12(sp)
800000e4:	00812403          	lw	s0,8(sp)
800000e8:	01010113          	addi	sp,sp,16
800000ec:	00008067          	ret
800000f0:	00008067          	ret

800000f4 <frame_dummy>:
800000f4:	000007b7          	lui	a5,0x0
800000f8:	00078793          	mv	a5,a5
800000fc:	02078463          	beqz	a5,80000124 <frame_dummy+0x30>
80000100:	80001537          	lui	a0,0x80001
80000104:	ff010113          	addi	sp,sp,-16
80000108:	83018593          	addi	a1,gp,-2000 # 20860 <object.5183>
8000010c:	2a850513          	addi	a0,a0,680 # 800012a8 <__EH_FRAME_BEGIN__+0x0>
80000110:	00112623          	sw	ra,12(sp)
80000114:	80000097          	auipc	ra,0x80000
80000118:	eec080e7          	jalr	-276(ra) # 0 <_data-0x20000>
8000011c:	00c12083          	lw	ra,12(sp)
80000120:	01010113          	addi	sp,sp,16
80000124:	f49ff06f          	j	8000006c <register_tm_clones>

80000128 <debug_puts>:
80000128:	fe010113          	addi	sp,sp,-32
8000012c:	00812c23          	sw	s0,24(sp)
80000130:	00112e23          	sw	ra,28(sp)
80000134:	00a12623          	sw	a0,12(sp)
80000138:	290000ef          	jal	ra,800003c8 <strlen>
8000013c:	00c12583          	lw	a1,12(sp)
80000140:	00050413          	mv	s0,a0
80000144:	00050613          	mv	a2,a0
80000148:	00100513          	li	a0,1
8000014c:	298000ef          	jal	ra,800003e4 <write>
80000150:	00850663          	beq	a0,s0,8000015c <debug_puts+0x34>
80000154:	00100513          	li	a0,1
80000158:	7cd000ef          	jal	ra,80001124 <_exit>
8000015c:	01c12083          	lw	ra,28(sp)
80000160:	01812403          	lw	s0,24(sp)
80000164:	02010113          	addi	sp,sp,32
80000168:	00008067          	ret

8000016c <debug_print>:
8000016c:	fbdff06f          	j	80000128 <debug_puts>

80000170 <debug_println>:
80000170:	ff010113          	addi	sp,sp,-16
80000174:	00112623          	sw	ra,12(sp)
80000178:	fb1ff0ef          	jal	ra,80000128 <debug_puts>
8000017c:	00c12083          	lw	ra,12(sp)
80000180:	80001537          	lui	a0,0x80001
80000184:	2ac50513          	addi	a0,a0,684 # 800012ac <__EH_FRAME_BEGIN__+0x4>
80000188:	01010113          	addi	sp,sp,16
8000018c:	f9dff06f          	j	80000128 <debug_puts>

80000190 <atexit>:
80000190:	00050593          	mv	a1,a0
80000194:	00000693          	li	a3,0
80000198:	00000613          	li	a2,0
8000019c:	00000513          	li	a0,0
800001a0:	2a80006f          	j	80000448 <__register_exitproc>

800001a4 <exit>:
800001a4:	ff010113          	addi	sp,sp,-16
800001a8:	00000593          	li	a1,0
800001ac:	00812423          	sw	s0,8(sp)
800001b0:	00112623          	sw	ra,12(sp)
800001b4:	00050413          	mv	s0,a0
800001b8:	310000ef          	jal	ra,800004c8 <__call_exitprocs>
800001bc:	000217b7          	lui	a5,0x21
800001c0:	8347a503          	lw	a0,-1996(a5) # 20834 <_global_impure_ptr>
800001c4:	03c52783          	lw	a5,60(a0)
800001c8:	00078463          	beqz	a5,800001d0 <exit+0x2c>
800001cc:	000780e7          	jalr	a5
800001d0:	00040513          	mv	a0,s0
800001d4:	751000ef          	jal	ra,80001124 <_exit>

800001d8 <__libc_fini_array>:
800001d8:	fe010113          	addi	sp,sp,-32
800001dc:	000007b7          	lui	a5,0x0
800001e0:	00000737          	lui	a4,0x0
800001e4:	00812c23          	sw	s0,24(sp)
800001e8:	00070713          	mv	a4,a4
800001ec:	00078413          	mv	s0,a5
800001f0:	40e40433          	sub	s0,s0,a4
800001f4:	00912a23          	sw	s1,20(sp)
800001f8:	01212823          	sw	s2,16(sp)
800001fc:	01312623          	sw	s3,12(sp)
80000200:	00112e23          	sw	ra,28(sp)
80000204:	40245413          	srai	s0,s0,0x2
80000208:	00000493          	li	s1,0
8000020c:	00078913          	mv	s2,a5
80000210:	ffc00993          	li	s3,-4
80000214:	02941063          	bne	s0,s1,80000234 <__libc_fini_array+0x5c>
80000218:	01812403          	lw	s0,24(sp)
8000021c:	01c12083          	lw	ra,28(sp)
80000220:	01412483          	lw	s1,20(sp)
80000224:	01012903          	lw	s2,16(sp)
80000228:	00c12983          	lw	s3,12(sp)
8000022c:	02010113          	addi	sp,sp,32
80000230:	e15ff06f          	j	80000044 <_fini>
80000234:	033487b3          	mul	a5,s1,s3
80000238:	00148493          	addi	s1,s1,1
8000023c:	00f907b3          	add	a5,s2,a5
80000240:	ffc7a783          	lw	a5,-4(a5) # fffffffc <__EH_FRAME_BEGIN__+0x7fffed54>
80000244:	000780e7          	jalr	a5
80000248:	fcdff06f          	j	80000214 <__libc_fini_array+0x3c>

8000024c <__libc_init_array>:
8000024c:	ff010113          	addi	sp,sp,-16
80000250:	00812423          	sw	s0,8(sp)
80000254:	00912223          	sw	s1,4(sp)
80000258:	00000437          	lui	s0,0x0
8000025c:	000004b7          	lui	s1,0x0
80000260:	00048793          	mv	a5,s1
80000264:	00040413          	mv	s0,s0
80000268:	40f40433          	sub	s0,s0,a5
8000026c:	01212023          	sw	s2,0(sp)
80000270:	00112623          	sw	ra,12(sp)
80000274:	40245413          	srai	s0,s0,0x2
80000278:	00048493          	mv	s1,s1
8000027c:	00000913          	li	s2,0
80000280:	04891263          	bne	s2,s0,800002c4 <__libc_init_array+0x78>
80000284:	000004b7          	lui	s1,0x0
80000288:	dbdff0ef          	jal	ra,80000044 <_fini>
8000028c:	00000437          	lui	s0,0x0
80000290:	00048793          	mv	a5,s1
80000294:	00040413          	mv	s0,s0
80000298:	40f40433          	sub	s0,s0,a5
8000029c:	40245413          	srai	s0,s0,0x2
800002a0:	00048493          	mv	s1,s1
800002a4:	00000913          	li	s2,0
800002a8:	02891863          	bne	s2,s0,800002d8 <__libc_init_array+0x8c>
800002ac:	00c12083          	lw	ra,12(sp)
800002b0:	00812403          	lw	s0,8(sp)
800002b4:	00412483          	lw	s1,4(sp)
800002b8:	00012903          	lw	s2,0(sp)
800002bc:	01010113          	addi	sp,sp,16
800002c0:	00008067          	ret
800002c4:	0004a783          	lw	a5,0(s1) # 0 <_data-0x20000>
800002c8:	00190913          	addi	s2,s2,1
800002cc:	00448493          	addi	s1,s1,4
800002d0:	000780e7          	jalr	a5
800002d4:	fadff06f          	j	80000280 <__libc_init_array+0x34>
800002d8:	0004a783          	lw	a5,0(s1)
800002dc:	00190913          	addi	s2,s2,1
800002e0:	00448493          	addi	s1,s1,4
800002e4:	000780e7          	jalr	a5
800002e8:	fc1ff06f          	j	800002a8 <__libc_init_array+0x5c>

800002ec <memset>:
800002ec:	00f00313          	li	t1,15
800002f0:	00050713          	mv	a4,a0
800002f4:	02c37e63          	bleu	a2,t1,80000330 <memset+0x44>
800002f8:	00f77793          	andi	a5,a4,15
800002fc:	0a079063          	bnez	a5,8000039c <memset+0xb0>
80000300:	08059263          	bnez	a1,80000384 <memset+0x98>
80000304:	ff067693          	andi	a3,a2,-16
80000308:	00f67613          	andi	a2,a2,15
8000030c:	00e686b3          	add	a3,a3,a4
80000310:	00b72023          	sw	a1,0(a4) # 0 <_data-0x20000>
80000314:	00b72223          	sw	a1,4(a4)
80000318:	00b72423          	sw	a1,8(a4)
8000031c:	00b72623          	sw	a1,12(a4)
80000320:	01070713          	addi	a4,a4,16
80000324:	fed766e3          	bltu	a4,a3,80000310 <memset+0x24>
80000328:	00061463          	bnez	a2,80000330 <memset+0x44>
8000032c:	00008067          	ret
80000330:	40c306b3          	sub	a3,t1,a2
80000334:	00269693          	slli	a3,a3,0x2
80000338:	00000297          	auipc	t0,0x0
8000033c:	005686b3          	add	a3,a3,t0
80000340:	00c68067          	jr	12(a3)
80000344:	00b70723          	sb	a1,14(a4)
80000348:	00b706a3          	sb	a1,13(a4)
8000034c:	00b70623          	sb	a1,12(a4)
80000350:	00b705a3          	sb	a1,11(a4)
80000354:	00b70523          	sb	a1,10(a4)
80000358:	00b704a3          	sb	a1,9(a4)
8000035c:	00b70423          	sb	a1,8(a4)
80000360:	00b703a3          	sb	a1,7(a4)
80000364:	00b70323          	sb	a1,6(a4)
80000368:	00b702a3          	sb	a1,5(a4)
8000036c:	00b70223          	sb	a1,4(a4)
80000370:	00b701a3          	sb	a1,3(a4)
80000374:	00b70123          	sb	a1,2(a4)
80000378:	00b700a3          	sb	a1,1(a4)
8000037c:	00b70023          	sb	a1,0(a4)
80000380:	00008067          	ret
80000384:	0ff5f593          	andi	a1,a1,255
80000388:	00859693          	slli	a3,a1,0x8
8000038c:	00d5e5b3          	or	a1,a1,a3
80000390:	01059693          	slli	a3,a1,0x10
80000394:	00d5e5b3          	or	a1,a1,a3
80000398:	f6dff06f          	j	80000304 <memset+0x18>
8000039c:	00279693          	slli	a3,a5,0x2
800003a0:	00000297          	auipc	t0,0x0
800003a4:	005686b3          	add	a3,a3,t0
800003a8:	00008293          	mv	t0,ra
800003ac:	fa0680e7          	jalr	-96(a3)
800003b0:	00028093          	mv	ra,t0
800003b4:	ff078793          	addi	a5,a5,-16
800003b8:	40f70733          	sub	a4,a4,a5
800003bc:	00f60633          	add	a2,a2,a5
800003c0:	f6c378e3          	bleu	a2,t1,80000330 <memset+0x44>
800003c4:	f3dff06f          	j	80000300 <memset+0x14>

800003c8 <strlen>:
800003c8:	00050793          	mv	a5,a0
800003cc:	00178793          	addi	a5,a5,1
800003d0:	fff7c703          	lbu	a4,-1(a5)
800003d4:	fe071ce3          	bnez	a4,800003cc <strlen+0x4>
800003d8:	40a78533          	sub	a0,a5,a0
800003dc:	fff50513          	addi	a0,a0,-1
800003e0:	00008067          	ret

800003e4 <write>:
800003e4:	00060693          	mv	a3,a2
800003e8:	00058613          	mv	a2,a1
800003ec:	00050593          	mv	a1,a0
800003f0:	8081a503          	lw	a0,-2040(gp) # 20838 <_impure_ptr>
800003f4:	0040006f          	j	800003f8 <_write_r>

800003f8 <_write_r>:
800003f8:	ff010113          	addi	sp,sp,-16
800003fc:	00812423          	sw	s0,8(sp)
80000400:	00912223          	sw	s1,4(sp)
80000404:	00050493          	mv	s1,a0
80000408:	00058513          	mv	a0,a1
8000040c:	00060593          	mv	a1,a2
80000410:	00068613          	mv	a2,a3
80000414:	00112623          	sw	ra,12(sp)
80000418:	8601a823          	sw	zero,-1936(gp) # 208a0 <errno>
8000041c:	615000ef          	jal	ra,80001230 <_write>
80000420:	fff00793          	li	a5,-1
80000424:	00f51863          	bne	a0,a5,80000434 <_write_r+0x3c>
80000428:	8701a783          	lw	a5,-1936(gp) # 208a0 <errno>
8000042c:	00078463          	beqz	a5,80000434 <_write_r+0x3c>
80000430:	00f4a023          	sw	a5,0(s1)
80000434:	00c12083          	lw	ra,12(sp)
80000438:	00812403          	lw	s0,8(sp)
8000043c:	00412483          	lw	s1,4(sp)
80000440:	01010113          	addi	sp,sp,16
80000444:	00008067          	ret

80000448 <__register_exitproc>:
80000448:	000217b7          	lui	a5,0x21
8000044c:	8347a703          	lw	a4,-1996(a5) # 20834 <_global_impure_ptr>
80000450:	00050313          	mv	t1,a0
80000454:	14872783          	lw	a5,328(a4)
80000458:	00079663          	bnez	a5,80000464 <__register_exitproc+0x1c>
8000045c:	14c70793          	addi	a5,a4,332
80000460:	14f72423          	sw	a5,328(a4)
80000464:	0047a703          	lw	a4,4(a5)
80000468:	01f00813          	li	a6,31
8000046c:	fff00513          	li	a0,-1
80000470:	04e84a63          	blt	a6,a4,800004c4 <__register_exitproc+0x7c>
80000474:	00271893          	slli	a7,a4,0x2
80000478:	02030c63          	beqz	t1,800004b0 <__register_exitproc+0x68>
8000047c:	01178533          	add	a0,a5,a7
80000480:	08c52423          	sw	a2,136(a0)
80000484:	1887a803          	lw	a6,392(a5)
80000488:	00100613          	li	a2,1
8000048c:	00e61633          	sll	a2,a2,a4
80000490:	00c86833          	or	a6,a6,a2
80000494:	1907a423          	sw	a6,392(a5)
80000498:	10d52423          	sw	a3,264(a0)
8000049c:	00200693          	li	a3,2
800004a0:	00d31863          	bne	t1,a3,800004b0 <__register_exitproc+0x68>
800004a4:	18c7a683          	lw	a3,396(a5)
800004a8:	00c6e633          	or	a2,a3,a2
800004ac:	18c7a623          	sw	a2,396(a5)
800004b0:	00170713          	addi	a4,a4,1
800004b4:	00e7a223          	sw	a4,4(a5)
800004b8:	011787b3          	add	a5,a5,a7
800004bc:	00b7a423          	sw	a1,8(a5)
800004c0:	00000513          	li	a0,0
800004c4:	00008067          	ret

800004c8 <__call_exitprocs>:
800004c8:	fd010113          	addi	sp,sp,-48
800004cc:	000217b7          	lui	a5,0x21
800004d0:	01312e23          	sw	s3,28(sp)
800004d4:	8347a983          	lw	s3,-1996(a5) # 20834 <_global_impure_ptr>
800004d8:	01412c23          	sw	s4,24(sp)
800004dc:	01512a23          	sw	s5,20(sp)
800004e0:	01612823          	sw	s6,16(sp)
800004e4:	02112623          	sw	ra,44(sp)
800004e8:	02812423          	sw	s0,40(sp)
800004ec:	02912223          	sw	s1,36(sp)
800004f0:	03212023          	sw	s2,32(sp)
800004f4:	01712623          	sw	s7,12(sp)
800004f8:	00050a93          	mv	s5,a0
800004fc:	00058a13          	mv	s4,a1
80000500:	00100b13          	li	s6,1
80000504:	1489a483          	lw	s1,328(s3)
80000508:	00048c63          	beqz	s1,80000520 <__call_exitprocs+0x58>
8000050c:	0044a403          	lw	s0,4(s1)
80000510:	fff40913          	addi	s2,s0,-1
80000514:	00241413          	slli	s0,s0,0x2
80000518:	00848433          	add	s0,s1,s0
8000051c:	02095863          	bgez	s2,8000054c <__call_exitprocs+0x84>
80000520:	02c12083          	lw	ra,44(sp)
80000524:	02812403          	lw	s0,40(sp)
80000528:	02412483          	lw	s1,36(sp)
8000052c:	02012903          	lw	s2,32(sp)
80000530:	01c12983          	lw	s3,28(sp)
80000534:	01812a03          	lw	s4,24(sp)
80000538:	01412a83          	lw	s5,20(sp)
8000053c:	01012b03          	lw	s6,16(sp)
80000540:	00c12b83          	lw	s7,12(sp)
80000544:	03010113          	addi	sp,sp,48
80000548:	00008067          	ret
8000054c:	000a0c63          	beqz	s4,80000564 <__call_exitprocs+0x9c>
80000550:	10442783          	lw	a5,260(s0)
80000554:	01478863          	beq	a5,s4,80000564 <__call_exitprocs+0x9c>
80000558:	fff90913          	addi	s2,s2,-1
8000055c:	ffc40413          	addi	s0,s0,-4
80000560:	fbdff06f          	j	8000051c <__call_exitprocs+0x54>
80000564:	0044a703          	lw	a4,4(s1)
80000568:	00442783          	lw	a5,4(s0)
8000056c:	fff70713          	addi	a4,a4,-1
80000570:	03271c63          	bne	a4,s2,800005a8 <__call_exitprocs+0xe0>
80000574:	0124a223          	sw	s2,4(s1)
80000578:	fe0780e3          	beqz	a5,80000558 <__call_exitprocs+0x90>
8000057c:	1884a683          	lw	a3,392(s1)
80000580:	012b1733          	sll	a4,s6,s2
80000584:	0044ab83          	lw	s7,4(s1)
80000588:	00d776b3          	and	a3,a4,a3
8000058c:	02069263          	bnez	a3,800005b0 <__call_exitprocs+0xe8>
80000590:	000780e7          	jalr	a5
80000594:	0044a703          	lw	a4,4(s1)
80000598:	1489a783          	lw	a5,328(s3)
8000059c:	f77714e3          	bne	a4,s7,80000504 <__call_exitprocs+0x3c>
800005a0:	faf48ce3          	beq	s1,a5,80000558 <__call_exitprocs+0x90>
800005a4:	f61ff06f          	j	80000504 <__call_exitprocs+0x3c>
800005a8:	00042223          	sw	zero,4(s0)
800005ac:	fcdff06f          	j	80000578 <__call_exitprocs+0xb0>
800005b0:	18c4a683          	lw	a3,396(s1)
800005b4:	08442583          	lw	a1,132(s0)
800005b8:	00d77733          	and	a4,a4,a3
800005bc:	00071863          	bnez	a4,800005cc <__call_exitprocs+0x104>
800005c0:	000a8513          	mv	a0,s5
800005c4:	000780e7          	jalr	a5
800005c8:	fcdff06f          	j	80000594 <__call_exitprocs+0xcc>
800005cc:	00058513          	mv	a0,a1
800005d0:	000780e7          	jalr	a5
800005d4:	fc1ff06f          	j	80000594 <__call_exitprocs+0xcc>

800005d8 <cleanup_glue>:
800005d8:	ff010113          	addi	sp,sp,-16
800005dc:	00812423          	sw	s0,8(sp)
800005e0:	00058413          	mv	s0,a1
800005e4:	0005a583          	lw	a1,0(a1)
800005e8:	00912223          	sw	s1,4(sp)
800005ec:	00112623          	sw	ra,12(sp)
800005f0:	00050493          	mv	s1,a0
800005f4:	00058463          	beqz	a1,800005fc <cleanup_glue+0x24>
800005f8:	fe1ff0ef          	jal	ra,800005d8 <cleanup_glue>
800005fc:	00040593          	mv	a1,s0
80000600:	00812403          	lw	s0,8(sp)
80000604:	00c12083          	lw	ra,12(sp)
80000608:	00048513          	mv	a0,s1
8000060c:	00412483          	lw	s1,4(sp)
80000610:	01010113          	addi	sp,sp,16
80000614:	2200006f          	j	80000834 <_free_r>

80000618 <_reclaim_reent>:
80000618:	8081a783          	lw	a5,-2040(gp) # 20838 <_impure_ptr>
8000061c:	10a78263          	beq	a5,a0,80000720 <_reclaim_reent+0x108>
80000620:	04c52783          	lw	a5,76(a0)
80000624:	fe010113          	addi	sp,sp,-32
80000628:	00812c23          	sw	s0,24(sp)
8000062c:	00912a23          	sw	s1,20(sp)
80000630:	01212823          	sw	s2,16(sp)
80000634:	00112e23          	sw	ra,28(sp)
80000638:	01312623          	sw	s3,12(sp)
8000063c:	00050413          	mv	s0,a0
80000640:	00000493          	li	s1,0
80000644:	08000913          	li	s2,128
80000648:	04079463          	bnez	a5,80000690 <_reclaim_reent+0x78>
8000064c:	04042583          	lw	a1,64(s0)
80000650:	00058663          	beqz	a1,8000065c <_reclaim_reent+0x44>
80000654:	00040513          	mv	a0,s0
80000658:	1dc000ef          	jal	ra,80000834 <_free_r>
8000065c:	14842583          	lw	a1,328(s0)
80000660:	04058c63          	beqz	a1,800006b8 <_reclaim_reent+0xa0>
80000664:	14c40493          	addi	s1,s0,332
80000668:	04958863          	beq	a1,s1,800006b8 <_reclaim_reent+0xa0>
8000066c:	0005a903          	lw	s2,0(a1)
80000670:	00040513          	mv	a0,s0
80000674:	1c0000ef          	jal	ra,80000834 <_free_r>
80000678:	00090593          	mv	a1,s2
8000067c:	fedff06f          	j	80000668 <_reclaim_reent+0x50>
80000680:	009585b3          	add	a1,a1,s1
80000684:	0005a583          	lw	a1,0(a1)
80000688:	00059e63          	bnez	a1,800006a4 <_reclaim_reent+0x8c>
8000068c:	00448493          	addi	s1,s1,4
80000690:	04c42583          	lw	a1,76(s0)
80000694:	ff2496e3          	bne	s1,s2,80000680 <_reclaim_reent+0x68>
80000698:	00040513          	mv	a0,s0
8000069c:	198000ef          	jal	ra,80000834 <_free_r>
800006a0:	fadff06f          	j	8000064c <_reclaim_reent+0x34>
800006a4:	0005a983          	lw	s3,0(a1)
800006a8:	00040513          	mv	a0,s0
800006ac:	188000ef          	jal	ra,80000834 <_free_r>
800006b0:	00098593          	mv	a1,s3
800006b4:	fd5ff06f          	j	80000688 <_reclaim_reent+0x70>
800006b8:	05442583          	lw	a1,84(s0)
800006bc:	00058663          	beqz	a1,800006c8 <_reclaim_reent+0xb0>
800006c0:	00040513          	mv	a0,s0
800006c4:	170000ef          	jal	ra,80000834 <_free_r>
800006c8:	03842783          	lw	a5,56(s0)
800006cc:	02078c63          	beqz	a5,80000704 <_reclaim_reent+0xec>
800006d0:	03c42783          	lw	a5,60(s0)
800006d4:	00040513          	mv	a0,s0
800006d8:	000780e7          	jalr	a5
800006dc:	2e042583          	lw	a1,736(s0)
800006e0:	02058263          	beqz	a1,80000704 <_reclaim_reent+0xec>
800006e4:	00040513          	mv	a0,s0
800006e8:	01812403          	lw	s0,24(sp)
800006ec:	01c12083          	lw	ra,28(sp)
800006f0:	01412483          	lw	s1,20(sp)
800006f4:	01012903          	lw	s2,16(sp)
800006f8:	00c12983          	lw	s3,12(sp)
800006fc:	02010113          	addi	sp,sp,32
80000700:	ed9ff06f          	j	800005d8 <cleanup_glue>
80000704:	01c12083          	lw	ra,28(sp)
80000708:	01812403          	lw	s0,24(sp)
8000070c:	01412483          	lw	s1,20(sp)
80000710:	01012903          	lw	s2,16(sp)
80000714:	00c12983          	lw	s3,12(sp)
80000718:	02010113          	addi	sp,sp,32
8000071c:	00008067          	ret
80000720:	00008067          	ret

80000724 <_malloc_trim_r>:
80000724:	fd010113          	addi	sp,sp,-48
80000728:	03212023          	sw	s2,32(sp)
8000072c:	00020937          	lui	s2,0x20
80000730:	02812423          	sw	s0,40(sp)
80000734:	02912223          	sw	s1,36(sp)
80000738:	01312e23          	sw	s3,28(sp)
8000073c:	00b12623          	sw	a1,12(sp)
80000740:	02112623          	sw	ra,44(sp)
80000744:	00050993          	mv	s3,a0
80000748:	42890913          	addi	s2,s2,1064 # 20428 <__malloc_av_>
8000074c:	189000ef          	jal	ra,800010d4 <__malloc_lock>
80000750:	00892783          	lw	a5,8(s2)
80000754:	00c12583          	lw	a1,12(sp)
80000758:	0047a483          	lw	s1,4(a5)
8000075c:	000017b7          	lui	a5,0x1
80000760:	fef78413          	addi	s0,a5,-17 # fef <_data-0x1f011>
80000764:	ffc4f493          	andi	s1,s1,-4
80000768:	40b40433          	sub	s0,s0,a1
8000076c:	00940433          	add	s0,s0,s1
80000770:	00c45413          	srli	s0,s0,0xc
80000774:	fff40413          	addi	s0,s0,-1
80000778:	00c41413          	slli	s0,s0,0xc
8000077c:	02f45663          	ble	a5,s0,800007a8 <_malloc_trim_r+0x84>
80000780:	00098513          	mv	a0,s3
80000784:	155000ef          	jal	ra,800010d8 <__malloc_unlock>
80000788:	00000513          	li	a0,0
8000078c:	02c12083          	lw	ra,44(sp)
80000790:	02812403          	lw	s0,40(sp)
80000794:	02412483          	lw	s1,36(sp)
80000798:	02012903          	lw	s2,32(sp)
8000079c:	01c12983          	lw	s3,28(sp)
800007a0:	03010113          	addi	sp,sp,48
800007a4:	00008067          	ret
800007a8:	00000593          	li	a1,0
800007ac:	00098513          	mv	a0,s3
800007b0:	12d000ef          	jal	ra,800010dc <_sbrk_r>
800007b4:	00892783          	lw	a5,8(s2)
800007b8:	009787b3          	add	a5,a5,s1
800007bc:	fcf512e3          	bne	a0,a5,80000780 <_malloc_trim_r+0x5c>
800007c0:	408005b3          	neg	a1,s0
800007c4:	00098513          	mv	a0,s3
800007c8:	115000ef          	jal	ra,800010dc <_sbrk_r>
800007cc:	fff00793          	li	a5,-1
800007d0:	02f51c63          	bne	a0,a5,80000808 <_malloc_trim_r+0xe4>
800007d4:	00000593          	li	a1,0
800007d8:	00098513          	mv	a0,s3
800007dc:	101000ef          	jal	ra,800010dc <_sbrk_r>
800007e0:	00892703          	lw	a4,8(s2)
800007e4:	00f00693          	li	a3,15
800007e8:	40e507b3          	sub	a5,a0,a4
800007ec:	f8f6dae3          	ble	a5,a3,80000780 <_malloc_trim_r+0x5c>
800007f0:	80c1a683          	lw	a3,-2036(gp) # 2083c <__malloc_sbrk_base>
800007f4:	0017e793          	ori	a5,a5,1
800007f8:	00f72223          	sw	a5,4(a4)
800007fc:	40d50533          	sub	a0,a0,a3
80000800:	84a1a423          	sw	a0,-1976(gp) # 20878 <__malloc_current_mallinfo>
80000804:	f7dff06f          	j	80000780 <_malloc_trim_r+0x5c>
80000808:	00892783          	lw	a5,8(s2)
8000080c:	408484b3          	sub	s1,s1,s0
80000810:	0014e493          	ori	s1,s1,1
80000814:	0097a223          	sw	s1,4(a5)
80000818:	8481a783          	lw	a5,-1976(gp) # 20878 <__malloc_current_mallinfo>
8000081c:	00098513          	mv	a0,s3
80000820:	40878433          	sub	s0,a5,s0
80000824:	8481a423          	sw	s0,-1976(gp) # 20878 <__malloc_current_mallinfo>
80000828:	0b1000ef          	jal	ra,800010d8 <__malloc_unlock>
8000082c:	00100513          	li	a0,1
80000830:	f5dff06f          	j	8000078c <_malloc_trim_r+0x68>

80000834 <_free_r>:
80000834:	24058c63          	beqz	a1,80000a8c <_free_r+0x258>
80000838:	ff010113          	addi	sp,sp,-16
8000083c:	00812423          	sw	s0,8(sp)
80000840:	00912223          	sw	s1,4(sp)
80000844:	00050413          	mv	s0,a0
80000848:	00058493          	mv	s1,a1
8000084c:	00112623          	sw	ra,12(sp)
80000850:	085000ef          	jal	ra,800010d4 <__malloc_lock>
80000854:	ffc4a503          	lw	a0,-4(s1)
80000858:	00020637          	lui	a2,0x20
8000085c:	ff848693          	addi	a3,s1,-8
80000860:	ffe57793          	andi	a5,a0,-2
80000864:	42860813          	addi	a6,a2,1064 # 20428 <__malloc_av_>
80000868:	00f685b3          	add	a1,a3,a5
8000086c:	0045a703          	lw	a4,4(a1)
80000870:	00882803          	lw	a6,8(a6)
80000874:	42860613          	addi	a2,a2,1064
80000878:	ffc77713          	andi	a4,a4,-4
8000087c:	00157513          	andi	a0,a0,1
80000880:	06b81063          	bne	a6,a1,800008e0 <_free_r+0xac>
80000884:	00e787b3          	add	a5,a5,a4
80000888:	02051063          	bnez	a0,800008a8 <_free_r+0x74>
8000088c:	ff84a703          	lw	a4,-8(s1)
80000890:	40e686b3          	sub	a3,a3,a4
80000894:	0086a583          	lw	a1,8(a3)
80000898:	00e787b3          	add	a5,a5,a4
8000089c:	00c6a703          	lw	a4,12(a3)
800008a0:	00e5a623          	sw	a4,12(a1)
800008a4:	00b72423          	sw	a1,8(a4)
800008a8:	0017e713          	ori	a4,a5,1
800008ac:	00e6a223          	sw	a4,4(a3)
800008b0:	8101a703          	lw	a4,-2032(gp) # 20840 <__malloc_trim_threshold>
800008b4:	00d62423          	sw	a3,8(a2)
800008b8:	00e7e863          	bltu	a5,a4,800008c8 <_free_r+0x94>
800008bc:	8241a583          	lw	a1,-2012(gp) # 20854 <__malloc_top_pad>
800008c0:	00040513          	mv	a0,s0
800008c4:	e61ff0ef          	jal	ra,80000724 <_malloc_trim_r>
800008c8:	00040513          	mv	a0,s0
800008cc:	00812403          	lw	s0,8(sp)
800008d0:	00c12083          	lw	ra,12(sp)
800008d4:	00412483          	lw	s1,4(sp)
800008d8:	01010113          	addi	sp,sp,16
800008dc:	7fc0006f          	j	800010d8 <__malloc_unlock>
800008e0:	00e5a223          	sw	a4,4(a1)
800008e4:	00000813          	li	a6,0
800008e8:	02051663          	bnez	a0,80000914 <_free_r+0xe0>
800008ec:	ff84a503          	lw	a0,-8(s1)
800008f0:	000208b7          	lui	a7,0x20
800008f4:	43088893          	addi	a7,a7,1072 # 20430 <__malloc_av_+0x8>
800008f8:	40a686b3          	sub	a3,a3,a0
800008fc:	00a787b3          	add	a5,a5,a0
80000900:	0086a503          	lw	a0,8(a3)
80000904:	0b150663          	beq	a0,a7,800009b0 <_free_r+0x17c>
80000908:	00c6a883          	lw	a7,12(a3)
8000090c:	01152623          	sw	a7,12(a0)
80000910:	00a8a423          	sw	a0,8(a7)
80000914:	00e58533          	add	a0,a1,a4
80000918:	00452503          	lw	a0,4(a0)
8000091c:	00157513          	andi	a0,a0,1
80000920:	02051863          	bnez	a0,80000950 <_free_r+0x11c>
80000924:	00e787b3          	add	a5,a5,a4
80000928:	0085a703          	lw	a4,8(a1)
8000092c:	08081663          	bnez	a6,800009b8 <_free_r+0x184>
80000930:	00020537          	lui	a0,0x20
80000934:	43050513          	addi	a0,a0,1072 # 20430 <__malloc_av_+0x8>
80000938:	08a71063          	bne	a4,a0,800009b8 <_free_r+0x184>
8000093c:	00d62a23          	sw	a3,20(a2)
80000940:	00d62823          	sw	a3,16(a2)
80000944:	00e6a623          	sw	a4,12(a3)
80000948:	00e6a423          	sw	a4,8(a3)
8000094c:	00100813          	li	a6,1
80000950:	0017e713          	ori	a4,a5,1
80000954:	00e6a223          	sw	a4,4(a3)
80000958:	00f68733          	add	a4,a3,a5
8000095c:	00f72023          	sw	a5,0(a4)
80000960:	f60814e3          	bnez	a6,800008c8 <_free_r+0x94>
80000964:	1ff00713          	li	a4,511
80000968:	06f76063          	bltu	a4,a5,800009c8 <_free_r+0x194>
8000096c:	0037d793          	srli	a5,a5,0x3
80000970:	4027d593          	srai	a1,a5,0x2
80000974:	00100713          	li	a4,1
80000978:	00b71733          	sll	a4,a4,a1
8000097c:	00462583          	lw	a1,4(a2)
80000980:	00178793          	addi	a5,a5,1
80000984:	00379793          	slli	a5,a5,0x3
80000988:	00f607b3          	add	a5,a2,a5
8000098c:	00b76733          	or	a4,a4,a1
80000990:	00e62223          	sw	a4,4(a2)
80000994:	0007a703          	lw	a4,0(a5)
80000998:	ff878613          	addi	a2,a5,-8
8000099c:	00c6a623          	sw	a2,12(a3)
800009a0:	00e6a423          	sw	a4,8(a3)
800009a4:	00d7a023          	sw	a3,0(a5)
800009a8:	00d72623          	sw	a3,12(a4)
800009ac:	f1dff06f          	j	800008c8 <_free_r+0x94>
800009b0:	00100813          	li	a6,1
800009b4:	f61ff06f          	j	80000914 <_free_r+0xe0>
800009b8:	00c5a583          	lw	a1,12(a1)
800009bc:	00b72623          	sw	a1,12(a4)
800009c0:	00e5a423          	sw	a4,8(a1)
800009c4:	f8dff06f          	j	80000950 <_free_r+0x11c>
800009c8:	0097d593          	srli	a1,a5,0x9
800009cc:	00400713          	li	a4,4
800009d0:	04b76863          	bltu	a4,a1,80000a20 <_free_r+0x1ec>
800009d4:	0067d713          	srli	a4,a5,0x6
800009d8:	03870713          	addi	a4,a4,56
800009dc:	00170593          	addi	a1,a4,1
800009e0:	00359593          	slli	a1,a1,0x3
800009e4:	00b605b3          	add	a1,a2,a1
800009e8:	ff858513          	addi	a0,a1,-8
800009ec:	0005a583          	lw	a1,0(a1)
800009f0:	08b51463          	bne	a0,a1,80000a78 <_free_r+0x244>
800009f4:	00100793          	li	a5,1
800009f8:	40275713          	srai	a4,a4,0x2
800009fc:	00e79733          	sll	a4,a5,a4
80000a00:	00462783          	lw	a5,4(a2)
80000a04:	00f76733          	or	a4,a4,a5
80000a08:	00e62223          	sw	a4,4(a2)
80000a0c:	00a6a623          	sw	a0,12(a3)
80000a10:	00b6a423          	sw	a1,8(a3)
80000a14:	00d52423          	sw	a3,8(a0)
80000a18:	00d5a623          	sw	a3,12(a1)
80000a1c:	eadff06f          	j	800008c8 <_free_r+0x94>
80000a20:	01400713          	li	a4,20
80000a24:	00b76663          	bltu	a4,a1,80000a30 <_free_r+0x1fc>
80000a28:	05b58713          	addi	a4,a1,91
80000a2c:	fb1ff06f          	j	800009dc <_free_r+0x1a8>
80000a30:	05400713          	li	a4,84
80000a34:	00b76863          	bltu	a4,a1,80000a44 <_free_r+0x210>
80000a38:	00c7d713          	srli	a4,a5,0xc
80000a3c:	06e70713          	addi	a4,a4,110
80000a40:	f9dff06f          	j	800009dc <_free_r+0x1a8>
80000a44:	15400713          	li	a4,340
80000a48:	00b76863          	bltu	a4,a1,80000a58 <_free_r+0x224>
80000a4c:	00f7d713          	srli	a4,a5,0xf
80000a50:	07770713          	addi	a4,a4,119
80000a54:	f89ff06f          	j	800009dc <_free_r+0x1a8>
80000a58:	55400513          	li	a0,1364
80000a5c:	07e00713          	li	a4,126
80000a60:	f6b56ee3          	bltu	a0,a1,800009dc <_free_r+0x1a8>
80000a64:	0127d713          	srli	a4,a5,0x12
80000a68:	07c70713          	addi	a4,a4,124
80000a6c:	f71ff06f          	j	800009dc <_free_r+0x1a8>
80000a70:	0085a583          	lw	a1,8(a1)
80000a74:	00b50863          	beq	a0,a1,80000a84 <_free_r+0x250>
80000a78:	0045a703          	lw	a4,4(a1)
80000a7c:	ffc77713          	andi	a4,a4,-4
80000a80:	fee7e8e3          	bltu	a5,a4,80000a70 <_free_r+0x23c>
80000a84:	00c5a503          	lw	a0,12(a1)
80000a88:	f85ff06f          	j	80000a0c <_free_r+0x1d8>
80000a8c:	00008067          	ret

80000a90 <_malloc_r>:
80000a90:	fd010113          	addi	sp,sp,-48
80000a94:	02112623          	sw	ra,44(sp)
80000a98:	02812423          	sw	s0,40(sp)
80000a9c:	02912223          	sw	s1,36(sp)
80000aa0:	03212023          	sw	s2,32(sp)
80000aa4:	01312e23          	sw	s3,28(sp)
80000aa8:	01412c23          	sw	s4,24(sp)
80000aac:	01512a23          	sw	s5,20(sp)
80000ab0:	01612823          	sw	s6,16(sp)
80000ab4:	01712623          	sw	s7,12(sp)
80000ab8:	01812423          	sw	s8,8(sp)
80000abc:	00b58793          	addi	a5,a1,11
80000ac0:	01600713          	li	a4,22
80000ac4:	04f77463          	bleu	a5,a4,80000b0c <_malloc_r+0x7c>
80000ac8:	ff87f493          	andi	s1,a5,-8
80000acc:	0404d263          	bgez	s1,80000b10 <_malloc_r+0x80>
80000ad0:	00c00793          	li	a5,12
80000ad4:	00f52023          	sw	a5,0(a0)
80000ad8:	00000513          	li	a0,0
80000adc:	02c12083          	lw	ra,44(sp)
80000ae0:	02812403          	lw	s0,40(sp)
80000ae4:	02412483          	lw	s1,36(sp)
80000ae8:	02012903          	lw	s2,32(sp)
80000aec:	01c12983          	lw	s3,28(sp)
80000af0:	01812a03          	lw	s4,24(sp)
80000af4:	01412a83          	lw	s5,20(sp)
80000af8:	01012b03          	lw	s6,16(sp)
80000afc:	00c12b83          	lw	s7,12(sp)
80000b00:	00812c03          	lw	s8,8(sp)
80000b04:	03010113          	addi	sp,sp,48
80000b08:	00008067          	ret
80000b0c:	01000493          	li	s1,16
80000b10:	fcb4e0e3          	bltu	s1,a1,80000ad0 <_malloc_r+0x40>
80000b14:	00050993          	mv	s3,a0
80000b18:	5bc000ef          	jal	ra,800010d4 <__malloc_lock>
80000b1c:	00020937          	lui	s2,0x20
80000b20:	1f700793          	li	a5,503
80000b24:	42890913          	addi	s2,s2,1064 # 20428 <__malloc_av_>
80000b28:	0497ea63          	bltu	a5,s1,80000b7c <_malloc_r+0xec>
80000b2c:	00848713          	addi	a4,s1,8
80000b30:	00e90733          	add	a4,s2,a4
80000b34:	00472403          	lw	s0,4(a4)
80000b38:	ff870693          	addi	a3,a4,-8
80000b3c:	0034d793          	srli	a5,s1,0x3
80000b40:	00d41863          	bne	s0,a3,80000b50 <_malloc_r+0xc0>
80000b44:	00c72403          	lw	s0,12(a4)
80000b48:	00278793          	addi	a5,a5,2
80000b4c:	08870063          	beq	a4,s0,80000bcc <_malloc_r+0x13c>
80000b50:	00442783          	lw	a5,4(s0)
80000b54:	00c42703          	lw	a4,12(s0)
80000b58:	00842683          	lw	a3,8(s0)
80000b5c:	ffc7f793          	andi	a5,a5,-4
80000b60:	00f407b3          	add	a5,s0,a5
80000b64:	00e6a623          	sw	a4,12(a3)
80000b68:	00d72423          	sw	a3,8(a4)
80000b6c:	0047a703          	lw	a4,4(a5)
80000b70:	00176713          	ori	a4,a4,1
80000b74:	00e7a223          	sw	a4,4(a5)
80000b78:	0a80006f          	j	80000c20 <_malloc_r+0x190>
80000b7c:	0094d713          	srli	a4,s1,0x9
80000b80:	03f00793          	li	a5,63
80000b84:	00070a63          	beqz	a4,80000b98 <_malloc_r+0x108>
80000b88:	00400793          	li	a5,4
80000b8c:	0ae7e263          	bltu	a5,a4,80000c30 <_malloc_r+0x1a0>
80000b90:	0064d793          	srli	a5,s1,0x6
80000b94:	03878793          	addi	a5,a5,56
80000b98:	00178713          	addi	a4,a5,1
80000b9c:	00371713          	slli	a4,a4,0x3
80000ba0:	00e90733          	add	a4,s2,a4
80000ba4:	00472403          	lw	s0,4(a4)
80000ba8:	ff870593          	addi	a1,a4,-8
80000bac:	00f00513          	li	a0,15
80000bb0:	00b40c63          	beq	s0,a1,80000bc8 <_malloc_r+0x138>
80000bb4:	00442703          	lw	a4,4(s0)
80000bb8:	ffc77713          	andi	a4,a4,-4
80000bbc:	40970633          	sub	a2,a4,s1
80000bc0:	0cc55063          	ble	a2,a0,80000c80 <_malloc_r+0x1f0>
80000bc4:	fff78793          	addi	a5,a5,-1
80000bc8:	00178793          	addi	a5,a5,1
80000bcc:	01092403          	lw	s0,16(s2)
80000bd0:	000205b7          	lui	a1,0x20
80000bd4:	00890693          	addi	a3,s2,8
80000bd8:	43058593          	addi	a1,a1,1072 # 20430 <__malloc_av_+0x8>
80000bdc:	12d40863          	beq	s0,a3,80000d0c <_malloc_r+0x27c>
80000be0:	00442703          	lw	a4,4(s0)
80000be4:	00f00613          	li	a2,15
80000be8:	ffc77713          	andi	a4,a4,-4
80000bec:	40970533          	sub	a0,a4,s1
80000bf0:	0aa65a63          	ble	a0,a2,80000ca4 <_malloc_r+0x214>
80000bf4:	0014e793          	ori	a5,s1,1
80000bf8:	00f42223          	sw	a5,4(s0)
80000bfc:	00940633          	add	a2,s0,s1
80000c00:	00c92a23          	sw	a2,20(s2)
80000c04:	00c92823          	sw	a2,16(s2)
80000c08:	00156793          	ori	a5,a0,1
80000c0c:	00d62623          	sw	a3,12(a2)
80000c10:	00d62423          	sw	a3,8(a2)
80000c14:	00f62223          	sw	a5,4(a2)
80000c18:	00e40733          	add	a4,s0,a4
80000c1c:	00a72023          	sw	a0,0(a4)
80000c20:	00098513          	mv	a0,s3
80000c24:	4b4000ef          	jal	ra,800010d8 <__malloc_unlock>
80000c28:	00840513          	addi	a0,s0,8
80000c2c:	eb1ff06f          	j	80000adc <_malloc_r+0x4c>
80000c30:	01400793          	li	a5,20
80000c34:	00e7e663          	bltu	a5,a4,80000c40 <_malloc_r+0x1b0>
80000c38:	05b70793          	addi	a5,a4,91
80000c3c:	f5dff06f          	j	80000b98 <_malloc_r+0x108>
80000c40:	05400793          	li	a5,84
80000c44:	00e7e863          	bltu	a5,a4,80000c54 <_malloc_r+0x1c4>
80000c48:	00c4d793          	srli	a5,s1,0xc
80000c4c:	06e78793          	addi	a5,a5,110
80000c50:	f49ff06f          	j	80000b98 <_malloc_r+0x108>
80000c54:	15400793          	li	a5,340
80000c58:	00e7e863          	bltu	a5,a4,80000c68 <_malloc_r+0x1d8>
80000c5c:	00f4d793          	srli	a5,s1,0xf
80000c60:	07778793          	addi	a5,a5,119
80000c64:	f35ff06f          	j	80000b98 <_malloc_r+0x108>
80000c68:	55400693          	li	a3,1364
80000c6c:	07e00793          	li	a5,126
80000c70:	f2e6e4e3          	bltu	a3,a4,80000b98 <_malloc_r+0x108>
80000c74:	0124d793          	srli	a5,s1,0x12
80000c78:	07c78793          	addi	a5,a5,124
80000c7c:	f1dff06f          	j	80000b98 <_malloc_r+0x108>
80000c80:	00c42683          	lw	a3,12(s0)
80000c84:	00064c63          	bltz	a2,80000c9c <_malloc_r+0x20c>
80000c88:	00842783          	lw	a5,8(s0)
80000c8c:	00d7a623          	sw	a3,12(a5)
80000c90:	00f6a423          	sw	a5,8(a3)
80000c94:	00e407b3          	add	a5,s0,a4
80000c98:	ed5ff06f          	j	80000b6c <_malloc_r+0xdc>
80000c9c:	00068413          	mv	s0,a3
80000ca0:	f11ff06f          	j	80000bb0 <_malloc_r+0x120>
80000ca4:	00d92a23          	sw	a3,20(s2)
80000ca8:	00d92823          	sw	a3,16(s2)
80000cac:	00054c63          	bltz	a0,80000cc4 <_malloc_r+0x234>
80000cb0:	00e40733          	add	a4,s0,a4
80000cb4:	00472783          	lw	a5,4(a4)
80000cb8:	0017e793          	ori	a5,a5,1
80000cbc:	00f72223          	sw	a5,4(a4)
80000cc0:	f61ff06f          	j	80000c20 <_malloc_r+0x190>
80000cc4:	1ff00693          	li	a3,511
80000cc8:	00492803          	lw	a6,4(s2)
80000ccc:	16e6e663          	bltu	a3,a4,80000e38 <_malloc_r+0x3a8>
80000cd0:	00375713          	srli	a4,a4,0x3
80000cd4:	40275613          	srai	a2,a4,0x2
80000cd8:	00100693          	li	a3,1
80000cdc:	00170713          	addi	a4,a4,1
80000ce0:	00c696b3          	sll	a3,a3,a2
80000ce4:	00371713          	slli	a4,a4,0x3
80000ce8:	00e90733          	add	a4,s2,a4
80000cec:	0106e6b3          	or	a3,a3,a6
80000cf0:	00d92223          	sw	a3,4(s2)
80000cf4:	00072683          	lw	a3,0(a4)
80000cf8:	ff870613          	addi	a2,a4,-8
80000cfc:	00c42623          	sw	a2,12(s0)
80000d00:	00d42423          	sw	a3,8(s0)
80000d04:	00872023          	sw	s0,0(a4)
80000d08:	0086a623          	sw	s0,12(a3)
80000d0c:	4027d713          	srai	a4,a5,0x2
80000d10:	00100313          	li	t1,1
80000d14:	00e31333          	sll	t1,t1,a4
80000d18:	00492703          	lw	a4,4(s2)
80000d1c:	06676a63          	bltu	a4,t1,80000d90 <_malloc_r+0x300>
80000d20:	006776b3          	and	a3,a4,t1
80000d24:	00069c63          	bnez	a3,80000d3c <_malloc_r+0x2ac>
80000d28:	ffc7f793          	andi	a5,a5,-4
80000d2c:	00131313          	slli	t1,t1,0x1
80000d30:	006776b3          	and	a3,a4,t1
80000d34:	00478793          	addi	a5,a5,4
80000d38:	fe068ae3          	beqz	a3,80000d2c <_malloc_r+0x29c>
80000d3c:	00f00e13          	li	t3,15
80000d40:	00379693          	slli	a3,a5,0x3
80000d44:	00d906b3          	add	a3,s2,a3
80000d48:	00068813          	mv	a6,a3
80000d4c:	00078513          	mv	a0,a5
80000d50:	00c82403          	lw	s0,12(a6)
80000d54:	1b041263          	bne	s0,a6,80000ef8 <_malloc_r+0x468>
80000d58:	00150513          	addi	a0,a0,1
80000d5c:	00357713          	andi	a4,a0,3
80000d60:	00880813          	addi	a6,a6,8
80000d64:	fe0716e3          	bnez	a4,80000d50 <_malloc_r+0x2c0>
80000d68:	0037f713          	andi	a4,a5,3
80000d6c:	20071463          	bnez	a4,80000f74 <_malloc_r+0x4e4>
80000d70:	00492703          	lw	a4,4(s2)
80000d74:	fff34793          	not	a5,t1
80000d78:	00f777b3          	and	a5,a4,a5
80000d7c:	00f92223          	sw	a5,4(s2)
80000d80:	00492703          	lw	a4,4(s2)
80000d84:	00131313          	slli	t1,t1,0x1
80000d88:	00676463          	bltu	a4,t1,80000d90 <_malloc_r+0x300>
80000d8c:	20031863          	bnez	t1,80000f9c <_malloc_r+0x50c>
80000d90:	00892b83          	lw	s7,8(s2)
80000d94:	004ba403          	lw	s0,4(s7)
80000d98:	ffc47a93          	andi	s5,s0,-4
80000d9c:	009ae863          	bltu	s5,s1,80000dac <_malloc_r+0x31c>
80000da0:	409a8733          	sub	a4,s5,s1
80000da4:	00f00793          	li	a5,15
80000da8:	30e7ca63          	blt	a5,a4,800010bc <_malloc_r+0x62c>
80000dac:	8241a403          	lw	s0,-2012(gp) # 20854 <__malloc_top_pad>
80000db0:	80c1a703          	lw	a4,-2036(gp) # 2083c <__malloc_sbrk_base>
80000db4:	fff00793          	li	a5,-1
80000db8:	00848433          	add	s0,s1,s0
80000dbc:	1ef71463          	bne	a4,a5,80000fa4 <_malloc_r+0x514>
80000dc0:	01040413          	addi	s0,s0,16
80000dc4:	00040593          	mv	a1,s0
80000dc8:	00098513          	mv	a0,s3
80000dcc:	310000ef          	jal	ra,800010dc <_sbrk_r>
80000dd0:	fff00793          	li	a5,-1
80000dd4:	00050b13          	mv	s6,a0
80000dd8:	26f50863          	beq	a0,a5,80001048 <_malloc_r+0x5b8>
80000ddc:	015b87b3          	add	a5,s7,s5
80000de0:	00f57463          	bleu	a5,a0,80000de8 <_malloc_r+0x358>
80000de4:	272b9263          	bne	s7,s2,80001048 <_malloc_r+0x5b8>
80000de8:	84818693          	addi	a3,gp,-1976 # 20878 <__malloc_current_mallinfo>
80000dec:	0006a703          	lw	a4,0(a3)
80000df0:	84818c13          	addi	s8,gp,-1976 # 20878 <__malloc_current_mallinfo>
80000df4:	00e40733          	add	a4,s0,a4
80000df8:	00e6a023          	sw	a4,0(a3)
80000dfc:	1d679063          	bne	a5,s6,80000fbc <_malloc_r+0x52c>
80000e00:	01479693          	slli	a3,a5,0x14
80000e04:	1a069c63          	bnez	a3,80000fbc <_malloc_r+0x52c>
80000e08:	00892783          	lw	a5,8(s2)
80000e0c:	008a8433          	add	s0,s5,s0
80000e10:	00146413          	ori	s0,s0,1
80000e14:	0087a223          	sw	s0,4(a5)
80000e18:	000c2783          	lw	a5,0(s8)
80000e1c:	8201a683          	lw	a3,-2016(gp) # 20850 <__malloc_max_sbrked_mem>
80000e20:	00f6f463          	bleu	a5,a3,80000e28 <_malloc_r+0x398>
80000e24:	82f1a023          	sw	a5,-2016(gp) # 20850 <__malloc_max_sbrked_mem>
80000e28:	81c1a683          	lw	a3,-2020(gp) # 2084c <__malloc_max_total_mem>
80000e2c:	20f6fe63          	bleu	a5,a3,80001048 <_malloc_r+0x5b8>
80000e30:	80f1ae23          	sw	a5,-2020(gp) # 2084c <__malloc_max_total_mem>
80000e34:	2140006f          	j	80001048 <_malloc_r+0x5b8>
80000e38:	00975613          	srli	a2,a4,0x9
80000e3c:	00400693          	li	a3,4
80000e40:	04c6e663          	bltu	a3,a2,80000e8c <_malloc_r+0x3fc>
80000e44:	00675693          	srli	a3,a4,0x6
80000e48:	03868693          	addi	a3,a3,56
80000e4c:	00168613          	addi	a2,a3,1
80000e50:	00361613          	slli	a2,a2,0x3
80000e54:	00c90633          	add	a2,s2,a2
80000e58:	ff860513          	addi	a0,a2,-8
80000e5c:	00062603          	lw	a2,0(a2)
80000e60:	08c51263          	bne	a0,a2,80000ee4 <_malloc_r+0x454>
80000e64:	4026d693          	srai	a3,a3,0x2
80000e68:	00100713          	li	a4,1
80000e6c:	00d716b3          	sll	a3,a4,a3
80000e70:	0106e6b3          	or	a3,a3,a6
80000e74:	00d92223          	sw	a3,4(s2)
80000e78:	00a42623          	sw	a0,12(s0)
80000e7c:	00c42423          	sw	a2,8(s0)
80000e80:	00852423          	sw	s0,8(a0)
80000e84:	00862623          	sw	s0,12(a2)
80000e88:	e85ff06f          	j	80000d0c <_malloc_r+0x27c>
80000e8c:	01400693          	li	a3,20
80000e90:	00c6e663          	bltu	a3,a2,80000e9c <_malloc_r+0x40c>
80000e94:	05b60693          	addi	a3,a2,91
80000e98:	fb5ff06f          	j	80000e4c <_malloc_r+0x3bc>
80000e9c:	05400693          	li	a3,84
80000ea0:	00c6e863          	bltu	a3,a2,80000eb0 <_malloc_r+0x420>
80000ea4:	00c75693          	srli	a3,a4,0xc
80000ea8:	06e68693          	addi	a3,a3,110
80000eac:	fa1ff06f          	j	80000e4c <_malloc_r+0x3bc>
80000eb0:	15400693          	li	a3,340
80000eb4:	00c6e863          	bltu	a3,a2,80000ec4 <_malloc_r+0x434>
80000eb8:	00f75693          	srli	a3,a4,0xf
80000ebc:	07768693          	addi	a3,a3,119
80000ec0:	f8dff06f          	j	80000e4c <_malloc_r+0x3bc>
80000ec4:	55400513          	li	a0,1364
80000ec8:	07e00693          	li	a3,126
80000ecc:	f8c560e3          	bltu	a0,a2,80000e4c <_malloc_r+0x3bc>
80000ed0:	01275693          	srli	a3,a4,0x12
80000ed4:	07c68693          	addi	a3,a3,124
80000ed8:	f75ff06f          	j	80000e4c <_malloc_r+0x3bc>
80000edc:	00862603          	lw	a2,8(a2)
80000ee0:	00c50863          	beq	a0,a2,80000ef0 <_malloc_r+0x460>
80000ee4:	00462683          	lw	a3,4(a2)
80000ee8:	ffc6f693          	andi	a3,a3,-4
80000eec:	fed768e3          	bltu	a4,a3,80000edc <_malloc_r+0x44c>
80000ef0:	00c62503          	lw	a0,12(a2)
80000ef4:	f85ff06f          	j	80000e78 <_malloc_r+0x3e8>
80000ef8:	00442703          	lw	a4,4(s0)
80000efc:	00c42603          	lw	a2,12(s0)
80000f00:	ffc77713          	andi	a4,a4,-4
80000f04:	409708b3          	sub	a7,a4,s1
80000f08:	051e5063          	ble	a7,t3,80000f48 <_malloc_r+0x4b8>
80000f0c:	0014e793          	ori	a5,s1,1
80000f10:	00f42223          	sw	a5,4(s0)
80000f14:	00842783          	lw	a5,8(s0)
80000f18:	009406b3          	add	a3,s0,s1
80000f1c:	00e40733          	add	a4,s0,a4
80000f20:	00c7a623          	sw	a2,12(a5)
80000f24:	00f62423          	sw	a5,8(a2)
80000f28:	00d92a23          	sw	a3,20(s2)
80000f2c:	00d92823          	sw	a3,16(s2)
80000f30:	0018e793          	ori	a5,a7,1
80000f34:	00b6a623          	sw	a1,12(a3)
80000f38:	00b6a423          	sw	a1,8(a3)
80000f3c:	00f6a223          	sw	a5,4(a3)
80000f40:	01172023          	sw	a7,0(a4)
80000f44:	cddff06f          	j	80000c20 <_malloc_r+0x190>
80000f48:	0208c263          	bltz	a7,80000f6c <_malloc_r+0x4dc>
80000f4c:	00e40733          	add	a4,s0,a4
80000f50:	00472783          	lw	a5,4(a4)
80000f54:	0017e793          	ori	a5,a5,1
80000f58:	00f72223          	sw	a5,4(a4)
80000f5c:	00842783          	lw	a5,8(s0)
80000f60:	00c7a623          	sw	a2,12(a5)
80000f64:	00f62423          	sw	a5,8(a2)
80000f68:	cb9ff06f          	j	80000c20 <_malloc_r+0x190>
80000f6c:	00060413          	mv	s0,a2
80000f70:	de5ff06f          	j	80000d54 <_malloc_r+0x2c4>
80000f74:	ff868713          	addi	a4,a3,-8
80000f78:	0006a683          	lw	a3,0(a3)
80000f7c:	fff78793          	addi	a5,a5,-1
80000f80:	dee684e3          	beq	a3,a4,80000d68 <_malloc_r+0x2d8>
80000f84:	dfdff06f          	j	80000d80 <_malloc_r+0x2f0>
80000f88:	00478793          	addi	a5,a5,4
80000f8c:	00131313          	slli	t1,t1,0x1
80000f90:	006776b3          	and	a3,a4,t1
80000f94:	fe068ae3          	beqz	a3,80000f88 <_malloc_r+0x4f8>
80000f98:	da9ff06f          	j	80000d40 <_malloc_r+0x2b0>
80000f9c:	00050793          	mv	a5,a0
80000fa0:	ff1ff06f          	j	80000f90 <_malloc_r+0x500>
80000fa4:	000017b7          	lui	a5,0x1
80000fa8:	00f78793          	addi	a5,a5,15 # 100f <_data-0x1eff1>
80000fac:	00f40433          	add	s0,s0,a5
80000fb0:	fffff7b7          	lui	a5,0xfffff
80000fb4:	00f47433          	and	s0,s0,a5
80000fb8:	e0dff06f          	j	80000dc4 <_malloc_r+0x334>
80000fbc:	80c1a603          	lw	a2,-2036(gp) # 2083c <__malloc_sbrk_base>
80000fc0:	fff00693          	li	a3,-1
80000fc4:	0ad61663          	bne	a2,a3,80001070 <_malloc_r+0x5e0>
80000fc8:	8161a623          	sw	s6,-2036(gp) # 2083c <__malloc_sbrk_base>
80000fcc:	007b7593          	andi	a1,s6,7
80000fd0:	00058863          	beqz	a1,80000fe0 <_malloc_r+0x550>
80000fd4:	00800793          	li	a5,8
80000fd8:	40b785b3          	sub	a1,a5,a1
80000fdc:	00bb0b33          	add	s6,s6,a1
80000fe0:	000017b7          	lui	a5,0x1
80000fe4:	00f585b3          	add	a1,a1,a5
80000fe8:	008b0433          	add	s0,s6,s0
80000fec:	fff78793          	addi	a5,a5,-1 # fff <_data-0x1f001>
80000ff0:	00f47433          	and	s0,s0,a5
80000ff4:	40858a33          	sub	s4,a1,s0
80000ff8:	000a0593          	mv	a1,s4
80000ffc:	00098513          	mv	a0,s3
80001000:	0dc000ef          	jal	ra,800010dc <_sbrk_r>
80001004:	fff00793          	li	a5,-1
80001008:	00f51663          	bne	a0,a5,80001014 <_malloc_r+0x584>
8000100c:	000b0513          	mv	a0,s6
80001010:	00000a13          	li	s4,0
80001014:	000c2783          	lw	a5,0(s8)
80001018:	41650533          	sub	a0,a0,s6
8000101c:	01692423          	sw	s6,8(s2)
80001020:	014787b3          	add	a5,a5,s4
80001024:	01450a33          	add	s4,a0,s4
80001028:	001a6a13          	ori	s4,s4,1
8000102c:	00fc2023          	sw	a5,0(s8)
80001030:	014b2223          	sw	s4,4(s6)
80001034:	df2b82e3          	beq	s7,s2,80000e18 <_malloc_r+0x388>
80001038:	00f00713          	li	a4,15
8000103c:	05576263          	bltu	a4,s5,80001080 <_malloc_r+0x5f0>
80001040:	00100793          	li	a5,1
80001044:	00fb2223          	sw	a5,4(s6)
80001048:	00892783          	lw	a5,8(s2)
8000104c:	0047a783          	lw	a5,4(a5)
80001050:	ffc7f793          	andi	a5,a5,-4
80001054:	40978733          	sub	a4,a5,s1
80001058:	0097e663          	bltu	a5,s1,80001064 <_malloc_r+0x5d4>
8000105c:	00f00793          	li	a5,15
80001060:	04e7ce63          	blt	a5,a4,800010bc <_malloc_r+0x62c>
80001064:	00098513          	mv	a0,s3
80001068:	070000ef          	jal	ra,800010d8 <__malloc_unlock>
8000106c:	a6dff06f          	j	80000ad8 <_malloc_r+0x48>
80001070:	40fb07b3          	sub	a5,s6,a5
80001074:	00e787b3          	add	a5,a5,a4
80001078:	00fc2023          	sw	a5,0(s8)
8000107c:	f51ff06f          	j	80000fcc <_malloc_r+0x53c>
80001080:	004ba783          	lw	a5,4(s7)
80001084:	ff4a8413          	addi	s0,s5,-12
80001088:	ff847413          	andi	s0,s0,-8
8000108c:	0017f793          	andi	a5,a5,1
80001090:	0087e7b3          	or	a5,a5,s0
80001094:	00fba223          	sw	a5,4(s7)
80001098:	00500693          	li	a3,5
8000109c:	008b87b3          	add	a5,s7,s0
800010a0:	00d7a223          	sw	a3,4(a5)
800010a4:	00d7a423          	sw	a3,8(a5)
800010a8:	d68778e3          	bleu	s0,a4,80000e18 <_malloc_r+0x388>
800010ac:	008b8593          	addi	a1,s7,8
800010b0:	00098513          	mv	a0,s3
800010b4:	f80ff0ef          	jal	ra,80000834 <_free_r>
800010b8:	d61ff06f          	j	80000e18 <_malloc_r+0x388>
800010bc:	00892403          	lw	s0,8(s2)
800010c0:	0014e793          	ori	a5,s1,1
800010c4:	00f42223          	sw	a5,4(s0)
800010c8:	009407b3          	add	a5,s0,s1
800010cc:	00f92423          	sw	a5,8(s2)
800010d0:	aa1ff06f          	j	80000b70 <_malloc_r+0xe0>

800010d4 <__malloc_lock>:
800010d4:	00008067          	ret

800010d8 <__malloc_unlock>:
800010d8:	00008067          	ret

800010dc <_sbrk_r>:
800010dc:	ff010113          	addi	sp,sp,-16
800010e0:	00812423          	sw	s0,8(sp)
800010e4:	00912223          	sw	s1,4(sp)
800010e8:	00050493          	mv	s1,a0
800010ec:	00058513          	mv	a0,a1
800010f0:	00112623          	sw	ra,12(sp)
800010f4:	8601a823          	sw	zero,-1936(gp) # 208a0 <errno>
800010f8:	070000ef          	jal	ra,80001168 <_sbrk>
800010fc:	fff00793          	li	a5,-1
80001100:	00f51863          	bne	a0,a5,80001110 <_sbrk_r+0x34>
80001104:	8701a783          	lw	a5,-1936(gp) # 208a0 <errno>
80001108:	00078463          	beqz	a5,80001110 <_sbrk_r+0x34>
8000110c:	00f4a023          	sw	a5,0(s1)
80001110:	00c12083          	lw	ra,12(sp)
80001114:	00812403          	lw	s0,8(sp)
80001118:	00412483          	lw	s1,4(sp)
8000111c:	01010113          	addi	sp,sp,16
80001120:	00008067          	ret

80001124 <_exit>:
80001124:	00000593          	li	a1,0
80001128:	00000613          	li	a2,0
8000112c:	00000693          	li	a3,0
80001130:	00000713          	li	a4,0
80001134:	00000793          	li	a5,0
80001138:	05d00893          	li	a7,93
8000113c:	00000073          	ecall
80001140:	02055263          	bgez	a0,80001164 <_exit+0x40>
80001144:	ff010113          	addi	sp,sp,-16
80001148:	00812423          	sw	s0,8(sp)
8000114c:	00050413          	mv	s0,a0
80001150:	00112623          	sw	ra,12(sp)
80001154:	40800433          	neg	s0,s0
80001158:	124000ef          	jal	ra,8000127c <__errno>
8000115c:	00852023          	sw	s0,0(a0)
80001160:	0000006f          	j	80001160 <_exit+0x3c>
80001164:	0000006f          	j	80001164 <_exit+0x40>

80001168 <_sbrk>:
80001168:	ff010113          	addi	sp,sp,-16
8000116c:	00812423          	sw	s0,8(sp)
80001170:	8281a783          	lw	a5,-2008(gp) # 20858 <heap_end.2476>
80001174:	01212023          	sw	s2,0(sp)
80001178:	00112623          	sw	ra,12(sp)
8000117c:	00912223          	sw	s1,4(sp)
80001180:	00050913          	mv	s2,a0
80001184:	04079a63          	bnez	a5,800011d8 <_sbrk+0x70>
80001188:	00000513          	li	a0,0
8000118c:	00000593          	li	a1,0
80001190:	00000613          	li	a2,0
80001194:	00000693          	li	a3,0
80001198:	00000713          	li	a4,0
8000119c:	0d600893          	li	a7,214
800011a0:	00000073          	ecall
800011a4:	00050493          	mv	s1,a0
800011a8:	02055663          	bgez	a0,800011d4 <_sbrk+0x6c>
800011ac:	0d0000ef          	jal	ra,8000127c <__errno>
800011b0:	409004b3          	neg	s1,s1
800011b4:	00952023          	sw	s1,0(a0)
800011b8:	fff00513          	li	a0,-1
800011bc:	00c12083          	lw	ra,12(sp)
800011c0:	00812403          	lw	s0,8(sp)
800011c4:	00412483          	lw	s1,4(sp)
800011c8:	00012903          	lw	s2,0(sp)
800011cc:	01010113          	addi	sp,sp,16
800011d0:	00008067          	ret
800011d4:	82a1a423          	sw	a0,-2008(gp) # 20858 <heap_end.2476>
800011d8:	8281a503          	lw	a0,-2008(gp) # 20858 <heap_end.2476>
800011dc:	00000593          	li	a1,0
800011e0:	00000613          	li	a2,0
800011e4:	00a90533          	add	a0,s2,a0
800011e8:	00000693          	li	a3,0
800011ec:	00000713          	li	a4,0
800011f0:	00000793          	li	a5,0
800011f4:	0d600893          	li	a7,214
800011f8:	00000073          	ecall
800011fc:	00050493          	mv	s1,a0
80001200:	00055a63          	bgez	a0,80001214 <_sbrk+0xac>
80001204:	409004b3          	neg	s1,s1
80001208:	074000ef          	jal	ra,8000127c <__errno>
8000120c:	00952023          	sw	s1,0(a0)
80001210:	fff00493          	li	s1,-1
80001214:	8281a783          	lw	a5,-2008(gp) # 20858 <heap_end.2476>
80001218:	fff00513          	li	a0,-1
8000121c:	00f90933          	add	s2,s2,a5
80001220:	f9249ee3          	bne	s1,s2,800011bc <_sbrk+0x54>
80001224:	8291a423          	sw	s1,-2008(gp) # 20858 <heap_end.2476>
80001228:	00078513          	mv	a0,a5
8000122c:	f91ff06f          	j	800011bc <_sbrk+0x54>

80001230 <_write>:
80001230:	ff010113          	addi	sp,sp,-16
80001234:	00112623          	sw	ra,12(sp)
80001238:	00812423          	sw	s0,8(sp)
8000123c:	00000693          	li	a3,0
80001240:	00000713          	li	a4,0
80001244:	00000793          	li	a5,0
80001248:	04000893          	li	a7,64
8000124c:	00000073          	ecall
80001250:	00050413          	mv	s0,a0
80001254:	00055a63          	bgez	a0,80001268 <_write+0x38>
80001258:	40800433          	neg	s0,s0
8000125c:	020000ef          	jal	ra,8000127c <__errno>
80001260:	00852023          	sw	s0,0(a0)
80001264:	fff00413          	li	s0,-1
80001268:	00040513          	mv	a0,s0
8000126c:	00c12083          	lw	ra,12(sp)
80001270:	00812403          	lw	s0,8(sp)
80001274:	01010113          	addi	sp,sp,16
80001278:	00008067          	ret

8000127c <__errno>:
8000127c:	8081a503          	lw	a0,-2040(gp) # 20838 <_impure_ptr>
80001280:	00008067          	ret

Disassembly of section .text.startup:

80001284 <main>:
80001284:	80001537          	lui	a0,0x80001
80001288:	ff010113          	addi	sp,sp,-16
8000128c:	2b050513          	addi	a0,a0,688 # 800012b0 <__EH_FRAME_BEGIN__+0x8>
80001290:	00112623          	sw	ra,12(sp)
80001294:	eddfe0ef          	jal	ra,80000170 <debug_println>
80001298:	00c12083          	lw	ra,12(sp)
8000129c:	00000513          	li	a0,0
800012a0:	01010113          	addi	sp,sp,16
800012a4:	00008067          	ret

Disassembly of section .eh_frame:

800012a8 <__EH_FRAME_BEGIN__>:
800012a8:	0000                	unimp
	...

Disassembly of section .rodata.str1.4:

800012ac <.rodata.str1.4>:
800012ac:	000a                	0xa
800012ae:	0000                	unimp
800012b0:	6548                	flw	fa0,12(a0)
800012b2:	6c6c                	flw	fa1,92(s0)
800012b4:	77202c6f          	jal	s8,80003a26 <__EH_FRAME_BEGIN__+0x277e>
800012b8:	646c726f          	jal	tp,800c88fe <__EH_FRAME_BEGIN__+0xc7656>
800012bc:	0021                	c.addi	zero,8
	...

Disassembly of section .mdata:

00020000 <_data>:
   20000:	0000                	unimp
   20002:	0000                	unimp
   20004:	02ec                	addi	a1,sp,332
   20006:	0002                	0x2
   20008:	0354                	addi	a3,sp,388
   2000a:	0002                	0x2
   2000c:	03bc                	addi	a5,sp,456
   2000e:	0002                	0x2
	...
   200a8:	0001                	nop
   200aa:	0000                	unimp
   200ac:	0000                	unimp
   200ae:	0000                	unimp
   200b0:	330e                	fld	ft6,224(sp)
   200b2:	abcd                	j	206a4 <__malloc_av_+0x27c>
   200b4:	1234                	addi	a3,sp,296
   200b6:	e66d                	bnez	a2,201a0 <_data+0x1a0>
   200b8:	deec                	sw	a1,124(a3)
   200ba:	0005                	c.addi	zero,1
   200bc:	0000000b          	0xb
	...

00020428 <__malloc_av_>:
	...
   20430:	0428                	addi	a0,sp,520
   20432:	0002                	0x2
   20434:	0428                	addi	a0,sp,520
   20436:	0002                	0x2
   20438:	0430                	addi	a2,sp,520
   2043a:	0002                	0x2
   2043c:	0430                	addi	a2,sp,520
   2043e:	0002                	0x2
   20440:	0438                	addi	a4,sp,520
   20442:	0002                	0x2
   20444:	0438                	addi	a4,sp,520
   20446:	0002                	0x2
   20448:	0440                	addi	s0,sp,516
   2044a:	0002                	0x2
   2044c:	0440                	addi	s0,sp,516
   2044e:	0002                	0x2
   20450:	0448                	addi	a0,sp,516
   20452:	0002                	0x2
   20454:	0448                	addi	a0,sp,516
   20456:	0002                	0x2
   20458:	0450                	addi	a2,sp,516
   2045a:	0002                	0x2
   2045c:	0450                	addi	a2,sp,516
   2045e:	0002                	0x2
   20460:	0458                	addi	a4,sp,516
   20462:	0002                	0x2
   20464:	0458                	addi	a4,sp,516
   20466:	0002                	0x2
   20468:	0460                	addi	s0,sp,524
   2046a:	0002                	0x2
   2046c:	0460                	addi	s0,sp,524
   2046e:	0002                	0x2
   20470:	0468                	addi	a0,sp,524
   20472:	0002                	0x2
   20474:	0468                	addi	a0,sp,524
   20476:	0002                	0x2
   20478:	0470                	addi	a2,sp,524
   2047a:	0002                	0x2
   2047c:	0470                	addi	a2,sp,524
   2047e:	0002                	0x2
   20480:	0478                	addi	a4,sp,524
   20482:	0002                	0x2
   20484:	0478                	addi	a4,sp,524
   20486:	0002                	0x2
   20488:	0480                	addi	s0,sp,576
   2048a:	0002                	0x2
   2048c:	0480                	addi	s0,sp,576
   2048e:	0002                	0x2
   20490:	0488                	addi	a0,sp,576
   20492:	0002                	0x2
   20494:	0488                	addi	a0,sp,576
   20496:	0002                	0x2
   20498:	0490                	addi	a2,sp,576
   2049a:	0002                	0x2
   2049c:	0490                	addi	a2,sp,576
   2049e:	0002                	0x2
   204a0:	0498                	addi	a4,sp,576
   204a2:	0002                	0x2
   204a4:	0498                	addi	a4,sp,576
   204a6:	0002                	0x2
   204a8:	04a0                	addi	s0,sp,584
   204aa:	0002                	0x2
   204ac:	04a0                	addi	s0,sp,584
   204ae:	0002                	0x2
   204b0:	04a8                	addi	a0,sp,584
   204b2:	0002                	0x2
   204b4:	04a8                	addi	a0,sp,584
   204b6:	0002                	0x2
   204b8:	04b0                	addi	a2,sp,584
   204ba:	0002                	0x2
   204bc:	04b0                	addi	a2,sp,584
   204be:	0002                	0x2
   204c0:	04b8                	addi	a4,sp,584
   204c2:	0002                	0x2
   204c4:	04b8                	addi	a4,sp,584
   204c6:	0002                	0x2
   204c8:	04c0                	addi	s0,sp,580
   204ca:	0002                	0x2
   204cc:	04c0                	addi	s0,sp,580
   204ce:	0002                	0x2
   204d0:	04c8                	addi	a0,sp,580
   204d2:	0002                	0x2
   204d4:	04c8                	addi	a0,sp,580
   204d6:	0002                	0x2
   204d8:	04d0                	addi	a2,sp,580
   204da:	0002                	0x2
   204dc:	04d0                	addi	a2,sp,580
   204de:	0002                	0x2
   204e0:	04d8                	addi	a4,sp,580
   204e2:	0002                	0x2
   204e4:	04d8                	addi	a4,sp,580
   204e6:	0002                	0x2
   204e8:	04e0                	addi	s0,sp,588
   204ea:	0002                	0x2
   204ec:	04e0                	addi	s0,sp,588
   204ee:	0002                	0x2
   204f0:	04e8                	addi	a0,sp,588
   204f2:	0002                	0x2
   204f4:	04e8                	addi	a0,sp,588
   204f6:	0002                	0x2
   204f8:	04f0                	addi	a2,sp,588
   204fa:	0002                	0x2
   204fc:	04f0                	addi	a2,sp,588
   204fe:	0002                	0x2
   20500:	04f8                	addi	a4,sp,588
   20502:	0002                	0x2
   20504:	04f8                	addi	a4,sp,588
   20506:	0002                	0x2
   20508:	0500                	addi	s0,sp,640
   2050a:	0002                	0x2
   2050c:	0500                	addi	s0,sp,640
   2050e:	0002                	0x2
   20510:	0508                	addi	a0,sp,640
   20512:	0002                	0x2
   20514:	0508                	addi	a0,sp,640
   20516:	0002                	0x2
   20518:	0510                	addi	a2,sp,640
   2051a:	0002                	0x2
   2051c:	0510                	addi	a2,sp,640
   2051e:	0002                	0x2
   20520:	0518                	addi	a4,sp,640
   20522:	0002                	0x2
   20524:	0518                	addi	a4,sp,640
   20526:	0002                	0x2
   20528:	0520                	addi	s0,sp,648
   2052a:	0002                	0x2
   2052c:	0520                	addi	s0,sp,648
   2052e:	0002                	0x2
   20530:	0528                	addi	a0,sp,648
   20532:	0002                	0x2
   20534:	0528                	addi	a0,sp,648
   20536:	0002                	0x2
   20538:	0530                	addi	a2,sp,648
   2053a:	0002                	0x2
   2053c:	0530                	addi	a2,sp,648
   2053e:	0002                	0x2
   20540:	0538                	addi	a4,sp,648
   20542:	0002                	0x2
   20544:	0538                	addi	a4,sp,648
   20546:	0002                	0x2
   20548:	0540                	addi	s0,sp,644
   2054a:	0002                	0x2
   2054c:	0540                	addi	s0,sp,644
   2054e:	0002                	0x2
   20550:	0548                	addi	a0,sp,644
   20552:	0002                	0x2
   20554:	0548                	addi	a0,sp,644
   20556:	0002                	0x2
   20558:	0550                	addi	a2,sp,644
   2055a:	0002                	0x2
   2055c:	0550                	addi	a2,sp,644
   2055e:	0002                	0x2
   20560:	0558                	addi	a4,sp,644
   20562:	0002                	0x2
   20564:	0558                	addi	a4,sp,644
   20566:	0002                	0x2
   20568:	0560                	addi	s0,sp,652
   2056a:	0002                	0x2
   2056c:	0560                	addi	s0,sp,652
   2056e:	0002                	0x2
   20570:	0568                	addi	a0,sp,652
   20572:	0002                	0x2
   20574:	0568                	addi	a0,sp,652
   20576:	0002                	0x2
   20578:	0570                	addi	a2,sp,652
   2057a:	0002                	0x2
   2057c:	0570                	addi	a2,sp,652
   2057e:	0002                	0x2
   20580:	0578                	addi	a4,sp,652
   20582:	0002                	0x2
   20584:	0578                	addi	a4,sp,652
   20586:	0002                	0x2
   20588:	0580                	addi	s0,sp,704
   2058a:	0002                	0x2
   2058c:	0580                	addi	s0,sp,704
   2058e:	0002                	0x2
   20590:	0588                	addi	a0,sp,704
   20592:	0002                	0x2
   20594:	0588                	addi	a0,sp,704
   20596:	0002                	0x2
   20598:	0590                	addi	a2,sp,704
   2059a:	0002                	0x2
   2059c:	0590                	addi	a2,sp,704
   2059e:	0002                	0x2
   205a0:	0598                	addi	a4,sp,704
   205a2:	0002                	0x2
   205a4:	0598                	addi	a4,sp,704
   205a6:	0002                	0x2
   205a8:	05a0                	addi	s0,sp,712
   205aa:	0002                	0x2
   205ac:	05a0                	addi	s0,sp,712
   205ae:	0002                	0x2
   205b0:	05a8                	addi	a0,sp,712
   205b2:	0002                	0x2
   205b4:	05a8                	addi	a0,sp,712
   205b6:	0002                	0x2
   205b8:	05b0                	addi	a2,sp,712
   205ba:	0002                	0x2
   205bc:	05b0                	addi	a2,sp,712
   205be:	0002                	0x2
   205c0:	05b8                	addi	a4,sp,712
   205c2:	0002                	0x2
   205c4:	05b8                	addi	a4,sp,712
   205c6:	0002                	0x2
   205c8:	05c0                	addi	s0,sp,708
   205ca:	0002                	0x2
   205cc:	05c0                	addi	s0,sp,708
   205ce:	0002                	0x2
   205d0:	05c8                	addi	a0,sp,708
   205d2:	0002                	0x2
   205d4:	05c8                	addi	a0,sp,708
   205d6:	0002                	0x2
   205d8:	05d0                	addi	a2,sp,708
   205da:	0002                	0x2
   205dc:	05d0                	addi	a2,sp,708
   205de:	0002                	0x2
   205e0:	05d8                	addi	a4,sp,708
   205e2:	0002                	0x2
   205e4:	05d8                	addi	a4,sp,708
   205e6:	0002                	0x2
   205e8:	05e0                	addi	s0,sp,716
   205ea:	0002                	0x2
   205ec:	05e0                	addi	s0,sp,716
   205ee:	0002                	0x2
   205f0:	05e8                	addi	a0,sp,716
   205f2:	0002                	0x2
   205f4:	05e8                	addi	a0,sp,716
   205f6:	0002                	0x2
   205f8:	05f0                	addi	a2,sp,716
   205fa:	0002                	0x2
   205fc:	05f0                	addi	a2,sp,716
   205fe:	0002                	0x2
   20600:	05f8                	addi	a4,sp,716
   20602:	0002                	0x2
   20604:	05f8                	addi	a4,sp,716
   20606:	0002                	0x2
   20608:	0600                	addi	s0,sp,768
   2060a:	0002                	0x2
   2060c:	0600                	addi	s0,sp,768
   2060e:	0002                	0x2
   20610:	0608                	addi	a0,sp,768
   20612:	0002                	0x2
   20614:	0608                	addi	a0,sp,768
   20616:	0002                	0x2
   20618:	0610                	addi	a2,sp,768
   2061a:	0002                	0x2
   2061c:	0610                	addi	a2,sp,768
   2061e:	0002                	0x2
   20620:	0618                	addi	a4,sp,768
   20622:	0002                	0x2
   20624:	0618                	addi	a4,sp,768
   20626:	0002                	0x2
   20628:	0620                	addi	s0,sp,776
   2062a:	0002                	0x2
   2062c:	0620                	addi	s0,sp,776
   2062e:	0002                	0x2
   20630:	0628                	addi	a0,sp,776
   20632:	0002                	0x2
   20634:	0628                	addi	a0,sp,776
   20636:	0002                	0x2
   20638:	0630                	addi	a2,sp,776
   2063a:	0002                	0x2
   2063c:	0630                	addi	a2,sp,776
   2063e:	0002                	0x2
   20640:	0638                	addi	a4,sp,776
   20642:	0002                	0x2
   20644:	0638                	addi	a4,sp,776
   20646:	0002                	0x2
   20648:	0640                	addi	s0,sp,772
   2064a:	0002                	0x2
   2064c:	0640                	addi	s0,sp,772
   2064e:	0002                	0x2
   20650:	0648                	addi	a0,sp,772
   20652:	0002                	0x2
   20654:	0648                	addi	a0,sp,772
   20656:	0002                	0x2
   20658:	0650                	addi	a2,sp,772
   2065a:	0002                	0x2
   2065c:	0650                	addi	a2,sp,772
   2065e:	0002                	0x2
   20660:	0658                	addi	a4,sp,772
   20662:	0002                	0x2
   20664:	0658                	addi	a4,sp,772
   20666:	0002                	0x2
   20668:	0660                	addi	s0,sp,780
   2066a:	0002                	0x2
   2066c:	0660                	addi	s0,sp,780
   2066e:	0002                	0x2
   20670:	0668                	addi	a0,sp,780
   20672:	0002                	0x2
   20674:	0668                	addi	a0,sp,780
   20676:	0002                	0x2
   20678:	0670                	addi	a2,sp,780
   2067a:	0002                	0x2
   2067c:	0670                	addi	a2,sp,780
   2067e:	0002                	0x2
   20680:	0678                	addi	a4,sp,780
   20682:	0002                	0x2
   20684:	0678                	addi	a4,sp,780
   20686:	0002                	0x2
   20688:	0680                	addi	s0,sp,832
   2068a:	0002                	0x2
   2068c:	0680                	addi	s0,sp,832
   2068e:	0002                	0x2
   20690:	0688                	addi	a0,sp,832
   20692:	0002                	0x2
   20694:	0688                	addi	a0,sp,832
   20696:	0002                	0x2
   20698:	0690                	addi	a2,sp,832
   2069a:	0002                	0x2
   2069c:	0690                	addi	a2,sp,832
   2069e:	0002                	0x2
   206a0:	0698                	addi	a4,sp,832
   206a2:	0002                	0x2
   206a4:	0698                	addi	a4,sp,832
   206a6:	0002                	0x2
   206a8:	06a0                	addi	s0,sp,840
   206aa:	0002                	0x2
   206ac:	06a0                	addi	s0,sp,840
   206ae:	0002                	0x2
   206b0:	06a8                	addi	a0,sp,840
   206b2:	0002                	0x2
   206b4:	06a8                	addi	a0,sp,840
   206b6:	0002                	0x2
   206b8:	06b0                	addi	a2,sp,840
   206ba:	0002                	0x2
   206bc:	06b0                	addi	a2,sp,840
   206be:	0002                	0x2
   206c0:	06b8                	addi	a4,sp,840
   206c2:	0002                	0x2
   206c4:	06b8                	addi	a4,sp,840
   206c6:	0002                	0x2
   206c8:	06c0                	addi	s0,sp,836
   206ca:	0002                	0x2
   206cc:	06c0                	addi	s0,sp,836
   206ce:	0002                	0x2
   206d0:	06c8                	addi	a0,sp,836
   206d2:	0002                	0x2
   206d4:	06c8                	addi	a0,sp,836
   206d6:	0002                	0x2
   206d8:	06d0                	addi	a2,sp,836
   206da:	0002                	0x2
   206dc:	06d0                	addi	a2,sp,836
   206de:	0002                	0x2
   206e0:	06d8                	addi	a4,sp,836
   206e2:	0002                	0x2
   206e4:	06d8                	addi	a4,sp,836
   206e6:	0002                	0x2
   206e8:	06e0                	addi	s0,sp,844
   206ea:	0002                	0x2
   206ec:	06e0                	addi	s0,sp,844
   206ee:	0002                	0x2
   206f0:	06e8                	addi	a0,sp,844
   206f2:	0002                	0x2
   206f4:	06e8                	addi	a0,sp,844
   206f6:	0002                	0x2
   206f8:	06f0                	addi	a2,sp,844
   206fa:	0002                	0x2
   206fc:	06f0                	addi	a2,sp,844
   206fe:	0002                	0x2
   20700:	06f8                	addi	a4,sp,844
   20702:	0002                	0x2
   20704:	06f8                	addi	a4,sp,844
   20706:	0002                	0x2
   20708:	0700                	addi	s0,sp,896
   2070a:	0002                	0x2
   2070c:	0700                	addi	s0,sp,896
   2070e:	0002                	0x2
   20710:	0708                	addi	a0,sp,896
   20712:	0002                	0x2
   20714:	0708                	addi	a0,sp,896
   20716:	0002                	0x2
   20718:	0710                	addi	a2,sp,896
   2071a:	0002                	0x2
   2071c:	0710                	addi	a2,sp,896
   2071e:	0002                	0x2
   20720:	0718                	addi	a4,sp,896
   20722:	0002                	0x2
   20724:	0718                	addi	a4,sp,896
   20726:	0002                	0x2
   20728:	0720                	addi	s0,sp,904
   2072a:	0002                	0x2
   2072c:	0720                	addi	s0,sp,904
   2072e:	0002                	0x2
   20730:	0728                	addi	a0,sp,904
   20732:	0002                	0x2
   20734:	0728                	addi	a0,sp,904
   20736:	0002                	0x2
   20738:	0730                	addi	a2,sp,904
   2073a:	0002                	0x2
   2073c:	0730                	addi	a2,sp,904
   2073e:	0002                	0x2
   20740:	0738                	addi	a4,sp,904
   20742:	0002                	0x2
   20744:	0738                	addi	a4,sp,904
   20746:	0002                	0x2
   20748:	0740                	addi	s0,sp,900
   2074a:	0002                	0x2
   2074c:	0740                	addi	s0,sp,900
   2074e:	0002                	0x2
   20750:	0748                	addi	a0,sp,900
   20752:	0002                	0x2
   20754:	0748                	addi	a0,sp,900
   20756:	0002                	0x2
   20758:	0750                	addi	a2,sp,900
   2075a:	0002                	0x2
   2075c:	0750                	addi	a2,sp,900
   2075e:	0002                	0x2
   20760:	0758                	addi	a4,sp,900
   20762:	0002                	0x2
   20764:	0758                	addi	a4,sp,900
   20766:	0002                	0x2
   20768:	0760                	addi	s0,sp,908
   2076a:	0002                	0x2
   2076c:	0760                	addi	s0,sp,908
   2076e:	0002                	0x2
   20770:	0768                	addi	a0,sp,908
   20772:	0002                	0x2
   20774:	0768                	addi	a0,sp,908
   20776:	0002                	0x2
   20778:	0770                	addi	a2,sp,908
   2077a:	0002                	0x2
   2077c:	0770                	addi	a2,sp,908
   2077e:	0002                	0x2
   20780:	0778                	addi	a4,sp,908
   20782:	0002                	0x2
   20784:	0778                	addi	a4,sp,908
   20786:	0002                	0x2
   20788:	0780                	addi	s0,sp,960
   2078a:	0002                	0x2
   2078c:	0780                	addi	s0,sp,960
   2078e:	0002                	0x2
   20790:	0788                	addi	a0,sp,960
   20792:	0002                	0x2
   20794:	0788                	addi	a0,sp,960
   20796:	0002                	0x2
   20798:	0790                	addi	a2,sp,960
   2079a:	0002                	0x2
   2079c:	0790                	addi	a2,sp,960
   2079e:	0002                	0x2
   207a0:	0798                	addi	a4,sp,960
   207a2:	0002                	0x2
   207a4:	0798                	addi	a4,sp,960
   207a6:	0002                	0x2
   207a8:	07a0                	addi	s0,sp,968
   207aa:	0002                	0x2
   207ac:	07a0                	addi	s0,sp,968
   207ae:	0002                	0x2
   207b0:	07a8                	addi	a0,sp,968
   207b2:	0002                	0x2
   207b4:	07a8                	addi	a0,sp,968
   207b6:	0002                	0x2
   207b8:	07b0                	addi	a2,sp,968
   207ba:	0002                	0x2
   207bc:	07b0                	addi	a2,sp,968
   207be:	0002                	0x2
   207c0:	07b8                	addi	a4,sp,968
   207c2:	0002                	0x2
   207c4:	07b8                	addi	a4,sp,968
   207c6:	0002                	0x2
   207c8:	07c0                	addi	s0,sp,964
   207ca:	0002                	0x2
   207cc:	07c0                	addi	s0,sp,964
   207ce:	0002                	0x2
   207d0:	07c8                	addi	a0,sp,964
   207d2:	0002                	0x2
   207d4:	07c8                	addi	a0,sp,964
   207d6:	0002                	0x2
   207d8:	07d0                	addi	a2,sp,964
   207da:	0002                	0x2
   207dc:	07d0                	addi	a2,sp,964
   207de:	0002                	0x2
   207e0:	07d8                	addi	a4,sp,964
   207e2:	0002                	0x2
   207e4:	07d8                	addi	a4,sp,964
   207e6:	0002                	0x2
   207e8:	07e0                	addi	s0,sp,972
   207ea:	0002                	0x2
   207ec:	07e0                	addi	s0,sp,972
   207ee:	0002                	0x2
   207f0:	07e8                	addi	a0,sp,972
   207f2:	0002                	0x2
   207f4:	07e8                	addi	a0,sp,972
   207f6:	0002                	0x2
   207f8:	07f0                	addi	a2,sp,972
   207fa:	0002                	0x2
   207fc:	07f0                	addi	a2,sp,972
   207fe:	0002                	0x2
   20800:	07f8                	addi	a4,sp,972
   20802:	0002                	0x2
   20804:	07f8                	addi	a4,sp,972
   20806:	0002                	0x2
   20808:	0800                	addi	s0,sp,16
   2080a:	0002                	0x2
   2080c:	0800                	addi	s0,sp,16
   2080e:	0002                	0x2
   20810:	0808                	addi	a0,sp,16
   20812:	0002                	0x2
   20814:	0808                	addi	a0,sp,16
   20816:	0002                	0x2
   20818:	0810                	addi	a2,sp,16
   2081a:	0002                	0x2
   2081c:	0810                	addi	a2,sp,16
   2081e:	0002                	0x2
   20820:	0818                	addi	a4,sp,16
   20822:	0002                	0x2
   20824:	0818                	addi	a4,sp,16
   20826:	0002                	0x2
   20828:	0820                	addi	s0,sp,24
   2082a:	0002                	0x2
   2082c:	0820                	addi	s0,sp,24
   2082e:	0002                	0x2

Disassembly of section .sdata:

00020830 <__dso_handle>:
   20830:	0000                	unimp
	...

00020834 <_global_impure_ptr>:
   20834:	0000                	unimp
   20836:	0002                	0x2

00020838 <_impure_ptr>:
   20838:	0000                	unimp
   2083a:	0002                	0x2

0002083c <__malloc_sbrk_base>:
   2083c:	ffff                	0xffff
   2083e:	ffff                	0xffff

00020840 <__malloc_trim_threshold>:
   20840:	0000                	unimp
   20842:	0002                	0x2

Disassembly of section .fini_array:

00020844 <__TMC_END__>:
   20844:	00a0                	addi	s0,sp,72
   20846:	8000                	0x8000

Disassembly of section .init_array:

00020848 <__frame_dummy_init_array_entry>:
   20848:	00f4                	addi	a3,sp,76
   2084a:	8000                	0x8000

Disassembly of section .sbss:

0002084c <__malloc_max_total_mem>:
   2084c:	0000                	unimp
	...

00020850 <__malloc_max_sbrked_mem>:
   20850:	0000                	unimp
	...

00020854 <__malloc_top_pad>:
   20854:	0000                	unimp
	...

00020858 <heap_end.2476>:
   20858:	0000                	unimp
	...

Disassembly of section .bss:

0002085c <_bstart>:
   2085c:	0000                	unimp
	...

00020860 <object.5183>:
	...

00020878 <__malloc_current_mallinfo>:
	...

000208a0 <errno>:
   208a0:	0000                	unimp
	...

Disassembly of section .comment:

00000000 <_tls_data-0x208a4>:
   0:	3a434347          	fmsub.d	ft6,ft6,ft4,ft7,rmm
   4:	2820                	fld	fs0,80(s0)
   6:	29554e47          	fmsub.s	ft8,fa0,fs5,ft5,rmm
   a:	3720                	fld	fs0,104(a4)
   c:	322e                	fld	ft4,232(sp)
   e:	302e                	fld	ft0,232(sp)
	...

Disassembly of section .debug_info:

00000000 <.debug_info>:
   0:	0a39                	addi	s4,s4,14
   2:	0000                	unimp
   4:	0004                	0x4
   6:	0000                	unimp
   8:	0000                	unimp
   a:	0104                	addi	s1,sp,128
   c:	000032d7          	0x32d7
  10:	ab0c                	fsd	fa1,16(a4)
  12:	0061                	c.addi	zero,24
  14:	6900                	flw	fs0,16(a0)
  16:	0021                	c.addi	zero,8
  18:	2800                	fld	fs0,16(s0)
  1a:	0001                	nop
  1c:	6880                	flw	fs0,16(s1)
	...
  26:	0000                	unimp
  28:	0200                	addi	s0,sp,256
  2a:	0601                	addi	a2,a2,0
  2c:	0678                	addi	a4,sp,780
  2e:	0000                	unimp
  30:	0102                	slli	sp,sp,0x0
  32:	9c08                	0x9c08
  34:	004a                	0x4a
  36:	0200                	addi	s0,sp,256
  38:	0502                	slli	a0,a0,0x0
  3a:	070a                	slli	a4,a4,0x2
  3c:	0000                	unimp
  3e:	0202                	slli	tp,tp,0x0
  40:	00591b07          	0x591b07
  44:	0200                	addi	s0,sp,256
  46:	0504                	addi	s1,sp,640
  48:	8028                	0x8028
  4a:	0000                	unimp
  4c:	0402                	slli	s0,s0,0x0
  4e:	00163a07          	fld	fs4,1(a2)
  52:	0200                	addi	s0,sp,256
  54:	0508                	addi	a0,sp,640
  56:	4190                	lw	a2,0(a1)
  58:	0000                	unimp
  5a:	0802                	slli	a6,a6,0x0
  5c:	0082fd07          	0x82fd07
  60:	0300                	addi	s0,sp,384
  62:	0504                	addi	s1,sp,640
  64:	6e69                	lui	t3,0x1a
  66:	0074                	addi	a3,sp,12
  68:	0402                	slli	s0,s0,0x0
  6a:	001d8607          	0x1d8607
  6e:	0200                	addi	s0,sp,256
  70:	0410                	addi	a2,sp,512
  72:	0206                	slli	tp,tp,0x1
  74:	0000                	unimp
  76:	5d04                	lw	s1,56(a0)
  78:	02000037          	lui	zero,0x2000
  7c:	00006107          	0x6107
  80:	0400                	addi	s0,sp,512
  82:	790a                	flw	fs2,160(sp)
  84:	0000                	unimp
  86:	00452c03          	lw	s8,4(a0)
  8a:	0000                	unimp
  8c:	e304                	fsw	fs1,0(a4)
  8e:	03000013          	li	zero,48
  92:	4572                	lw	a0,28(sp)
  94:	0000                	unimp
  96:	0400                	addi	s0,sp,512
  98:	00006e47          	fmsub.s	ft8,ft0,ft0,ft0,unknown
  9c:	00619103          	lh	sp,6(gp) # 21036 <__global_pointer$+0x6>
  a0:	0000                	unimp
  a2:	b405                	j	fffffac2 <__EH_FRAME_BEGIN__+0x7fffe81a>
  a4:	001f 0400 0165      	0x1650400001f
  aa:	0068                	addi	a0,sp,12
  ac:	0000                	unimp
  ae:	0406                	slli	s0,s0,0x1
  b0:	00cda603          	lw	a2,12(s11)
  b4:	0000                	unimp
  b6:	00111c07          	0x111c07
  ba:	0300                	addi	s0,sp,384
  bc:	a2a8                	fsd	fa0,64(a3)
  be:	0000                	unimp
  c0:	0700                	addi	s0,sp,896
  c2:	54fc                	lw	a5,108(s1)
  c4:	0000                	unimp
  c6:	00cda903          	lw	s2,12(s11)
  ca:	0000                	unimp
  cc:	0800                	addi	s0,sp,16
  ce:	0030                	addi	a2,sp,8
  d0:	0000                	unimp
  d2:	00dd                	addi	ra,ra,23
  d4:	0000                	unimp
  d6:	6809                	lui	a6,0x2
  d8:	0000                	unimp
  da:	0300                	addi	s0,sp,384
  dc:	0a00                	addi	s0,sp,272
  de:	0308                	addi	a0,sp,384
  e0:	0000fea3          	0xfea3
  e4:	0b00                	addi	s0,sp,400
  e6:	00004e73          	0x4e73
  ea:	0061a503          	lw	a0,6(gp) # 21036 <__global_pointer$+0x6>
  ee:	0000                	unimp
  f0:	0b00                	addi	s0,sp,400
  f2:	00000183          	lb	gp,0(zero) # 2000000 <__global_pointer$+0x1fdefd0>
  f6:	00aeaa03          	lw	s4,10(t4)
  fa:	0000                	unimp
  fc:	0004                	0x4
  fe:	9004                	0x9004
 100:	03000043          	fmadd.d	ft0,ft0,fa6,ft0,rne
 104:	0000ddab          	0xddab
 108:	0400                	addi	s0,sp,512
 10a:	00005d13          	srli	s10,zero,0x0
 10e:	0076af03          	lw	t5,7(a3)
 112:	0000                	unimp
 114:	040c                	addi	a1,sp,512
 116:	ad04                	fsd	fs1,24(a0)
 118:	0074                	addi	a3,sp,12
 11a:	0500                	addi	s0,sp,640
 11c:	4c16                	lw	s8,68(sp)
 11e:	0000                	unimp
 120:	0d00                	addi	s0,sp,656
 122:	3a8c                	fld	fa1,48(a3)
 124:	0000                	unimp
 126:	0518                	addi	a4,sp,640
 128:	0001742f          	0x1742f
 12c:	0b00                	addi	s0,sp,400
 12e:	4bf2                	lw	s7,28(sp)
 130:	0000                	unimp
 132:	3105                	jal	fffffd52 <__EH_FRAME_BEGIN__+0x7fffeaaa>
 134:	0174                	addi	a3,sp,140
 136:	0000                	unimp
 138:	0e00                	addi	s0,sp,784
 13a:	6b5f 0500 6132      	0x613205006b5f
 140:	0000                	unimp
 142:	0400                	addi	s0,sp,512
 144:	006d670b          	0x6d670b
 148:	0500                	addi	s0,sp,640
 14a:	6132                	flw	ft2,12(sp)
 14c:	0000                	unimp
 14e:	0800                	addi	s0,sp,16
 150:	00439b0b          	0x439b0b
 154:	0500                	addi	s0,sp,640
 156:	6132                	flw	ft2,12(sp)
 158:	0000                	unimp
 15a:	0c00                	addi	s0,sp,528
 15c:	002fcb0b          	0x2fcb0b
 160:	0500                	addi	s0,sp,640
 162:	6132                	flw	ft2,12(sp)
 164:	0000                	unimp
 166:	1000                	addi	s0,sp,32
 168:	5f0e                	lw	t5,224(sp)
 16a:	0078                	addi	a4,sp,12
 16c:	3305                	jal	fffffe8c <__EH_FRAME_BEGIN__+0x7fffebe4>
 16e:	017a                	slli	sp,sp,0x1e
 170:	0000                	unimp
 172:	0014                	0x14
 174:	0121040f          	0x121040f
 178:	0000                	unimp
 17a:	1608                	addi	a0,sp,800
 17c:	0001                	nop
 17e:	8a00                	0x8a00
 180:	0001                	nop
 182:	0900                	addi	s0,sp,144
 184:	0068                	addi	a0,sp,12
 186:	0000                	unimp
 188:	0000                	unimp
 18a:	cd0d                	beqz	a0,1c4 <_data-0x1fe3c>
 18c:	0006                	0x6
 18e:	2400                	fld	fs0,8(s0)
 190:	3705                	jal	b0 <_data-0x1ff50>
 192:	00000203          	lb	tp,0(zero) # 0 <_data-0x20000>
 196:	0006e30b          	0x6e30b
 19a:	0500                	addi	s0,sp,640
 19c:	6139                	addi	sp,sp,448
 19e:	0000                	unimp
 1a0:	0000                	unimp
 1a2:	0081bc0b          	0x81bc0b
 1a6:	0500                	addi	s0,sp,640
 1a8:	613a                	flw	ft2,140(sp)
 1aa:	0000                	unimp
 1ac:	0400                	addi	s0,sp,512
 1ae:	007a9f0b          	0x7a9f0b
 1b2:	0500                	addi	s0,sp,640
 1b4:	0000613b          	0x613b
 1b8:	0800                	addi	s0,sp,16
 1ba:	0031690b          	0x31690b
 1be:	0500                	addi	s0,sp,640
 1c0:	613c                	flw	fa5,64(a0)
 1c2:	0000                	unimp
 1c4:	0c00                	addi	s0,sp,528
 1c6:	0016d20b          	0x16d20b
 1ca:	0500                	addi	s0,sp,640
 1cc:	613d                	addi	sp,sp,480
 1ce:	0000                	unimp
 1d0:	1000                	addi	s0,sp,32
 1d2:	006df70b          	0x6df70b
 1d6:	0500                	addi	s0,sp,640
 1d8:	613e                	flw	ft2,204(sp)
 1da:	0000                	unimp
 1dc:	1400                	addi	s0,sp,544
 1de:	007b6c0b          	0x7b6c0b
 1e2:	0500                	addi	s0,sp,640
 1e4:	0000613f 240b1800 	0x240b18000000613f
 1ec:	0051                	c.addi	zero,20
 1ee:	0500                	addi	s0,sp,640
 1f0:	6140                	flw	fs0,4(a0)
 1f2:	0000                	unimp
 1f4:	1c00                	addi	s0,sp,560
 1f6:	004fbe0b          	0x4fbe0b
 1fa:	0500                	addi	s0,sp,640
 1fc:	6141                	addi	sp,sp,16
 1fe:	0000                	unimp
 200:	2000                	fld	fs0,0(s0)
 202:	1000                	addi	s0,sp,32
 204:	00001093          	slli	ra,zero,0x0
 208:	0108                	addi	a0,sp,128
 20a:	4a05                	li	s4,1
 20c:	00000243          	fmadd.s	ft4,ft0,ft0,ft0,rne
 210:	0009cc0b          	0x9cc0b
 214:	0500                	addi	s0,sp,640
 216:	0002434b          	fnmsub.s	ft6,ft4,ft0,ft0,rmm
 21a:	0000                	unimp
 21c:	00586b0b          	0x586b0b
 220:	0500                	addi	s0,sp,640
 222:	434c                	lw	a1,4(a4)
 224:	0002                	0x2
 226:	8000                	0x8000
 228:	c011                	beqz	s0,22c <_data-0x1fdd4>
 22a:	0015                	c.addi	zero,5
 22c:	0500                	addi	s0,sp,640
 22e:	164e                	slli	a2,a2,0x33
 230:	0001                	nop
 232:	0000                	unimp
 234:	1101                	addi	sp,sp,-32
 236:	72a5                	lui	t0,0xfffe9
 238:	0000                	unimp
 23a:	5105                	li	sp,-31
 23c:	0116                	slli	sp,sp,0x5
 23e:	0000                	unimp
 240:	0104                	addi	s1,sp,128
 242:	0800                	addi	s0,sp,16
 244:	0114                	addi	a3,sp,128
 246:	0000                	unimp
 248:	00000253          	fadd.s	ft4,ft0,ft0,rne
 24c:	6809                	lui	a6,0x2
 24e:	0000                	unimp
 250:	1f00                	addi	s0,sp,944
 252:	1000                	addi	s0,sp,32
 254:	4cf9                	li	s9,30
 256:	0000                	unimp
 258:	0190                	addi	a2,sp,192
 25a:	5d05                	li	s10,-31
 25c:	0291                	addi	t0,t0,4
 25e:	0000                	unimp
 260:	004bf20b          	0x4bf20b
 264:	0500                	addi	s0,sp,640
 266:	915e                	add	sp,sp,s7
 268:	0002                	0x2
 26a:	0000                	unimp
 26c:	00714c0b          	0x714c0b
 270:	0500                	addi	s0,sp,640
 272:	615f 0000 0400      	0x4000000615f
 278:	00241b0b          	0x241b0b
 27c:	0500                	addi	s0,sp,640
 27e:	9761                	srai	a4,a4,0x38
 280:	0002                	0x2
 282:	0800                	addi	s0,sp,16
 284:	0010930b          	0x10930b
 288:	0500                	addi	s0,sp,640
 28a:	0362                	slli	t1,t1,0x18
 28c:	0002                	0x2
 28e:	8800                	0x8800
 290:	0f00                	addi	s0,sp,912
 292:	5304                	lw	s1,32(a4)
 294:	0002                	0x2
 296:	0800                	addi	s0,sp,16
 298:	000002a7          	0x2a7
 29c:	000002a7          	0x2a7
 2a0:	6809                	lui	a6,0x2
 2a2:	0000                	unimp
 2a4:	1f00                	addi	s0,sp,944
 2a6:	0f00                	addi	s0,sp,912
 2a8:	ad04                	fsd	fs1,24(a0)
 2aa:	0002                	0x2
 2ac:	1200                	addi	s0,sp,288
 2ae:	280d                	jal	2e0 <_data-0x1fd20>
 2b0:	0002                	0x2
 2b2:	0800                	addi	s0,sp,16
 2b4:	7505                	lui	a0,0xfffe1
 2b6:	000002d3          	fadd.s	ft5,ft0,ft0,rne
 2ba:	005ac90b          	0x5ac90b
 2be:	0500                	addi	s0,sp,640
 2c0:	d376                	sw	t4,164(sp)
 2c2:	0002                	0x2
 2c4:	0000                	unimp
 2c6:	0009110b          	0x9110b
 2ca:	0500                	addi	s0,sp,640
 2cc:	00006177          	0x6177
 2d0:	0400                	addi	s0,sp,512
 2d2:	0f00                	addi	s0,sp,912
 2d4:	3004                	fld	fs1,32(s0)
 2d6:	0000                	unimp
 2d8:	0d00                	addi	s0,sp,656
 2da:	7ae8                	flw	fa0,116(a3)
 2dc:	0000                	unimp
 2de:	0568                	addi	a0,sp,652
 2e0:	03b5                	addi	t2,t2,13
 2e2:	0004                	0x4
 2e4:	0e00                	addi	s0,sp,784
 2e6:	705f 0500 d3b6      	0xd3b60500705f
 2ec:	0002                	0x2
 2ee:	0000                	unimp
 2f0:	5f0e                	lw	t5,224(sp)
 2f2:	0072                	0x72
 2f4:	b705                	j	214 <_data-0x1fdec>
 2f6:	0061                	c.addi	zero,24
 2f8:	0000                	unimp
 2fa:	0e04                	addi	s1,sp,784
 2fc:	775f 0500 61b8      	0x61b80500775f
 302:	0000                	unimp
 304:	0800                	addi	s0,sp,16
 306:	004c0f0b          	0x4c0f0b
 30a:	0500                	addi	s0,sp,640
 30c:	37b9                	jal	25a <_data-0x1fda6>
 30e:	0000                	unimp
 310:	0c00                	addi	s0,sp,528
 312:	00105d0b          	0x105d0b
 316:	0500                	addi	s0,sp,640
 318:	37ba                	fld	fa5,424(sp)
 31a:	0000                	unimp
 31c:	0e00                	addi	s0,sp,784
 31e:	5f0e                	lw	t5,224(sp)
 320:	6662                	flw	fa2,24(sp)
 322:	0500                	addi	s0,sp,640
 324:	0002aebb          	0x2aebb
 328:	1000                	addi	s0,sp,32
 32a:	0071280b          	0x71280b
 32e:	0500                	addi	s0,sp,640
 330:	61bc                	flw	fa5,64(a1)
 332:	0000                	unimp
 334:	1800                	addi	s0,sp,48
 336:	002eff0b          	0x2eff0b
 33a:	0500                	addi	s0,sp,640
 33c:	000114c3          	fmadd.s	fs1,ft2,ft0,ft0,rtz
 340:	1c00                	addi	s0,sp,560
 342:	00022f0b          	0x22f0b
 346:	0500                	addi	s0,sp,640
 348:	70c5                	lui	ra,0xffff1
 34a:	0005                	c.addi	zero,1
 34c:	2000                	fld	fs0,0(s0)
 34e:	0003990b          	0x3990b
 352:	0500                	addi	s0,sp,640
 354:	00059fc7          	fmsub.s	ft11,fa1,ft0,ft0,rtz
 358:	2400                	fld	fs0,8(s0)
 35a:	0053d50b          	0x53d50b
 35e:	0500                	addi	s0,sp,640
 360:	c3ca                	sw	s2,196(sp)
 362:	0005                	c.addi	zero,1
 364:	2800                	fld	fs0,16(s0)
 366:	0024c10b          	0x24c10b
 36a:	0500                	addi	s0,sp,640
 36c:	0005ddcb          	fnmsub.s	fs11,fa1,ft0,ft0,unknown
 370:	2c00                	fld	fs0,24(s0)
 372:	5f0e                	lw	t5,224(sp)
 374:	6275                	lui	tp,0x1d
 376:	0500                	addi	s0,sp,640
 378:	aece                	fsd	fs3,344(sp)
 37a:	0002                	0x2
 37c:	3000                	fld	fs0,32(s0)
 37e:	5f0e                	lw	t5,224(sp)
 380:	7075                	0x7075
 382:	0500                	addi	s0,sp,640
 384:	0002d3cf          	fnmadd.s	ft7,ft5,ft0,ft0,unknown
 388:	3800                	fld	fs0,48(s0)
 38a:	5f0e                	lw	t5,224(sp)
 38c:	7275                	lui	tp,0xffffd
 38e:	0500                	addi	s0,sp,640
 390:	61d0                	flw	fa2,4(a1)
 392:	0000                	unimp
 394:	3c00                	fld	fs0,56(s0)
 396:	004a5a0b          	0x4a5a0b
 39a:	0500                	addi	s0,sp,640
 39c:	0005e3d3          	fadd.s	ft7,fa1,ft0,unknown
 3a0:	4000                	lw	s0,0(s0)
 3a2:	0010ce0b          	0x10ce0b
 3a6:	0500                	addi	s0,sp,640
 3a8:	f3d4                	fsw	fa3,36(a5)
 3aa:	0005                	c.addi	zero,1
 3ac:	4300                	lw	s0,0(a4)
 3ae:	5f0e                	lw	t5,224(sp)
 3b0:	626c                	flw	fa1,68(a2)
 3b2:	0500                	addi	s0,sp,640
 3b4:	0002aed7          	0x2aed7
 3b8:	4400                	lw	s0,8(s0)
 3ba:	005a4a0b          	0x5a4a0b
 3be:	0500                	addi	s0,sp,640
 3c0:	61da                	flw	ft3,148(sp)
 3c2:	0000                	unimp
 3c4:	4c00                	lw	s0,24(s0)
 3c6:	00313f0b          	0x313f0b
 3ca:	0500                	addi	s0,sp,640
 3cc:	000081db          	0x81db
 3d0:	5000                	lw	s0,32(s0)
 3d2:	005fe00b          	0x5fe00b
 3d6:	0500                	addi	s0,sp,640
 3d8:	21de                	fld	ft3,464(sp)
 3da:	0004                	0x4
 3dc:	5400                	lw	s0,40(s0)
 3de:	0009e70b          	0x9e70b
 3e2:	0500                	addi	s0,sp,640
 3e4:	09e2                	slli	s3,s3,0x18
 3e6:	0001                	nop
 3e8:	5800                	lw	s0,48(s0)
 3ea:	004b2a0b          	0x4b2a0b
 3ee:	0500                	addi	s0,sp,640
 3f0:	fee4                	fsw	fs1,124(a3)
 3f2:	0000                	unimp
 3f4:	5c00                	lw	s0,56(s0)
 3f6:	0046340b          	0x46340b
 3fa:	0500                	addi	s0,sp,640
 3fc:	61e5                	lui	gp,0x19
 3fe:	0000                	unimp
 400:	6400                	flw	fs0,8(s0)
 402:	1300                	addi	s0,sp,416
 404:	00000097          	auipc	ra,0x0
 408:	0421                	addi	s0,s0,8
 40a:	0000                	unimp
 40c:	2114                	fld	fa3,0(a0)
 40e:	0004                	0x4
 410:	1400                	addi	s0,sp,544
 412:	0114                	addi	a3,sp,128
 414:	0000                	unimp
 416:	5e14                	lw	a3,56(a2)
 418:	0005                	c.addi	zero,1
 41a:	1400                	addi	s0,sp,544
 41c:	0061                	c.addi	zero,24
 41e:	0000                	unimp
 420:	0f00                	addi	s0,sp,912
 422:	2c04                	fld	fs1,24(s0)
 424:	0004                	0x4
 426:	1500                	addi	s0,sp,672
 428:	0421                	addi	s0,s0,8
 42a:	0000                	unimp
 42c:	a016                	fsd	ft5,0(sp)
 42e:	0020                	addi	s0,sp,8
 430:	2800                	fld	fs0,16(s0)
 432:	0504                	addi	s1,sp,640
 434:	0239                	addi	tp,tp,14
 436:	055e                	slli	a0,a0,0x17
 438:	0000                	unimp
 43a:	00477117          	auipc	sp,0x477
 43e:	0500                	addi	s0,sp,640
 440:	0061023b          	0x61023b
 444:	0000                	unimp
 446:	1700                	addi	s0,sp,928
 448:	2764                	fld	fs1,200(a4)
 44a:	0000                	unimp
 44c:	4005                	0x4005
 44e:	4a02                	lw	s4,0(sp)
 450:	0006                	0x6
 452:	0400                	addi	s0,sp,512
 454:	001beb17          	auipc	s6,0x1be
 458:	0500                	addi	s0,sp,640
 45a:	0240                	addi	s0,sp,260
 45c:	064a                	slli	a2,a2,0x12
 45e:	0000                	unimp
 460:	1708                	addi	a0,sp,928
 462:	4aaa                	lw	s5,136(sp)
 464:	0000                	unimp
 466:	4005                	0x4005
 468:	4a02                	lw	s4,0(sp)
 46a:	0006                	0x6
 46c:	0c00                	addi	s0,sp,528
 46e:	0005a617          	auipc	a2,0x5a
 472:	0500                	addi	s0,sp,640
 474:	0242                	slli	tp,tp,0x10
 476:	0061                	c.addi	zero,24
 478:	0000                	unimp
 47a:	1710                	addi	a2,sp,928
 47c:	3de1                	jal	354 <_data-0x1fcac>
 47e:	0000                	unimp
 480:	4305                	li	t1,1
 482:	2c02                	fld	fs8,0(sp)
 484:	0008                	0x8
 486:	1400                	addi	s0,sp,544
 488:	001f9417          	auipc	s0,0x1f9
 48c:	0500                	addi	s0,sp,640
 48e:	0246                	slli	tp,tp,0x11
 490:	0061                	c.addi	zero,24
 492:	0000                	unimp
 494:	1730                	addi	a2,sp,936
 496:	74a5                	lui	s1,0xfffe9
 498:	0000                	unimp
 49a:	4705                	li	a4,1
 49c:	4102                	lw	sp,0(sp)
 49e:	0008                	0x8
 4a0:	3400                	fld	fs0,40(s0)
 4a2:	00362817          	auipc	a6,0x362
 4a6:	0500                	addi	s0,sp,640
 4a8:	0249                	addi	tp,tp,18
 4aa:	0061                	c.addi	zero,24
 4ac:	0000                	unimp
 4ae:	1738                	addi	a4,sp,936
 4b0:	3ba4                	fld	fs1,112(a5)
 4b2:	0000                	unimp
 4b4:	4b05                	li	s6,1
 4b6:	5202                	lw	tp,32(sp)
 4b8:	0008                	0x8
 4ba:	3c00                	fld	fs0,56(s0)
 4bc:	00779817          	auipc	a6,0x779
 4c0:	0500                	addi	s0,sp,640
 4c2:	024e                	slli	tp,tp,0x13
 4c4:	0174                	addi	a3,sp,140
 4c6:	0000                	unimp
 4c8:	1740                	addi	s0,sp,932
 4ca:	1332                	slli	t1,t1,0x2c
 4cc:	0000                	unimp
 4ce:	4f05                	li	t5,1
 4d0:	6102                	flw	ft2,0(sp)
 4d2:	0000                	unimp
 4d4:	4400                	lw	s0,8(s0)
 4d6:	00352017          	auipc	zero,0x352
 4da:	0500                	addi	s0,sp,640
 4dc:	0250                	addi	a2,sp,260
 4de:	0174                	addi	a3,sp,140
 4e0:	0000                	unimp
 4e2:	1748                	addi	a0,sp,932
 4e4:	4302                	lw	t1,0(sp)
 4e6:	0000                	unimp
 4e8:	5105                	li	sp,-31
 4ea:	5802                	lw	a6,32(sp)
 4ec:	0008                	0x8
 4ee:	4c00                	lw	s0,24(s0)
 4f0:	00049717          	auipc	a4,0x49
 4f4:	0500                	addi	s0,sp,640
 4f6:	0254                	addi	a3,sp,260
 4f8:	0061                	c.addi	zero,24
 4fa:	0000                	unimp
 4fc:	1750                	addi	a2,sp,932
 4fe:	3161                	jal	186 <_data-0x1fe7a>
 500:	0000                	unimp
 502:	5505                	li	a0,-31
 504:	5e02                	lw	t3,32(sp)
 506:	0005                	c.addi	zero,1
 508:	5400                	lw	s0,40(s0)
 50a:	004a3b17          	auipc	s6,0x4a3
 50e:	0500                	addi	s0,sp,640
 510:	0278                	addi	a4,sp,268
 512:	080a                	slli	a6,a6,0x2
 514:	0000                	unimp
 516:	1858                	addi	a4,sp,52
 518:	4cf9                	li	s9,30
 51a:	0000                	unimp
 51c:	7c05                	lui	s8,0xfffe1
 51e:	9102                	jalr	sp
 520:	0002                	0x2
 522:	4800                	lw	s0,16(s0)
 524:	1801                	addi	a6,a6,-32
 526:	3bed                	jal	320 <_data-0x1fce0>
 528:	0000                	unimp
 52a:	7d05                	lui	s10,0xfffe1
 52c:	5302                	lw	t1,32(sp)
 52e:	0002                	0x2
 530:	4c00                	lw	s0,24(s0)
 532:	1801                	addi	a6,a6,-32
 534:	4c20                	lw	s0,88(s0)
 536:	0000                	unimp
 538:	8105                	srli	a0,a0,0x1
 53a:	6902                	flw	fs2,0(sp)
 53c:	0008                	0x8
 53e:	dc00                	sw	s0,56(s0)
 540:	1802                	slli	a6,a6,0x20
 542:	7e78                	flw	fa4,124(a2)
 544:	0000                	unimp
 546:	8605                	srai	a2,a2,0x1
 548:	0f02                	slli	t5,t5,0x0
 54a:	0006                	0x6
 54c:	e000                	fsw	fs0,0(s0)
 54e:	1802                	slli	a6,a6,0x20
 550:	01bd                	addi	gp,gp,15
 552:	0000                	unimp
 554:	8705                	srai	a4,a4,0x1
 556:	7502                	flw	fa0,32(sp)
 558:	0008                	0x8
 55a:	ec00                	fsw	fs0,24(s0)
 55c:	0002                	0x2
 55e:	0564040f          	0x564040f
 562:	0000                	unimp
 564:	0102                	slli	sp,sp,0x0
 566:	7f08                	flw	fa0,56(a4)
 568:	0006                	0x6
 56a:	1500                	addi	s0,sp,672
 56c:	0564                	addi	s1,sp,652
 56e:	0000                	unimp
 570:	0403040f          	0x403040f
 574:	0000                	unimp
 576:	00009713          	slli	a4,ra,0x0
 57a:	9400                	0x9400
 57c:	0005                	c.addi	zero,1
 57e:	1400                	addi	s0,sp,544
 580:	0421                	addi	s0,s0,8
 582:	0000                	unimp
 584:	1414                	addi	a3,sp,544
 586:	0001                	nop
 588:	1400                	addi	s0,sp,544
 58a:	0594                	addi	a3,sp,704
 58c:	0000                	unimp
 58e:	6114                	flw	fa3,0(a0)
 590:	0000                	unimp
 592:	0000                	unimp
 594:	056b040f          	0x56b040f
 598:	0000                	unimp
 59a:	9415                	srai	s0,s0,0x25
 59c:	0005                	c.addi	zero,1
 59e:	0f00                	addi	s0,sp,912
 5a0:	7604                	flw	fs1,40(a2)
 5a2:	0005                	c.addi	zero,1
 5a4:	1300                	addi	s0,sp,416
 5a6:	008c                	addi	a1,sp,64
 5a8:	0000                	unimp
 5aa:	000005c3          	fmadd.s	fa1,ft0,ft0,ft0,rne
 5ae:	2114                	fld	fa3,0(a0)
 5b0:	0004                	0x4
 5b2:	1400                	addi	s0,sp,544
 5b4:	0114                	addi	a3,sp,128
 5b6:	0000                	unimp
 5b8:	8c14                	0x8c14
 5ba:	0000                	unimp
 5bc:	1400                	addi	s0,sp,544
 5be:	0061                	c.addi	zero,24
 5c0:	0000                	unimp
 5c2:	0f00                	addi	s0,sp,912
 5c4:	a504                	fsd	fs1,8(a0)
 5c6:	0005                	c.addi	zero,1
 5c8:	1300                	addi	s0,sp,416
 5ca:	0061                	c.addi	zero,24
 5cc:	0000                	unimp
 5ce:	05dd                	addi	a1,a1,23
 5d0:	0000                	unimp
 5d2:	2114                	fld	fa3,0(a0)
 5d4:	0004                	0x4
 5d6:	1400                	addi	s0,sp,544
 5d8:	0114                	addi	a3,sp,128
 5da:	0000                	unimp
 5dc:	0f00                	addi	s0,sp,912
 5de:	c904                	sw	s1,16(a0)
 5e0:	0005                	c.addi	zero,1
 5e2:	0800                	addi	s0,sp,16
 5e4:	0030                	addi	a2,sp,8
 5e6:	0000                	unimp
 5e8:	000005f3          	0x5f3
 5ec:	6809                	lui	a6,0x2
 5ee:	0000                	unimp
 5f0:	0200                	addi	s0,sp,256
 5f2:	0800                	addi	s0,sp,16
 5f4:	0030                	addi	a2,sp,8
 5f6:	0000                	unimp
 5f8:	00000603          	lb	a2,0(zero) # 3524d6 <__global_pointer$+0x3314a6>
 5fc:	6809                	lui	a6,0x2
 5fe:	0000                	unimp
 600:	0000                	unimp
 602:	0500                	addi	s0,sp,640
 604:	5d2a                	lw	s10,168(sp)
 606:	0000                	unimp
 608:	1f05                	addi	t5,t5,-31
 60a:	d901                	beqz	a0,51a <_data-0x1fae6>
 60c:	0002                	0x2
 60e:	1900                	addi	s0,sp,176
 610:	438a                	lw	t2,128(sp)
 612:	0000                	unimp
 614:	050c                	addi	a1,sp,640
 616:	06440123          	sb	tp,98(s0) # 1f94ea <__global_pointer$+0x1d84ba>
 61a:	0000                	unimp
 61c:	004bf217          	auipc	tp,0x4bf
 620:	0500                	addi	s0,sp,640
 622:	0125                	addi	sp,sp,9
 624:	0644                	addi	s1,sp,772
 626:	0000                	unimp
 628:	1700                	addi	s0,sp,928
 62a:	2809                	jal	63c <_data-0x1f9c4>
 62c:	0000                	unimp
 62e:	2605                	jal	94e <_data-0x1f6b2>
 630:	6101                	0x6101
 632:	0000                	unimp
 634:	0400                	addi	s0,sp,512
 636:	0031c017          	auipc	zero,0x31c
 63a:	0500                	addi	s0,sp,640
 63c:	064a0127          	0x64a0127
 640:	0000                	unimp
 642:	0008                	0x8
 644:	060f040f          	0x60f040f
 648:	0000                	unimp
 64a:	0603040f          	0x603040f
 64e:	0000                	unimp
 650:	b619                	j	156 <_data-0x1feaa>
 652:	0058                	addi	a4,sp,4
 654:	0e00                	addi	s0,sp,784
 656:	3f05                	jal	586 <_data-0x1fa7a>
 658:	8501                	srai	a0,a0,0x0
 65a:	0006                	0x6
 65c:	1700                	addi	s0,sp,928
 65e:	5346                	lw	t1,112(sp)
 660:	0000                	unimp
 662:	4005                	0x4005
 664:	8501                	srai	a0,a0,0x0
 666:	0006                	0x6
 668:	0000                	unimp
 66a:	000c9f17          	auipc	t5,0xc9
 66e:	0500                	addi	s0,sp,640
 670:	0141                	addi	sp,sp,16
 672:	0685                	addi	a3,a3,1
 674:	0000                	unimp
 676:	1706                	slli	a4,a4,0x21
 678:	79ea                	flw	fs3,184(sp)
 67a:	0000                	unimp
 67c:	4205                	li	tp,1
 67e:	3e01                	jal	18e <_data-0x1fe72>
 680:	0000                	unimp
 682:	0c00                	addi	s0,sp,528
 684:	0800                	addi	s0,sp,16
 686:	003e                	0x3e
 688:	0000                	unimp
 68a:	0695                	addi	a3,a3,5
 68c:	0000                	unimp
 68e:	6809                	lui	a6,0x2
 690:	0000                	unimp
 692:	0200                	addi	s0,sp,256
 694:	1a00                	addi	s0,sp,304
 696:	05d0                	addi	a2,sp,708
 698:	0259                	addi	tp,tp,22
 69a:	0796                	slli	a5,a5,0x5
 69c:	0000                	unimp
 69e:	00190217          	auipc	tp,0x190
 6a2:	0500                	addi	s0,sp,640
 6a4:	0068025b          	0x68025b
 6a8:	0000                	unimp
 6aa:	1700                	addi	s0,sp,928
 6ac:	5b59                	li	s6,-10
 6ae:	0000                	unimp
 6b0:	5c05                	li	s8,-31
 6b2:	5e02                	lw	t3,32(sp)
 6b4:	0005                	c.addi	zero,1
 6b6:	0400                	addi	s0,sp,512
 6b8:	00047317          	auipc	t1,0x47
 6bc:	0500                	addi	s0,sp,640
 6be:	025d                	addi	tp,tp,23
 6c0:	0796                	slli	a5,a5,0x5
 6c2:	0000                	unimp
 6c4:	1708                	addi	a0,sp,928
 6c6:	148a                	slli	s1,s1,0x22
 6c8:	0000                	unimp
 6ca:	5e05                	li	t3,-31
 6cc:	8a02                	jr	s4
 6ce:	0001                	nop
 6d0:	2400                	fld	fs0,8(s0)
 6d2:	00412f17          	auipc	t5,0x412
 6d6:	0500                	addi	s0,sp,640
 6d8:	025f 0061 0000      	0x61025f
 6de:	1748                	addi	a0,sp,932
 6e0:	4bed                	li	s7,27
 6e2:	0000                	unimp
 6e4:	6005                	0x6005
 6e6:	5a02                	lw	s4,32(sp)
 6e8:	0000                	unimp
 6ea:	5000                	lw	s0,32(s0)
 6ec:	005eaf17          	auipc	t5,0x5ea
 6f0:	0500                	addi	s0,sp,640
 6f2:	0261                	addi	tp,tp,24
 6f4:	0650                	addi	a2,sp,772
 6f6:	0000                	unimp
 6f8:	1758                	addi	a4,sp,932
 6fa:	66f8                	flw	fa4,76(a3)
 6fc:	0000                	unimp
 6fe:	6205                	lui	tp,0x1
 700:	fe02                	fsw	ft0,60(sp)
 702:	0000                	unimp
 704:	6800                	flw	fs0,16(s0)
 706:	0055e117          	auipc	sp,0x55e
 70a:	0500                	addi	s0,sp,640
 70c:	00fe0263          	beq	t3,a5,710 <_data-0x1f8f0>
 710:	0000                	unimp
 712:	1770                	addi	a2,sp,940
 714:	4b0a                	lw	s6,128(sp)
 716:	0000                	unimp
 718:	6405                	lui	s0,0x1
 71a:	fe02                	fsw	ft0,60(sp)
 71c:	0000                	unimp
 71e:	7800                	flw	fs0,48(s0)
 720:	00075417          	auipc	s0,0x75
 724:	0500                	addi	s0,sp,640
 726:	0265                	addi	tp,tp,25
 728:	07a6                	slli	a5,a5,0x9
 72a:	0000                	unimp
 72c:	1780                	addi	s0,sp,992
 72e:	38fd                	jal	2c <_data-0x1ffd4>
 730:	0000                	unimp
 732:	6605                	lui	a2,0x1
 734:	b602                	fsd	ft0,296(sp)
 736:	88000007          	0x88000007
 73a:	000ba917          	auipc	s2,0xba
 73e:	0500                	addi	s0,sp,640
 740:	00610267          	jalr	tp,6(sp) # 55e70c <__global_pointer$+0x53d6dc>
 744:	0000                	unimp
 746:	17a0                	addi	s0,sp,1000
 748:	12e2                	slli	t0,t0,0x38
 74a:	0000                	unimp
 74c:	6805                	lui	a6,0x1
 74e:	fe02                	fsw	ft0,60(sp)
 750:	0000                	unimp
 752:	a400                	fsd	fs0,8(s0)
 754:	005c0117          	auipc	sp,0x5c0
 758:	0500                	addi	s0,sp,640
 75a:	0269                	addi	tp,tp,26
 75c:	00fe                	slli	ra,ra,0x1f
 75e:	0000                	unimp
 760:	17ac                	addi	a1,sp,1000
 762:	00007c7b          	0x7c7b
 766:	6a05                	lui	s4,0x1
 768:	fe02                	fsw	ft0,60(sp)
 76a:	0000                	unimp
 76c:	b400                	fsd	fs0,40(s0)
 76e:	00491d17          	auipc	s10,0x491
 772:	0500                	addi	s0,sp,640
 774:	00fe026b          	0xfe026b
 778:	0000                	unimp
 77a:	17bc                	addi	a5,sp,1000
 77c:	06d2                	slli	a3,a3,0x14
 77e:	0000                	unimp
 780:	6c05                	lui	s8,0x1
 782:	fe02                	fsw	ft0,60(sp)
 784:	0000                	unimp
 786:	c400                	sw	s0,8(s0)
 788:	00476f17          	auipc	t5,0x476
 78c:	0500                	addi	s0,sp,640
 78e:	026d                	addi	tp,tp,27
 790:	0061                	c.addi	zero,24
 792:	0000                	unimp
 794:	00cc                	addi	a1,sp,68
 796:	6408                	flw	fa0,8(s0)
 798:	0005                	c.addi	zero,1
 79a:	a600                	fsd	fs0,8(a2)
 79c:	09000007          	0x9000007
 7a0:	0068                	addi	a0,sp,12
 7a2:	0000                	unimp
 7a4:	0019                	c.addi	zero,6
 7a6:	6408                	flw	fa0,8(s0)
 7a8:	0005                	c.addi	zero,1
 7aa:	b600                	fsd	fs0,40(a2)
 7ac:	09000007          	0x9000007
 7b0:	0068                	addi	a0,sp,12
 7b2:	0000                	unimp
 7b4:	64080007          	0x64080007
 7b8:	0005                	c.addi	zero,1
 7ba:	c600                	sw	s0,8(a2)
 7bc:	09000007          	0x9000007
 7c0:	0068                	addi	a0,sp,12
 7c2:	0000                	unimp
 7c4:	f01a0017          	auipc	zero,0xf01a0
 7c8:	7205                	lui	tp,0xfffe1
 7ca:	ea02                	fsw	ft0,20(sp)
 7cc:	17000007          	0x17000007
 7d0:	000072fb          	0x72fb
 7d4:	7505                	lui	a0,0xfffe1
 7d6:	ea02                	fsw	ft0,20(sp)
 7d8:	00000007          	0x7
 7dc:	0040bd17          	auipc	s10,0x40b
 7e0:	0500                	addi	s0,sp,640
 7e2:	0276                	slli	tp,tp,0x1d
 7e4:	07fa                	slli	a5,a5,0x1e
 7e6:	0000                	unimp
 7e8:	0078                	addi	a4,sp,12
 7ea:	d308                	sw	a0,32(a4)
 7ec:	0002                	0x2
 7ee:	fa00                	fsw	fs0,48(a2)
 7f0:	09000007          	0x9000007
 7f4:	0068                	addi	a0,sp,12
 7f6:	0000                	unimp
 7f8:	001d                	c.addi	zero,7
 7fa:	6808                	flw	fa0,16(s0)
 7fc:	0000                	unimp
 7fe:	0a00                	addi	s0,sp,272
 800:	0008                	0x8
 802:	0900                	addi	s0,sp,144
 804:	0068                	addi	a0,sp,12
 806:	0000                	unimp
 808:	001d                	c.addi	zero,7
 80a:	5705f01b          	0x5705f01b
 80e:	2c02                	fld	fs8,0(sp)
 810:	0008                	0x8
 812:	1c00                	addi	s0,sp,560
 814:	20a0                	fld	fs0,64(s1)
 816:	0000                	unimp
 818:	6e05                	lui	t3,0x1
 81a:	9502                	jalr	a0
 81c:	0006                	0x6
 81e:	1c00                	addi	s0,sp,560
 820:	00002207          	flw	ft4,0(zero) # f01a07c4 <__EH_FRAME_BEGIN__+0x7019f51c>
 824:	7705                	lui	a4,0xfffe1
 826:	c602                	sw	zero,12(sp)
 828:	00000007          	0x7
 82c:	6408                	flw	fa0,8(s0)
 82e:	0005                	c.addi	zero,1
 830:	3c00                	fld	fs0,56(s0)
 832:	0008                	0x8
 834:	0900                	addi	s0,sp,144
 836:	0068                	addi	a0,sp,12
 838:	0000                	unimp
 83a:	0018                	0x18
 83c:	5f1d                	li	t5,-25
 83e:	0001                	nop
 840:	0f00                	addi	s0,sp,912
 842:	3c04                	fld	fs1,56(s0)
 844:	0008                	0x8
 846:	1e00                	addi	s0,sp,816
 848:	0852                	slli	a6,a6,0x14
 84a:	0000                	unimp
 84c:	2114                	fld	fa3,0(a0)
 84e:	0004                	0x4
 850:	0000                	unimp
 852:	0847040f          	0x847040f
 856:	0000                	unimp
 858:	0174040f          	0x174040f
 85c:	0000                	unimp
 85e:	691e                	flw	fs2,196(sp)
 860:	0008                	0x8
 862:	1400                	addi	s0,sp,544
 864:	0061                	c.addi	zero,24
 866:	0000                	unimp
 868:	0f00                	addi	s0,sp,912
 86a:	6f04                	flw	fs1,24(a4)
 86c:	0008                	0x8
 86e:	0f00                	addi	s0,sp,912
 870:	5e04                	lw	s1,56(a2)
 872:	0008                	0x8
 874:	0800                	addi	s0,sp,16
 876:	00000603          	lb	a2,0(zero) # 0 <_data-0x20000>
 87a:	0885                	addi	a7,a7,1
 87c:	0000                	unimp
 87e:	6809                	lui	a6,0x2
 880:	0000                	unimp
 882:	0200                	addi	s0,sp,256
 884:	1f00                	addi	s0,sp,944
 886:	2735                	jal	fb2 <_data-0x1f04e>
 888:	0000                	unimp
 88a:	fe05                	bnez	a2,7c2 <_data-0x1f83e>
 88c:	2102                	fld	ft2,0(sp)
 88e:	0004                	0x4
 890:	1f00                	addi	s0,sp,944
 892:	6dce                	flw	fs11,208(sp)
 894:	0000                	unimp
 896:	ff05                	bnez	a4,7ce <_data-0x1f832>
 898:	2702                	fld	fa4,0(sp)
 89a:	0004                	0x4
 89c:	0400                	addi	s0,sp,512
 89e:	6e48                	flw	fa0,28(a2)
 8a0:	0000                	unimp
 8a2:	c806                	sw	ra,16(sp)
 8a4:	00000097          	auipc	ra,0x0
 8a8:	6020                	flw	fs0,64(s0)
 8aa:	006c                	addi	a1,sp,12
 8ac:	0700                	addi	s0,sp,896
 8ae:	00055e63          	bgez	a0,8ca <_data-0x1f736>
 8b2:	2000                	fld	fs0,0(s0)
 8b4:	1d69                	addi	s10,s10,-6
 8b6:	0000                	unimp
 8b8:	1008                	addi	a0,sp,32
 8ba:	08be                	slli	a7,a7,0xf
 8bc:	0000                	unimp
 8be:	055e040f          	0x55e040f
 8c2:	0000                	unimp
 8c4:	6320                	flw	fs0,64(a4)
 8c6:	006c                	addi	a1,sp,12
 8c8:	0800                	addi	s0,sp,16
 8ca:	5ee2                	lw	t4,56(sp)
 8cc:	0005                	c.addi	zero,1
 8ce:	2000                	fld	fs0,0(s0)
 8d0:	00003333          	snez	t1,zero
 8d4:	e308                	fsw	fa0,0(a4)
 8d6:	0061                	c.addi	zero,24
 8d8:	0000                	unimp
 8da:	5220                	lw	s0,96(a2)
 8dc:	0800005b          	0x800005b
 8e0:	000061e3          	bltu	zero,zero,10e2 <_data-0x1ef1e>
 8e4:	2000                	fld	fs0,0(s0)
 8e6:	000055ef          	jal	a1,58e6 <_data-0x1a71a>
 8ea:	e308                	fsw	fa0,0(a4)
 8ec:	0061                	c.addi	zero,24
 8ee:	0000                	unimp
 8f0:	7a20                	flw	fs0,112(a2)
 8f2:	002a                	0x2a
 8f4:	0800                	addi	s0,sp,16
 8f6:	61e5                	lui	gp,0x19
 8f8:	0000                	unimp
 8fa:	2100                	fld	fs0,0(a0)
 8fc:	0b31                	addi	s6,s6,12
 8fe:	0000                	unimp
 900:	3201                	jal	200 <_data-0x1fe00>
 902:	0128                	addi	a0,sp,136
 904:	8000                	0x8000
 906:	0044                	addi	s1,sp,4
 908:	0000                	unimp
 90a:	9c01                	0x9c01
 90c:	0000096f          	jal	s2,90c <_data-0x1f6f4>
 910:	7322                	flw	ft6,40(sp)
 912:	0100                	addi	s0,sp,128
 914:	9432                	add	s0,s0,a2
 916:	0005                	c.addi	zero,1
 918:	0000                	unimp
 91a:	0000                	unimp
 91c:	2300                	fld	fs0,0(a4)
 91e:	006c                	addi	a1,sp,12
 920:	3401                	jal	320 <_data-0x1fce0>
 922:	089d                	addi	a7,a7,7
 924:	0000                	unimp
 926:	0000002b          	0x2b
 92a:	3c24                	fld	fs1,120(s0)
 92c:	0001                	nop
 92e:	1b80                	addi	s0,sp,496
 930:	000a                	0xa
 932:	3f00                	fld	fs0,56(a4)
 934:	0009                	c.addi	zero,2
 936:	2500                	fld	fs0,8(a0)
 938:	5a01                	li	s4,-32
 93a:	066c9103          	lh	sp,102(s9)
 93e:	2400                	fld	fs0,8(s0)
 940:	0150                	addi	a2,sp,132
 942:	8000                	0x8000
 944:	0a26                	slli	s4,s4,0x9
 946:	0000                	unimp
 948:	095f 0000 0125      	0x1250000095f
 94e:	015a                	slli	sp,sp,0x16
 950:	2531                	jal	f5c <_data-0x1f0a4>
 952:	5b01                	li	s6,-32
 954:	066c9103          	lh	sp,102(s9)
 958:	0125                	addi	sp,sp,9
 95a:	025c                	addi	a5,sp,260
 95c:	0078                	addi	a4,sp,12
 95e:	2600                	fld	fs0,8(a2)
 960:	015c                	addi	a5,sp,132
 962:	8000                	0x8000
 964:	0a31                	addi	s4,s4,12
 966:	0000                	unimp
 968:	0125                	addi	sp,sp,9
 96a:	015a                	slli	sp,sp,0x16
 96c:	0031                	c.addi	zero,12
 96e:	2100                	fld	fs0,0(a0)
 970:	000017bf 01702a01 	0x1702a01000017bf
 978:	8000                	0x8000
 97a:	0020                	addi	s0,sp,8
 97c:	0000                	unimp
 97e:	9c01                	0x9c01
 980:	09d5                	addi	s3,s3,21
 982:	0000                	unimp
 984:	6d22                	flw	fs10,8(sp)
 986:	01006773          	csrrsi	a4,0x10,0
 98a:	9a2a                	add	s4,s4,a0
 98c:	0005                	c.addi	zero,1
 98e:	3e00                	fld	fs0,56(a2)
 990:	0000                	unimp
 992:	2700                	fld	fs0,8(a4)
 994:	09d5                	addi	s3,s3,21
 996:	0000                	unimp
 998:	0178                	addi	a4,sp,140
 99a:	8000                	0x8000
 99c:	0004                	0x4
 99e:	0000                	unimp
 9a0:	2c01                	jal	bb0 <_data-0x1f450>
 9a2:	09c1                	addi	s3,s3,16
 9a4:	0000                	unimp
 9a6:	e128                	fsw	fa0,64(a0)
 9a8:	0009                	c.addi	zero,2
 9aa:	5f00                	lw	s0,56(a4)
 9ac:	0000                	unimp
 9ae:	2600                	fld	fs0,8(a2)
 9b0:	017c                	addi	a5,sp,140
 9b2:	8000                	0x8000
 9b4:	000008fb          	0x8fb
 9b8:	0125                	addi	sp,sp,9
 9ba:	035a                	slli	t1,t1,0x16
 9bc:	005a01f3          	0x5a01f3
 9c0:	2900                	fld	fs0,16(a0)
 9c2:	0190                	addi	a2,sp,192
 9c4:	8000                	0x8000
 9c6:	000008fb          	0x8fb
 9ca:	0125                	addi	sp,sp,9
 9cc:	055a                	slli	a0,a0,0x16
 9ce:	0012ac03          	lw	s8,1(t0) # fffe9001 <__EH_FRAME_BEGIN__+0x7ffe7d59>
 9d2:	0080                	addi	s0,sp,64
 9d4:	2a00                	fld	fs0,16(a2)
 9d6:	00000dab          	0xdab
 9da:	2301                	jal	eda <_data-0x1f126>
 9dc:	ed01                	bnez	a0,9f4 <_data-0x1f60c>
 9de:	0009                	c.addi	zero,2
 9e0:	2b00                	fld	fs0,16(a4)
 9e2:	736d                	lui	t1,0xffffb
 9e4:	23010067          	jr	560(sp) # 5c0984 <__global_pointer$+0x59f954>
 9e8:	0594                	addi	a3,sp,704
 9ea:	0000                	unimp
 9ec:	2c00                	fld	fs0,24(s0)
 9ee:	09d5                	addi	s3,s3,21
 9f0:	0000                	unimp
 9f2:	016c                	addi	a1,sp,140
 9f4:	8000                	0x8000
 9f6:	0004                	0x4
 9f8:	0000                	unimp
 9fa:	9c01                	0x9c01
 9fc:	00000a1b          	0xa1b
 a00:	e128                	fsw	fa0,64(a0)
 a02:	0009                	c.addi	zero,2
 a04:	8000                	0x8000
 a06:	0000                	unimp
 a08:	2900                	fld	fs0,16(a0)
 a0a:	0170                	addi	a2,sp,140
 a0c:	8000                	0x8000
 a0e:	000008fb          	0x8fb
 a12:	0125                	addi	sp,sp,9
 a14:	035a                	slli	t1,t1,0x16
 a16:	005a01f3          	0x5a01f3
 a1a:	2d00                	fld	fs0,24(a0)
 a1c:	7165                	addi	sp,sp,-400
 a1e:	0000                	unimp
 a20:	7165                	addi	sp,sp,-400
 a22:	0000                	unimp
 a24:	2509                	jal	1026 <_data-0x1efda>
 a26:	9a2d                	andi	a2,a2,-21
 a28:	9a000003          	lb	zero,-1632(zero) # fffff9a0 <__EH_FRAME_BEGIN__+0x7fffe6f8>
 a2c:	08000003          	lb	zero,128(zero) # 80 <_data-0x1ff80>
 a30:	463c2ddb          	0x463c2ddb
 a34:	0000                	unimp
 a36:	463c                	lw	a5,72(a2)
 a38:	0000                	unimp
 a3a:	1208                	addi	a0,sp,288
 a3c:	a400                	fsd	fs0,8(s0)
 a3e:	0000                	unimp
 a40:	0400                	addi	s0,sp,512
 a42:	5900                	lw	s0,48(a0)
 a44:	0002                	0x2
 a46:	0400                	addi	s0,sp,512
 a48:	d701                	beqz	a4,950 <_data-0x1f6b0>
 a4a:	0032                	0x32
 a4c:	0c00                	addi	s0,sp,528
 a4e:	8319                	srli	a4,a4,0x6
 a50:	0000                	unimp
 a52:	2169                	jal	edc <_data-0x1f124>
	...
 a5c:	0000                	unimp
 a5e:	03a6                	slli	t2,t2,0x9
 a60:	0000                	unimp
 a62:	00001fd7          	0x1fd7
 a66:	0102                	slli	sp,sp,0x0
 a68:	7806                	flw	fa6,96(sp)
 a6a:	0006                	0x6
 a6c:	0200                	addi	s0,sp,256
 a6e:	0801                	addi	a6,a6,0
 a70:	4a9c                	lw	a5,16(a3)
 a72:	0000                	unimp
 a74:	0202                	slli	tp,tp,0x0
 a76:	0a05                	addi	s4,s4,1
 a78:	02000007          	0x2000007
 a7c:	0702                	slli	a4,a4,0x0
 a7e:	0000591b          	0x591b
 a82:	0402                	slli	s0,s0,0x0
 a84:	2805                	jal	ab4 <_data-0x1f54c>
 a86:	0080                	addi	s0,sp,64
 a88:	0200                	addi	s0,sp,256
 a8a:	0704                	addi	s1,sp,896
 a8c:	163a                	slli	a2,a2,0x2e
 a8e:	0000                	unimp
 a90:	0802                	slli	a6,a6,0x0
 a92:	9005                	srli	s0,s0,0x21
 a94:	0041                	c.addi	zero,16
 a96:	0200                	addi	s0,sp,256
 a98:	0708                	addi	a0,sp,896
 a9a:	82fd                	srli	a3,a3,0x1f
 a9c:	0000                	unimp
 a9e:	69050403          	lb	s0,1680(a0) # fffe1690 <__EH_FRAME_BEGIN__+0x7ffe03e8>
 aa2:	746e                	flw	fs0,248(sp)
 aa4:	0200                	addi	s0,sp,256
 aa6:	0704                	addi	s1,sp,896
 aa8:	1d86                	slli	s11,s11,0x21
 aaa:	0000                	unimp
 aac:	1404                	addi	s1,sp,544
 aae:	01000083          	lb	ra,16(zero) # 10 <_data-0x1fff0>
 ab2:	00006117          	auipc	sp,0x6
 ab6:	8400                	0x8400
 ab8:	0012                	0x12
 aba:	2480                	fld	fs0,8(s1)
 abc:	0000                	unimp
 abe:	0100                	addi	s0,sp,128
 ac0:	9c9c                	0x9c9c
 ac2:	0000                	unimp
 ac4:	0500                	addi	s0,sp,640
 ac6:	1298                	addi	a4,sp,352
 ac8:	8000                	0x8000
 aca:	009c                	addi	a5,sp,64
 acc:	0000                	unimp
 ace:	0106                	slli	sp,sp,0x1
 ad0:	055a                	slli	a0,a0,0x16
 ad2:	0012b003          	0x12b003
 ad6:	0080                	addi	s0,sp,64
 ad8:	0700                	addi	s0,sp,896
 ada:	000017bf 000017bf 	0x17bf000017bf
 ae2:	0d02                	slli	s10,s10,0x0
	...

Disassembly of section .debug_abbrev:

00000000 <.debug_abbrev>:
   0:	1101                	addi	sp,sp,-32
   2:	2501                	jal	602 <_data-0x1f9fe>
   4:	130e                	slli	t1,t1,0x23
   6:	1b0e030b          	0x1b0e030b
   a:	110e                	slli	sp,sp,0x23
   c:	1201                	addi	tp,tp,-32
   e:	1006                	0x1006
  10:	17429917          	auipc	s2,0x17429
  14:	0000                	unimp
  16:	2402                	fld	fs0,0(sp)
  18:	0b00                	addi	s0,sp,400
  1a:	030b3e0b          	0x30b3e0b
  1e:	000e                	0xe
  20:	0300                	addi	s0,sp,384
  22:	0024                	addi	s1,sp,8
  24:	0b3e0b0b          	0xb3e0b0b
  28:	00000803          	lb	a6,0(zero) # 0 <_data-0x20000>
  2c:	1604                	addi	s1,sp,800
  2e:	0300                	addi	s0,sp,384
  30:	3a0e                	fld	fs4,224(sp)
  32:	490b3b0b          	0x490b3b0b
  36:	05000013          	li	zero,80
  3a:	0016                	0x16
  3c:	0b3a0e03          	lb	t3,179(s4) # 10b3 <_data-0x1ef4d>
  40:	1349053b          	0x1349053b
  44:	0000                	unimp
  46:	1706                	slli	a4,a4,0x21
  48:	0b01                	addi	s6,s6,0
  4a:	3b0b3a0b          	0x3b0b3a0b
  4e:	0013010b          	0x13010b
  52:	0700                	addi	s0,sp,896
  54:	000d                	c.addi	zero,3
  56:	0b3a0e03          	lb	t3,179(s4)
  5a:	13490b3b          	0x13490b3b
  5e:	0000                	unimp
  60:	0108                	addi	a0,sp,128
  62:	4901                	li	s2,0
  64:	00130113          	addi	sp,t1,1 # ffffb001 <__EH_FRAME_BEGIN__+0x7fff9d59>
  68:	0900                	addi	s0,sp,144
  6a:	0021                	c.addi	zero,8
  6c:	1349                	addi	t1,t1,-14
  6e:	00000b2f          	0xb2f
  72:	130a                	slli	t1,t1,0x22
  74:	0b01                	addi	s6,s6,0
  76:	3b0b3a0b          	0x3b0b3a0b
  7a:	0013010b          	0x13010b
  7e:	0b00                	addi	s0,sp,400
  80:	000d                	c.addi	zero,3
  82:	0b3a0e03          	lb	t3,179(s4)
  86:	13490b3b          	0x13490b3b
  8a:	0b38                	addi	a4,sp,408
  8c:	0000                	unimp
  8e:	0f0c                	addi	a1,sp,912
  90:	0b00                	addi	s0,sp,400
  92:	0d00000b          	0xd00000b
  96:	0e030113          	addi	sp,t1,224
  9a:	0b3a0b0b          	0xb3a0b0b
  9e:	13010b3b          	0x13010b3b
  a2:	0000                	unimp
  a4:	0d0e                	slli	s10,s10,0x3
  a6:	0300                	addi	s0,sp,384
  a8:	3a08                	fld	fa0,48(a2)
  aa:	490b3b0b          	0x490b3b0b
  ae:	000b3813          	sltiu	a6,s6,0
  b2:	0f00                	addi	s0,sp,912
  b4:	0b0b000f          	0xb0b000f
  b8:	1349                	addi	t1,t1,-14
  ba:	0000                	unimp
  bc:	1310                	addi	a2,sp,416
  be:	0301                	addi	t1,t1,0
  c0:	0b0e                	slli	s6,s6,0x3
  c2:	3a05                	jal	fffff9f2 <__EH_FRAME_BEGIN__+0x7fffe74a>
  c4:	010b3b0b          	0x10b3b0b
  c8:	11000013          	li	zero,272
  cc:	000d                	c.addi	zero,3
  ce:	0b3a0e03          	lb	t3,179(s4)
  d2:	13490b3b          	0x13490b3b
  d6:	0538                	addi	a4,sp,648
  d8:	0000                	unimp
  da:	1512                	slli	a0,a0,0x24
  dc:	2700                	fld	fs0,8(a4)
  de:	0019                	c.addi	zero,6
  e0:	1300                	addi	s0,sp,416
  e2:	0115                	addi	sp,sp,5
  e4:	13491927          	0x13491927
  e8:	1301                	addi	t1,t1,-32
  ea:	0000                	unimp
  ec:	0514                	addi	a3,sp,640
  ee:	4900                	lw	s0,16(a0)
  f0:	15000013          	li	zero,336
  f4:	0026                	0x26
  f6:	1349                	addi	t1,t1,-14
  f8:	0000                	unimp
  fa:	1316                	slli	t1,t1,0x25
  fc:	0301                	addi	t1,t1,0
  fe:	0b0e                	slli	s6,s6,0x3
 100:	3a05                	jal	fffffa30 <__EH_FRAME_BEGIN__+0x7fffe788>
 102:	01053b0b          	0x1053b0b
 106:	17000013          	li	zero,368
 10a:	000d                	c.addi	zero,3
 10c:	0b3a0e03          	lb	t3,179(s4)
 110:	1349053b          	0x1349053b
 114:	0b38                	addi	a4,sp,408
 116:	0000                	unimp
 118:	0d18                	addi	a4,sp,656
 11a:	0300                	addi	s0,sp,384
 11c:	3a0e                	fld	fs4,224(sp)
 11e:	49053b0b          	0x49053b0b
 122:	00053813          	sltiu	a6,a0,0
 126:	1900                	addi	s0,sp,176
 128:	0e030113          	addi	sp,t1,224
 12c:	0b3a0b0b          	0xb3a0b0b
 130:	1301053b          	0x1301053b
 134:	0000                	unimp
 136:	131a                	slli	t1,t1,0x26
 138:	0b01                	addi	s6,s6,0
 13a:	3b0b3a0b          	0x3b0b3a0b
 13e:	0105                	addi	sp,sp,1
 140:	1b000013          	li	zero,432
 144:	0b0b0117          	auipc	sp,0xb0b0
 148:	0b3a                	slli	s6,s6,0xe
 14a:	1301053b          	0x1301053b
 14e:	0000                	unimp
 150:	0d1c                	addi	a5,sp,656
 152:	0300                	addi	s0,sp,384
 154:	3a0e                	fld	fs4,224(sp)
 156:	49053b0b          	0x49053b0b
 15a:	1d000013          	li	zero,464
 15e:	0e030013          	addi	zero,t1,224
 162:	193c                	addi	a5,sp,184
 164:	0000                	unimp
 166:	151e                	slli	a0,a0,0x27
 168:	2701                	jal	868 <_data-0x1f798>
 16a:	0119                	addi	sp,sp,6
 16c:	1f000013          	li	zero,496
 170:	0034                	addi	a3,sp,8
 172:	0b3a0e03          	lb	t3,179(s4)
 176:	1349053b          	0x1349053b
 17a:	193c193f 34200000 	0x34200000193c193f
 182:	0300                	addi	s0,sp,384
 184:	3a0e                	fld	fs4,224(sp)
 186:	490b3b0b          	0x490b3b0b
 18a:	3c193f13          	sltiu	t5,s2,961
 18e:	0019                	c.addi	zero,6
 190:	2100                	fld	fs0,0(a0)
 192:	012e                	slli	sp,sp,0xb
 194:	0e03193f 0b3b0b3a 	0xb3b0b3a0e03193f
 19c:	01111927          	0x1111927
 1a0:	0612                	slli	a2,a2,0x4
 1a2:	1840                	addi	s0,sp,52
 1a4:	01194297          	auipc	t0,0x1194
 1a8:	22000013          	li	zero,544
 1ac:	0005                	c.addi	zero,1
 1ae:	0b3a0803          	lb	a6,179(s4)
 1b2:	13490b3b          	0x13490b3b
 1b6:	1702                	slli	a4,a4,0x20
 1b8:	0000                	unimp
 1ba:	03003423          	0x3003423
 1be:	3a08                	fld	fa0,48(a2)
 1c0:	490b3b0b          	0x490b3b0b
 1c4:	00170213          	addi	tp,a4,1 # fffe1001 <__EH_FRAME_BEGIN__+0x7ffdfd59>
 1c8:	2400                	fld	fs0,8(s0)
 1ca:	8289                	srli	a3,a3,0x2
 1cc:	0101                	addi	sp,sp,0
 1ce:	0111                	addi	sp,sp,4
 1d0:	1331                	addi	t1,t1,-20
 1d2:	1301                	addi	t1,t1,-32
 1d4:	0000                	unimp
 1d6:	8a25                	andi	a2,a2,9
 1d8:	0182                	slli	gp,gp,0x0
 1da:	0200                	addi	s0,sp,256
 1dc:	9118                	0x9118
 1de:	1842                	slli	a6,a6,0x30
 1e0:	0000                	unimp
 1e2:	8926                	mv	s2,s1
 1e4:	0182                	slli	gp,gp,0x0
 1e6:	1101                	addi	sp,sp,-32
 1e8:	3101                	jal	fffffde8 <__EH_FRAME_BEGIN__+0x7fffeb40>
 1ea:	27000013          	li	zero,624
 1ee:	011d                	addi	sp,sp,7
 1f0:	1331                	addi	t1,t1,-20
 1f2:	0111                	addi	sp,sp,4
 1f4:	0612                	slli	a2,a2,0x4
 1f6:	0b58                	addi	a4,sp,404
 1f8:	0b59                	addi	s6,s6,22
 1fa:	1301                	addi	t1,t1,-32
 1fc:	0000                	unimp
 1fe:	0528                	addi	a0,sp,648
 200:	3100                	fld	fs0,32(a0)
 202:	00170213          	addi	tp,a4,1
 206:	2900                	fld	fs0,16(a0)
 208:	8289                	srli	a3,a3,0x2
 20a:	0101                	addi	sp,sp,0
 20c:	0111                	addi	sp,sp,4
 20e:	4295                	li	t0,5
 210:	3119                	jal	fffffe16 <__EH_FRAME_BEGIN__+0x7fffeb6e>
 212:	2a000013          	li	zero,672
 216:	012e                	slli	sp,sp,0xb
 218:	0e03193f 0b3b0b3a 	0xb3b0b3a0e03193f
 220:	0b201927          	0xb201927
 224:	1301                	addi	t1,t1,-32
 226:	0000                	unimp
 228:	0300052b          	0x300052b
 22c:	3a08                	fld	fa0,48(a2)
 22e:	490b3b0b          	0x490b3b0b
 232:	2c000013          	li	zero,704
 236:	012e                	slli	sp,sp,0xb
 238:	1331                	addi	t1,t1,-20
 23a:	0111                	addi	sp,sp,4
 23c:	0612                	slli	a2,a2,0x4
 23e:	1840                	addi	s0,sp,52
 240:	01194297          	auipc	t0,0x1194
 244:	2d000013          	li	zero,720
 248:	002e                	0x2e
 24a:	193c193f 0e030e6e 	0xe030e6e193c193f
 252:	0b3a                	slli	s6,s6,0xe
 254:	00000b3b          	0xb3b
 258:	0100                	addi	s0,sp,128
 25a:	0111                	addi	sp,sp,4
 25c:	0e25                	addi	t3,t3,9
 25e:	0e030b13          	addi	s6,t1,224
 262:	17550e1b          	0x17550e1b
 266:	0111                	addi	sp,sp,4
 268:	1710                	addi	a2,sp,928
 26a:	4299                	li	t0,6
 26c:	02000017          	auipc	zero,0x2000
 270:	0024                	addi	s1,sp,8
 272:	0b3e0b0b          	0xb3e0b0b
 276:	00000e03          	lb	t3,0(zero) # 200026c <__global_pointer$+0x1fdf23c>
 27a:	0b002403          	lw	s0,176(zero) # b0 <_data-0x1ff50>
 27e:	030b3e0b          	0x30b3e0b
 282:	0008                	0x8
 284:	0400                	addi	s0,sp,512
 286:	012e                	slli	sp,sp,0xb
 288:	0e03193f 0b3b0b3a 	0xb3b0b3a0e03193f
 290:	1349                	addi	t1,t1,-14
 292:	0111                	addi	sp,sp,4
 294:	0612                	slli	a2,a2,0x4
 296:	1840                	addi	s0,sp,52
 298:	01194297          	auipc	t0,0x1194
 29c:	05000013          	li	zero,80
 2a0:	8289                	srli	a3,a3,0x2
 2a2:	0101                	addi	sp,sp,0
 2a4:	0111                	addi	sp,sp,4
 2a6:	1331                	addi	t1,t1,-20
 2a8:	0000                	unimp
 2aa:	8a06                	mv	s4,ra
 2ac:	0182                	slli	gp,gp,0x0
 2ae:	0200                	addi	s0,sp,256
 2b0:	9118                	0x9118
 2b2:	1842                	slli	a6,a6,0x30
 2b4:	0000                	unimp
 2b6:	3f002e07          	flw	ft8,1008(zero) # 3f0 <_data-0x1fc10>
 2ba:	3c19                	jal	fffffcd0 <__EH_FRAME_BEGIN__+0x7fffea28>
 2bc:	6e19                	lui	t3,0x6
 2be:	030e                	slli	t1,t1,0x3
 2c0:	3a0e                	fld	fs4,224(sp)
 2c2:	000b3b0b          	0xb3b0b
	...

Disassembly of section .debug_loc:

00000000 <.debug_loc>:
   0:	0000                	unimp
   2:	0000                	unimp
   4:	00000013          	nop
   8:	0001                	nop
   a:	135a                	slli	t1,t1,0x36
   c:	0000                	unimp
   e:	4000                	lw	s0,0(s0)
  10:	0000                	unimp
  12:	0200                	addi	s0,sp,256
  14:	9100                	0x9100
  16:	406c                	lw	a1,68(s0)
  18:	0000                	unimp
  1a:	4400                	lw	s0,8(s0)
  1c:	0000                	unimp
  1e:	0200                	addi	s0,sp,256
  20:	7200                	flw	fs0,32(a2)
  22:	006c                	addi	a1,sp,12
  24:	0000                	unimp
  26:	0000                	unimp
  28:	0000                	unimp
  2a:	1c00                	addi	s0,sp,560
  2c:	0000                	unimp
  2e:	3c00                	fld	fs0,56(s0)
  30:	0000                	unimp
  32:	0100                	addi	s0,sp,128
  34:	5800                	lw	s0,48(s0)
	...
  3e:	0048                	addi	a0,sp,4
  40:	0000                	unimp
  42:	00000053          	fadd.s	ft0,ft0,ft0,rne
  46:	0001                	nop
  48:	535a                	lw	t1,180(sp)
  4a:	0000                	unimp
  4c:	6800                	flw	fs0,16(s0)
  4e:	0000                	unimp
  50:	0400                	addi	s0,sp,512
  52:	f300                	fsw	fs0,32(a4)
  54:	5a01                	li	s4,-32
  56:	009f 0000 0000      	0x9f
  5c:	0000                	unimp
  5e:	4800                	lw	s0,16(s0)
  60:	0000                	unimp
  62:	5300                	lw	s0,32(a4)
  64:	0000                	unimp
  66:	0100                	addi	s0,sp,128
  68:	5a00                	lw	s0,48(a2)
  6a:	00000053          	fadd.s	ft0,ft0,ft0,rne
  6e:	0054                	addi	a3,sp,4
  70:	0000                	unimp
  72:	0004                	0x4
  74:	9f5a01f3          	0x9f5a01f3
	...
  80:	0044                	addi	s1,sp,4
  82:	0000                	unimp
  84:	00000047          	fmsub.s	ft0,ft0,ft0,ft0,rne
  88:	0001                	nop
  8a:	475a                	lw	a4,148(sp)
  8c:	0000                	unimp
  8e:	4800                	lw	s0,16(s0)
  90:	0000                	unimp
  92:	0400                	addi	s0,sp,512
  94:	f300                	fsw	fs0,32(a4)
  96:	5a01                	li	s4,-32
  98:	009f 0000 0000      	0x9f
  9e:	0000                	unimp
	...

Disassembly of section .debug_aranges:

00000000 <.debug_aranges>:
   0:	001c                	0x1c
   2:	0000                	unimp
   4:	0002                	0x2
   6:	0000                	unimp
   8:	0000                	unimp
   a:	0004                	0x4
   c:	0000                	unimp
   e:	0000                	unimp
  10:	0128                	addi	a0,sp,136
  12:	8000                	0x8000
  14:	0068                	addi	a0,sp,12
	...
  1e:	0000                	unimp
  20:	001c                	0x1c
  22:	0000                	unimp
  24:	0002                	0x2
  26:	0a3d                	addi	s4,s4,15
  28:	0000                	unimp
  2a:	0004                	0x4
  2c:	0000                	unimp
  2e:	0000                	unimp
  30:	1284                	addi	s1,sp,352
  32:	8000                	0x8000
  34:	0024                	addi	s1,sp,8
	...

Disassembly of section .debug_macro:

00000000 <.debug_macro>:
       0:	0004                	0x4
       2:	0002                	0x2
       4:	0000                	unimp
       6:	0700                	addi	s0,sp,896
       8:	023a                	slli	tp,tp,0xe
       a:	0000                	unimp
       c:	03010003          	lb	zero,48(sp) # b0b0174 <__global_pointer$+0xb08f144>
      10:	0a18                	addi	a4,sp,272
      12:	1b05                	addi	s6,s6,-31
      14:	5d08                	lw	a0,56(a0)
      16:	0000                	unimp
      18:	050b1d03          	lh	s10,80(s6) # 4a355a <__global_pointer$+0x48252a>
      1c:	5b0d                	li	s6,-29
      1e:	0060                	addi	s0,sp,12
      20:	0300                	addi	s0,sp,384
      22:	08050c0f          	0x8050c0f
      26:	00000fb3          	add	t6,zero,zero
      2a:	070d0e03          	lb	t3,112(s10) # 40b84c <__global_pointer$+0x3ea81c>
      2e:	09b2                	slli	s3,s3,0xc
      30:	0000                	unimp
      32:	0704                	addi	s1,sp,896
      34:	09d4                	addi	a3,sp,212
      36:	0000                	unimp
      38:	0304                	addi	s1,sp,384
      3a:	0e10                	addi	a2,sp,784
      3c:	0205                	addi	tp,tp,1
      3e:	6e7f                	0x6e7f
      40:	0000                	unimp
      42:	050f0403          	lb	s0,80(t5) # 4767d8 <__global_pointer$+0x4557a8>
      46:	01ae                	slli	gp,gp,0xb
      48:	00004c97          	auipc	s9,0x4
      4c:	0304                	addi	s1,sp,384
      4e:	1005                	c.addi	zero,-31
      50:	000a1a07          	0xa1a07
      54:	0400                	addi	s0,sp,512
      56:	000aa707          	flw	fa4,0(s5)
      5a:	0400                	addi	s0,sp,512
      5c:	000adb07          	0xadb07
      60:	0400                	addi	s0,sp,512
      62:	000b7707          	0xb7707
      66:	0300                	addi	s0,sp,384
      68:	29051123          	sh	a6,642(a0)
      6c:	727e                	flw	ft4,252(sp)
      6e:	0000                	unimp
      70:	07122b03          	lw	s6,113(tp) # fffe1071 <__EH_FRAME_BEGIN__+0x7ffdfdc9>
      74:	0b8d                	addi	s7,s7,3
      76:	0000                	unimp
      78:	0304                	addi	s1,sp,384
      7a:	042d                	addi	s0,s0,11
      7c:	000be407          	0xbe407
      80:	0400                	addi	s0,sp,512
      82:	000c7b07          	0xc7b07
      86:	0400                	addi	s0,sp,512
      88:	07042403          	lw	s0,112(s0) # 75790 <__global_pointer$+0x54760>
      8c:	0f88                	addi	a0,sp,976
      8e:	0000                	unimp
      90:	0504                	addi	s1,sp,640
      92:	000a6d27          	0xa6d27
      96:	0300                	addi	s0,sp,384
      98:	1328                	addi	a0,sp,424
      9a:	00108507          	0x108507
      9e:	0400                	addi	s0,sp,512
      a0:	2f05                	jal	7d0 <_data-0x1f830>
      a2:	00002c6f          	jal	s8,20a2 <_data-0x1df5e>
      a6:	05053c03          	0x5053c03
      aa:	0047c60b          	0x47c60b
      ae:	0300                	addi	s0,sp,384
      b0:	0b0d                	addi	s6,s6,3
      b2:	0304                	addi	s1,sp,384
      b4:	040e                	slli	s0,s0,0x3
      b6:	0304                	addi	s1,sp,384
      b8:	1405030f          	0x1405030f
      bc:	2c60                	fld	fs0,216(s0)
      be:	0000                	unimp
      c0:	05141803          	lh	a6,81(s0)
      c4:	5306                	lw	t1,96(sp)
      c6:	0072                	0x72
      c8:	0400                	addi	s0,sp,512
      ca:	07021903          	lh	s2,112(tp) # 70 <_data-0x1ff90>
      ce:	1095                	addi	ra,ra,-27
      d0:	0000                	unimp
      d2:	0704                	addi	s1,sp,896
      d4:	000010e7          	0x10e7
      d8:	04019f03          	lh	t5,64(gp) # 19040 <_data-0x6fc0>
      dc:	00110607          	0x110607
      e0:	0400                	addi	s0,sp,512
      e2:	00114907          	flq	fs2,1(sp)
      e6:	0400                	addi	s0,sp,512
      e8:	00116907          	0x116907
      ec:	0400                	addi	s0,sp,512
      ee:	07063d03          	0x7063d03
      f2:	12f0                	addi	a2,sp,364
      f4:	0000                	unimp
      f6:	04043e03          	0x4043e03
      fa:	07154003          	lbu	zero,113(a0)
      fe:	1300                	addi	s0,sp,416
     100:	0000                	unimp
     102:	0304                	addi	s1,sp,384
     104:	02051643          	fmadd.d	fa2,fa0,ft0,ft0,rtz
     108:	6650                	flw	fa2,12(a2)
     10a:	0000                	unimp
     10c:	07170603          	lb	a2,113(a4)
     110:	136a                	slli	t1,t1,0x3a
     112:	0000                	unimp
     114:	0704                	addi	s1,sp,896
     116:	1386                	slli	t2,t2,0x21
     118:	0000                	unimp
     11a:	0304                	addi	s1,sp,384
     11c:	1844                	addi	s1,sp,52
     11e:	0d05                	addi	s10,s10,1
     120:	4079                	0x4079
     122:	0000                	unimp
     124:	05191903          	lh	s2,81(s2) # 17429061 <__global_pointer$+0x17408031>
     128:	00648f27          	0x648f27
     12c:	0400                	addi	s0,sp,512
     12e:	071a1a03          	lh	s4,113(s4)
     132:	13d8                	addi	a4,sp,484
     134:	0000                	unimp
     136:	0304                	addi	s1,sp,384
     138:	23051b1b          	0x23051b1b
     13c:	0cf6                	slli	s9,s9,0x1d
     13e:	0000                	unimp
     140:	051c2603          	lw	a2,81(s8) # 1051 <_data-0x1efaf>
     144:	004a2823          	sw	tp,16(s4)
     148:	0400                	addi	s0,sp,512
     14a:	00141807          	0x141807
     14e:	0400                	addi	s0,sp,512
     150:	00142807          	flw	fa6,1(s0)
     154:	0400                	addi	s0,sp,512
     156:	00146807          	0x146807
     15a:	0300                	addi	s0,sp,384
     15c:	051d01ef          	jal	gp,d09ac <__global_pointer$+0xaf97c>
     160:	007ea413          	slti	s0,t4,7
     164:	0300                	addi	s0,sp,384
     166:	3f071e17          	auipc	t3,0x3f071
     16a:	0015                	c.addi	zero,5
     16c:	0400                	addi	s0,sp,512
     16e:	00155b07          	0x155b07
     172:	0400                	addi	s0,sp,512
     174:	1f01f003          	0x1f01f003
     178:	0604                	addi	s1,sp,768
     17a:	01f4                	addi	a3,sp,204
     17c:	5b9a                	lw	s7,164(sp)
     17e:	0000                	unimp
     180:	0504                	addi	s1,sp,640
     182:	0021be43          	fmadd.s	ft8,ft3,ft2,ft0,rup
     186:	0300                	addi	s0,sp,384
     188:	9807204f          	fnmadd.s	ft0,fa4,ft0,fs3,rdn
     18c:	0015                	c.addi	zero,5
     18e:	0400                	addi	s0,sp,512
     190:	0015ae07          	flw	ft8,1(a1)
     194:	0400                	addi	s0,sp,512
     196:	05071903          	lh	s2,80(a4)
     19a:	e208                	fsw	fa0,0(a2)
     19c:	0061                	c.addi	zero,24
     19e:	0300                	addi	s0,sp,384
     1a0:	0f0a                	slli	t5,t5,0x2
     1a2:	0704                	addi	s1,sp,896
     1a4:	1739                	addi	a4,a4,-18
     1a6:	0000                	unimp
     1a8:	07041003          	lh	zero,112(s0)
     1ac:	0000174f          	fnmadd.s	fa4,ft0,ft0,ft0,rtz
     1b0:	0304                	addi	s1,sp,384
     1b2:	2114                	fld	fa3,0(a0)
     1b4:	0205                	addi	tp,tp,1
     1b6:	000022af          	amoadd.w	t0,zero,(zero)
     1ba:	0304                	addi	s1,sp,384
     1bc:	2216                	fld	ft4,320(sp)
     1be:	00178407          	0x178407
     1c2:	0400                	addi	s0,sp,512
     1c4:	00179a07          	0x179a07
     1c8:	0400                	addi	s0,sp,512
     1ca:	05231a03          	lh	s4,82(t1)
     1ce:	5502                	lw	a0,32(sp)
     1d0:	0031                	c.addi	zero,12
     1d2:	0300                	addi	s0,sp,384
     1d4:	0804                	addi	s1,sp,16
     1d6:	0017c307          	flq	ft6,1(a5)
     1da:	0300                	addi	s0,sp,384
     1dc:	040e                	slli	s0,s0,0x3
     1de:	00174f07          	flq	ft10,1(a4)
     1e2:	0400                	addi	s0,sp,512
     1e4:	0017d907          	0x17d907
     1e8:	0400                	addi	s0,sp,512
     1ea:	0304                	addi	s1,sp,384
     1ec:	f307091b          	0xf307091b
     1f0:	001c                	0x1c
     1f2:	0300                	addi	s0,sp,384
     1f4:	0411                	addi	s0,s0,4
     1f6:	00174f07          	flq	ft10,1(a4)
     1fa:	0400                	addi	s0,sp,512
     1fc:	05241403          	lh	s0,82(s0)
     200:	8804                	0x8804
     202:	0015                	c.addi	zero,5
     204:	0400                	addi	s0,sp,512
     206:	2501c003          	lbu	zero,592(gp) # 21280 <__global_pointer$+0x250>
     20a:	0205                	addi	tp,tp,1
     20c:	3706                	fld	fa4,96(sp)
     20e:	0000                	unimp
     210:	0404                	addi	s1,sp,512
     212:	03261d03          	lh	s10,50(a2) # 1032 <_data-0x1efce>
     216:	2709                	jal	918 <_data-0x1f6e8>
     218:	0a05                	addi	s4,s4,1
     21a:	25d0                	fld	fa2,136(a1)
     21c:	0000                	unimp
     21e:	07280d03          	lb	s10,114(a6) # 2072 <_data-0x1df8e>
     222:	1d09                	addi	s10,s10,-30
     224:	0000                	unimp
     226:	0704                	addi	s1,sp,896
     228:	1df8                	addi	a4,sp,764
     22a:	0000                	unimp
     22c:	0504                	addi	s1,sp,640
     22e:	c70d                	beqz	a4,258 <_data-0x1fda8>
     230:	0025                	c.addi	zero,9
     232:	0400                	addi	s0,sp,512
     234:	04291e03          	lh	t3,66(s2)
     238:	0004                	0x4
     23a:	0004                	0x4
     23c:	0500                	addi	s0,sp,640
     23e:	6c00                	flw	fs0,24(s0)
     240:	0071                	c.addi	zero,28
     242:	0500                	addi	s0,sp,640
     244:	2100                	fld	fs0,0(a0)
     246:	0032                	0x32
     248:	0500                	addi	s0,sp,640
     24a:	bb00                	fsd	fs0,48(a4)
     24c:	0006                	0x6
     24e:	0500                	addi	s0,sp,640
     250:	a400                	fsd	fs0,8(s0)
     252:	001d                	c.addi	zero,7
     254:	0500                	addi	s0,sp,640
     256:	ff00                	fsw	fs0,56(a4)
     258:	0008                	0x8
     25a:	0500                	addi	s0,sp,640
     25c:	8600                	0x8600
     25e:	0035                	c.addi	zero,13
     260:	0500                	addi	s0,sp,640
     262:	4a00                	lw	s0,16(a2)
     264:	0060                	addi	s0,sp,12
     266:	0500                	addi	s0,sp,640
     268:	ff00                	fsw	fs0,56(a4)
     26a:	001a                	0x1a
     26c:	0500                	addi	s0,sp,640
     26e:	7800                	flw	fs0,48(s0)
     270:	004d                	c.addi	zero,19
     272:	0500                	addi	s0,sp,640
     274:	ee00                	fsw	fs0,24(a2)
     276:	006a                	0x6a
     278:	0500                	addi	s0,sp,640
     27a:	f900                	fsw	fs0,48(a0)
     27c:	001e                	0x1e
     27e:	0500                	addi	s0,sp,640
     280:	c400                	sw	s0,8(s0)
     282:	0032                	0x32
     284:	0500                	addi	s0,sp,640
     286:	2c00                	fld	fs0,24(s0)
     288:	0039                	c.addi	zero,14
     28a:	0500                	addi	s0,sp,640
     28c:	f700                	fsw	fs0,40(a4)
     28e:	007f                	0x7f
     290:	0500                	addi	s0,sp,640
     292:	1b00                	addi	s0,sp,432
     294:	05000003          	lb	zero,80(zero) # 50 <_data-0x1ffb0>
     298:	1000                	addi	s0,sp,32
     29a:	0031                	c.addi	zero,12
     29c:	0500                	addi	s0,sp,640
     29e:	0d00                	addi	s0,sp,656
     2a0:	003a                	0x3a
     2a2:	0500                	addi	s0,sp,640
     2a4:	ca00                	sw	s0,16(a2)
     2a6:	0059                	c.addi	zero,22
     2a8:	0500                	addi	s0,sp,640
     2aa:	9c00                	0x9c00
     2ac:	0076                	0x76
     2ae:	0500                	addi	s0,sp,640
     2b0:	1e00                	addi	s0,sp,816
     2b2:	001d                	c.addi	zero,7
     2b4:	0500                	addi	s0,sp,640
     2b6:	5c00                	lw	s0,56(s0)
     2b8:	0004                	0x4
     2ba:	0500                	addi	s0,sp,640
     2bc:	e100                	fsw	fs0,0(a0)
     2be:	0021                	c.addi	zero,8
     2c0:	0500                	addi	s0,sp,640
     2c2:	0300                	addi	s0,sp,384
     2c4:	006d                	c.addi	zero,27
     2c6:	0500                	addi	s0,sp,640
     2c8:	6600                	flw	fs0,8(a2)
     2ca:	05000017          	auipc	zero,0x5000
     2ce:	ca00                	sw	s0,16(a2)
     2d0:	0072                	0x72
     2d2:	0500                	addi	s0,sp,640
     2d4:	a000                	fsd	fs0,0(s0)
     2d6:	0064                	addi	s1,sp,12
     2d8:	0500                	addi	s0,sp,640
     2da:	f100                	fsw	fs0,32(a0)
     2dc:	0041                	c.addi	zero,16
     2de:	0500                	addi	s0,sp,640
     2e0:	c300                	sw	s0,0(a4)
     2e2:	007d                	c.addi	zero,31
     2e4:	0500                	addi	s0,sp,640
     2e6:	b500                	fsd	fs0,40(a0)
     2e8:	0056                	0x56
     2ea:	0500                	addi	s0,sp,640
     2ec:	0800                	addi	s0,sp,16
     2ee:	000d                	c.addi	zero,3
     2f0:	0500                	addi	s0,sp,640
     2f2:	c000                	sw	s0,0(s0)
     2f4:	0005                	c.addi	zero,1
     2f6:	0500                	addi	s0,sp,640
     2f8:	1700                	addi	s0,sp,928
     2fa:	0044                	addi	s1,sp,4
     2fc:	0500                	addi	s0,sp,640
     2fe:	6000                	flw	fs0,0(s0)
     300:	004a                	0x4a
     302:	0500                	addi	s0,sp,640
     304:	5500                	lw	s0,40(a0)
     306:	0014                	0x14
     308:	0500                	addi	s0,sp,640
     30a:	da00                	sw	s0,48(a2)
     30c:	0005                	c.addi	zero,1
     30e:	0500                	addi	s0,sp,640
     310:	d300                	sw	s0,32(a4)
     312:	05000057          	0x5000057
     316:	5500                	lw	s0,40(a0)
     318:	0044                	addi	s1,sp,4
     31a:	0500                	addi	s0,sp,640
     31c:	c700                	sw	s0,8(a4)
     31e:	0045                	c.addi	zero,17
     320:	0500                	addi	s0,sp,640
     322:	1600                	addi	s0,sp,800
     324:	0061                	c.addi	zero,24
     326:	0500                	addi	s0,sp,640
     328:	9800                	0x9800
     32a:	0015                	c.addi	zero,5
     32c:	0500                	addi	s0,sp,640
     32e:	0b00                	addi	s0,sp,400
     330:	0059                	c.addi	zero,22
     332:	0500                	addi	s0,sp,640
     334:	2a00                	fld	fs0,16(a2)
     336:	0016                	0x16
     338:	0500                	addi	s0,sp,640
     33a:	9700                	0x9700
     33c:	005e                	0x5e
     33e:	0500                	addi	s0,sp,640
     340:	6a00                	flw	fs0,16(a2)
     342:	0006                	0x6
     344:	0500                	addi	s0,sp,640
     346:	fb00                	fsw	fs0,48(a4)
     348:	0006                	0x6
     34a:	0500                	addi	s0,sp,640
     34c:	1900                	addi	s0,sp,176
     34e:	0080                	addi	s0,sp,64
     350:	0500                	addi	s0,sp,640
     352:	8100                	0x8100
     354:	0041                	c.addi	zero,16
     356:	0500                	addi	s0,sp,640
     358:	8d00                	0x8d00
     35a:	004a                	0x4a
     35c:	0500                	addi	s0,sp,640
     35e:	9100                	0x9100
     360:	0035                	c.addi	zero,13
     362:	0500                	addi	s0,sp,640
     364:	7c00                	flw	fs0,56(s0)
     366:	05000073          	0x5000073
     36a:	ed00                	fsw	fs0,24(a0)
     36c:	0082                	slli	ra,ra,0x0
     36e:	0500                	addi	s0,sp,640
     370:	6a00                	flw	fs0,16(a2)
     372:	0014                	0x14
     374:	0500                	addi	s0,sp,640
     376:	cb00                	sw	s0,16(a4)
     378:	0079                	c.addi	zero,30
     37a:	0500                	addi	s0,sp,640
     37c:	c300                	sw	s0,0(a4)
     37e:	0055                	c.addi	zero,21
     380:	0500                	addi	s0,sp,640
     382:	3f00                	fld	fs0,56(a4)
     384:	0500000f          	fence	ow,unknown
     388:	4600                	lw	s0,8(a2)
     38a:	0012                	0x12
     38c:	0500                	addi	s0,sp,640
     38e:	be00                	fsd	fs0,56(a2)
     390:	0058                	addi	a4,sp,4
     392:	0500                	addi	s0,sp,640
     394:	6900                	flw	fs0,16(a0)
     396:	0060                	addi	s0,sp,12
     398:	0500                	addi	s0,sp,640
     39a:	2c00                	fld	fs0,24(s0)
     39c:	0038                	addi	a4,sp,8
     39e:	0500                	addi	s0,sp,640
     3a0:	a300                	fsd	fs0,0(a4)
     3a2:	05000013          	li	zero,80
     3a6:	8900                	0x8900
     3a8:	0058                	addi	a4,sp,4
     3aa:	0500                	addi	s0,sp,640
     3ac:	bc00                	fsd	fs0,56(s0)
     3ae:	0039                	c.addi	zero,14
     3b0:	0500                	addi	s0,sp,640
     3b2:	9200                	0x9200
     3b4:	0009                	c.addi	zero,2
     3b6:	0500                	addi	s0,sp,640
     3b8:	c500                	sw	s0,8(a0)
     3ba:	0036                	0x36
     3bc:	0500                	addi	s0,sp,640
     3be:	4100                	lw	s0,0(a0)
     3c0:	0078                	addi	a4,sp,12
     3c2:	0500                	addi	s0,sp,640
     3c4:	7100                	flw	fs0,32(a0)
     3c6:	001d                	c.addi	zero,7
     3c8:	0500                	addi	s0,sp,640
     3ca:	2e00                	fld	fs0,24(a2)
     3cc:	0024                	addi	s1,sp,8
     3ce:	0500                	addi	s0,sp,640
     3d0:	7b00                	flw	fs0,48(a4)
     3d2:	05000063          	beq	zero,a6,412 <_data-0x1fbee>
     3d6:	8f00                	0x8f00
     3d8:	05000063          	beq	zero,a6,418 <_data-0x1fbe8>
     3dc:	8600                	0x8600
     3de:	05000033          	0x5000033
     3e2:	c200                	sw	s0,0(a2)
     3e4:	0029                	c.addi	zero,10
     3e6:	0500                	addi	s0,sp,640
     3e8:	2a00                	fld	fs0,16(a2)
     3ea:	0028                	addi	a0,sp,8
     3ec:	0500                	addi	s0,sp,640
     3ee:	3b00                	fld	fs0,48(a4)
     3f0:	0048                	addi	a0,sp,4
     3f2:	0500                	addi	s0,sp,640
     3f4:	6e00                	flw	fs0,24(a2)
     3f6:	05000057          	0x5000057
     3fa:	d600                	sw	s0,40(a2)
     3fc:	0082                	slli	ra,ra,0x0
     3fe:	0500                	addi	s0,sp,640
     400:	e500                	fsw	fs0,8(a0)
     402:	007c                	addi	a5,sp,12
     404:	0500                	addi	s0,sp,640
     406:	b800                	fsd	fs0,48(s0)
     408:	0050                	addi	a2,sp,4
     40a:	0500                	addi	s0,sp,640
     40c:	b400                	fsd	fs0,40(s0)
     40e:	005f 0500 9900      	0x99000500005f
     414:	002c                	addi	a1,sp,8
     416:	0500                	addi	s0,sp,640
     418:	f900                	fsw	fs0,48(a0)
     41a:	05000057          	0x5000057
     41e:	dd00                	sw	s0,56(a0)
     420:	0078                	addi	a4,sp,12
     422:	0500                	addi	s0,sp,640
     424:	de00                	sw	s0,56(a2)
     426:	0001                	nop
     428:	0500                	addi	s0,sp,640
     42a:	6200                	flw	fs0,0(a2)
     42c:	007c                	addi	a5,sp,12
     42e:	0500                	addi	s0,sp,640
     430:	a100                	fsd	fs0,0(a0)
     432:	0500000f          	fence	ow,unknown
     436:	6c00                	flw	fs0,24(s0)
     438:	0500004b          	0x500004b
     43c:	2000                	fld	fs0,0(s0)
     43e:	0500006f          	j	48e <_data-0x1fb72>
     442:	9900                	0x9900
     444:	003c                	addi	a5,sp,8
     446:	0500                	addi	s0,sp,640
     448:	4900                	lw	s0,16(a0)
     44a:	0500003f 007e5200 	0x7e52000500003f
     452:	0500                	addi	s0,sp,640
     454:	6f00                	flw	fs0,24(a4)
     456:	0041                	c.addi	zero,16
     458:	0500                	addi	s0,sp,640
     45a:	4e00                	lw	s0,24(a2)
     45c:	000e                	0xe
     45e:	0500                	addi	s0,sp,640
     460:	9b00                	0x9b00
     462:	0078                	addi	a4,sp,12
     464:	0500                	addi	s0,sp,640
     466:	3500                	fld	fs0,40(a0)
     468:	0002                	0x2
     46a:	0500                	addi	s0,sp,640
     46c:	1200                	addi	s0,sp,288
     46e:	0002                	0x2
     470:	0500                	addi	s0,sp,640
     472:	3800                	fld	fs0,48(s0)
     474:	0082                	slli	ra,ra,0x0
     476:	0500                	addi	s0,sp,640
     478:	3d00                	fld	fs0,56(a0)
     47a:	0014                	0x14
     47c:	0500                	addi	s0,sp,640
     47e:	9200                	0x9200
     480:	0005                	c.addi	zero,1
     482:	0500                	addi	s0,sp,640
     484:	b800                	fsd	fs0,48(s0)
     486:	0500006b          	0x500006b
     48a:	cd00                	sw	s0,24(a0)
     48c:	002d                	c.addi	zero,11
     48e:	0500                	addi	s0,sp,640
     490:	3b00                	fld	fs0,48(a4)
     492:	0070                	addi	a2,sp,12
     494:	0500                	addi	s0,sp,640
     496:	c700                	sw	s0,8(a4)
     498:	0034                	addi	a3,sp,8
     49a:	0500                	addi	s0,sp,640
     49c:	6a00                	flw	fs0,16(a2)
     49e:	006e                	0x6e
     4a0:	0500                	addi	s0,sp,640
     4a2:	2b00                	fld	fs0,16(a4)
     4a4:	05000037          	lui	zero,0x5000
     4a8:	0600                	addi	s0,sp,768
     4aa:	0500003b          	0x500003b
     4ae:	cc00                	sw	s0,24(s0)
     4b0:	0026                	0x26
     4b2:	0500                	addi	s0,sp,640
     4b4:	a700                	fsd	fs0,8(a4)
     4b6:	0020                	addi	s0,sp,8
     4b8:	0500                	addi	s0,sp,640
     4ba:	0c00                	addi	s0,sp,528
     4bc:	0036                	0x36
     4be:	0500                	addi	s0,sp,640
     4c0:	8a00                	0x8a00
     4c2:	0031                	c.addi	zero,12
     4c4:	0500                	addi	s0,sp,640
     4c6:	7400                	flw	fs0,40(s0)
     4c8:	0032                	0x32
     4ca:	0500                	addi	s0,sp,640
     4cc:	ed00                	fsw	fs0,24(a0)
     4ce:	0051                	c.addi	zero,20
     4d0:	0500                	addi	s0,sp,640
     4d2:	8800                	0x8800
     4d4:	0079                	c.addi	zero,30
     4d6:	0500                	addi	s0,sp,640
     4d8:	4100                	lw	s0,0(a0)
     4da:	0028                	addi	a0,sp,8
     4dc:	0500                	addi	s0,sp,640
     4de:	bb00                	fsd	fs0,48(a4)
     4e0:	007e                	0x7e
     4e2:	0500                	addi	s0,sp,640
     4e4:	d000                	sw	s0,32(s0)
     4e6:	0500002f          	0x500002f
     4ea:	0f00                	addi	s0,sp,912
     4ec:	0019                	c.addi	zero,6
     4ee:	0500                	addi	s0,sp,640
     4f0:	db00                	sw	s0,48(a4)
     4f2:	0025                	c.addi	zero,9
     4f4:	0500                	addi	s0,sp,640
     4f6:	7a00                	flw	fs0,48(a2)
     4f8:	05000017          	auipc	zero,0x5000
     4fc:	3300                	fld	fs0,32(a4)
     4fe:	0500004b          	0x500004b
     502:	0f00                	addi	s0,sp,912
     504:	0065                	c.addi	zero,25
     506:	0500                	addi	s0,sp,640
     508:	5500                	lw	s0,40(a0)
     50a:	0034                	addi	a3,sp,8
     50c:	0500                	addi	s0,sp,640
     50e:	e800                	fsw	fs0,16(s0)
     510:	0500005b          	0x500005b
     514:	ec00                	fsw	fs0,24(s0)
     516:	0006                	0x6
     518:	0500                	addi	s0,sp,640
     51a:	cf00                	sw	s0,24(a4)
     51c:	0500001b          	0x500001b
     520:	7b00                	flw	fs0,48(a4)
     522:	0069                	c.addi	zero,26
     524:	0500                	addi	s0,sp,640
     526:	d600                	sw	s0,40(a2)
     528:	05000033          	0x5000033
     52c:	2a00                	fld	fs0,16(a2)
     52e:	002a                	0x2a
     530:	0500                	addi	s0,sp,640
     532:	f600                	fsw	fs0,40(a2)
     534:	0055                	c.addi	zero,21
     536:	0500                	addi	s0,sp,640
     538:	7500                	flw	fs0,40(a0)
     53a:	0055                	c.addi	zero,21
     53c:	0500                	addi	s0,sp,640
     53e:	ee00                	fsw	fs0,24(a2)
     540:	0071                	c.addi	zero,28
     542:	0500                	addi	s0,sp,640
     544:	4e00                	lw	s0,24(a2)
     546:	0048                	addi	a0,sp,4
     548:	0500                	addi	s0,sp,640
     54a:	e100                	fsw	fs0,0(a0)
     54c:	0059                	c.addi	zero,22
     54e:	0500                	addi	s0,sp,640
     550:	c200                	sw	s0,0(a2)
     552:	0500000f          	fence	ow,unknown
     556:	db00                	sw	s0,48(a4)
     558:	001e                	0x1e
     55a:	0500                	addi	s0,sp,640
     55c:	6600                	flw	fs0,8(a2)
     55e:	0072                	0x72
     560:	0500                	addi	s0,sp,640
     562:	f000                	fsw	fs0,32(s0)
     564:	0012                	0x12
     566:	0500                	addi	s0,sp,640
     568:	5700                	lw	s0,40(a4)
     56a:	000c                	0xc
     56c:	0500                	addi	s0,sp,640
     56e:	c900                	sw	s0,16(a0)
     570:	000e                	0xe
     572:	0500                	addi	s0,sp,640
     574:	6300                	flw	fs0,0(a4)
     576:	0010                	0x10
     578:	0500                	addi	s0,sp,640
     57a:	b200                	fsd	fs0,32(a2)
     57c:	0016                	0x16
     57e:	0500                	addi	s0,sp,640
     580:	3b00                	fld	fs0,48(a4)
     582:	0056                	0x56
     584:	0500                	addi	s0,sp,640
     586:	4300                	lw	s0,0(a4)
     588:	0010                	0x10
     58a:	0500                	addi	s0,sp,640
     58c:	0e00                	addi	s0,sp,784
     58e:	0040                	addi	s0,sp,4
     590:	0500                	addi	s0,sp,640
     592:	cf00                	sw	s0,24(a4)
     594:	005a                	0x5a
     596:	0500                	addi	s0,sp,640
     598:	9200                	0x9200
     59a:	0049                	c.addi	zero,18
     59c:	0500                	addi	s0,sp,640
     59e:	6e00                	flw	fs0,24(a2)
     5a0:	0035                	c.addi	zero,13
     5a2:	0500                	addi	s0,sp,640
     5a4:	d500                	sw	s0,40(a0)
     5a6:	05000047          	0x5000047
     5aa:	5200                	lw	s0,32(a2)
     5ac:	0036                	0x36
     5ae:	0500                	addi	s0,sp,640
     5b0:	e900                	fsw	fs0,16(a0)
     5b2:	0500002f          	0x500002f
     5b6:	0300                	addi	s0,sp,384
     5b8:	003e                	0x3e
     5ba:	0500                	addi	s0,sp,640
     5bc:	7900                	flw	fs0,48(a0)
     5be:	0039                	c.addi	zero,14
     5c0:	0500                	addi	s0,sp,640
     5c2:	6100                	flw	fs0,0(a0)
     5c4:	05000047          	0x5000047
     5c8:	3e00                	fld	fs0,56(a2)
     5ca:	0044                	addi	s1,sp,4
     5cc:	0500                	addi	s0,sp,640
     5ce:	9a00                	0x9a00
     5d0:	0018                	0x18
     5d2:	0500                	addi	s0,sp,640
     5d4:	db00                	sw	s0,48(a4)
     5d6:	0016                	0x16
     5d8:	0500                	addi	s0,sp,640
     5da:	1400                	addi	s0,sp,544
     5dc:	001e                	0x1e
     5de:	0500                	addi	s0,sp,640
     5e0:	ec00                	fsw	fs0,24(s0)
     5e2:	0018                	0x18
     5e4:	0500                	addi	s0,sp,640
     5e6:	0400                	addi	s0,sp,512
     5e8:	0048                	addi	a0,sp,4
     5ea:	0500                	addi	s0,sp,640
     5ec:	5100                	lw	s0,32(a0)
     5ee:	0079                	c.addi	zero,30
     5f0:	0500                	addi	s0,sp,640
     5f2:	f400                	fsw	fs0,40(s0)
     5f4:	0026                	0x26
     5f6:	0500                	addi	s0,sp,640
     5f8:	7300                	flw	fs0,32(a4)
     5fa:	000e                	0xe
     5fc:	0500                	addi	s0,sp,640
     5fe:	7300                	flw	fs0,32(a4)
     600:	003d                	c.addi	zero,15
     602:	0500                	addi	s0,sp,640
     604:	6e00                	flw	fs0,24(a2)
     606:	0034                	addi	a3,sp,8
     608:	0500                	addi	s0,sp,640
     60a:	e700                	fsw	fs0,8(a4)
     60c:	001a                	0x1a
     60e:	0500                	addi	s0,sp,640
     610:	c200                	sw	s0,0(a2)
     612:	002e                	0x2e
     614:	0500                	addi	s0,sp,640
     616:	5e00                	lw	s0,56(a2)
     618:	0082                	slli	ra,ra,0x0
     61a:	0500                	addi	s0,sp,640
     61c:	3000                	fld	fs0,32(s0)
     61e:	0064                	addi	s1,sp,12
     620:	0500                	addi	s0,sp,640
     622:	0c00                	addi	s0,sp,528
     624:	05000053          	0x5000053
     628:	dc00                	sw	s0,56(s0)
     62a:	000c                	0xc
     62c:	0500                	addi	s0,sp,640
     62e:	0900                	addi	s0,sp,144
     630:	0039                	c.addi	zero,14
     632:	0500                	addi	s0,sp,640
     634:	8000                	0x8000
     636:	0004                	0x4
     638:	0500                	addi	s0,sp,640
     63a:	5000                	lw	s0,32(s0)
     63c:	006d                	c.addi	zero,27
     63e:	0500                	addi	s0,sp,640
     640:	0700                	addi	s0,sp,896
     642:	0500002f          	0x500002f
     646:	0d00                	addi	s0,sp,656
     648:	005f 0500 0000      	0x500005f
     64e:	004e                	0x4e
     650:	0500                	addi	s0,sp,640
     652:	6000                	flw	fs0,0(s0)
     654:	0062                	0x62
     656:	0500                	addi	s0,sp,640
     658:	bb00                	fsd	fs0,48(a4)
     65a:	05000027          	0x5000027
     65e:	6400                	flw	fs0,8(s0)
     660:	0500006b          	0x500006b
     664:	ee00                	fsw	fs0,24(a2)
     666:	0061                	c.addi	zero,24
     668:	0500                	addi	s0,sp,640
     66a:	2a00                	fld	fs0,16(a2)
     66c:	0006                	0x6
     66e:	0500                	addi	s0,sp,640
     670:	8a00                	0x8a00
     672:	0500004f          	0x500004f
     676:	8000                	0x8000
     678:	0081                	addi	ra,ra,0
     67a:	0500                	addi	s0,sp,640
     67c:	bb00                	fsd	fs0,48(a4)
     67e:	001f 0500 9100      	0x91000500001f
     684:	0060                	addi	s0,sp,12
     686:	0500                	addi	s0,sp,640
     688:	a700                	fsd	fs0,8(a4)
     68a:	0021                	c.addi	zero,8
     68c:	0500                	addi	s0,sp,640
     68e:	a600                	fsd	fs0,8(a2)
     690:	05000017          	auipc	zero,0x5000
     694:	a300                	fsd	fs0,0(a4)
     696:	0008                	0x8
     698:	0500                	addi	s0,sp,640
     69a:	d600                	sw	s0,40(a2)
     69c:	0035                	c.addi	zero,13
     69e:	0500                	addi	s0,sp,640
     6a0:	c600                	sw	s0,8(a2)
     6a2:	004a                	0x4a
     6a4:	0500                	addi	s0,sp,640
     6a6:	0700                	addi	s0,sp,896
     6a8:	0078                	addi	a4,sp,12
     6aa:	0500                	addi	s0,sp,640
     6ac:	7300                	flw	fs0,32(a4)
     6ae:	0036                	0x36
     6b0:	0500                	addi	s0,sp,640
     6b2:	c900                	sw	s0,16(a0)
     6b4:	0015                	c.addi	zero,5
     6b6:	0500                	addi	s0,sp,640
     6b8:	c900                	sw	s0,16(a0)
     6ba:	0054                	addi	a3,sp,4
     6bc:	0500                	addi	s0,sp,640
     6be:	f800                	fsw	fs0,48(s0)
     6c0:	002c                	addi	a1,sp,8
     6c2:	0500                	addi	s0,sp,640
     6c4:	fc00                	fsw	fs0,56(s0)
     6c6:	003e                	0x3e
     6c8:	0500                	addi	s0,sp,640
     6ca:	de00                	sw	s0,56(a2)
     6cc:	05000037          	lui	zero,0x5000
     6d0:	c500                	sw	s0,8(a0)
     6d2:	05000053          	0x5000053
     6d6:	6400                	flw	fs0,8(s0)
     6d8:	0500000b          	0x500000b
     6dc:	5800                	lw	s0,48(s0)
     6de:	004e                	0x4e
     6e0:	0500                	addi	s0,sp,640
     6e2:	5b00                	lw	s0,48(a4)
     6e4:	0015                	c.addi	zero,5
     6e6:	0500                	addi	s0,sp,640
     6e8:	b100                	fsd	fs0,32(a0)
     6ea:	000e                	0xe
     6ec:	0500                	addi	s0,sp,640
     6ee:	9300                	0x9300
     6f0:	0006                	0x6
     6f2:	0500                	addi	s0,sp,640
     6f4:	5800                	lw	s0,48(s0)
     6f6:	0052                	0x52
     6f8:	0500                	addi	s0,sp,640
     6fa:	f900                	fsw	fs0,48(a0)
     6fc:	0009                	c.addi	zero,2
     6fe:	0500                	addi	s0,sp,640
     700:	b600                	fsd	fs0,40(a2)
     702:	001d                	c.addi	zero,7
     704:	0500                	addi	s0,sp,640
     706:	c800                	sw	s0,16(s0)
     708:	0019                	c.addi	zero,6
     70a:	0500                	addi	s0,sp,640
     70c:	0b00                	addi	s0,sp,400
     70e:	0072                	0x72
     710:	0500                	addi	s0,sp,640
     712:	1f00                	addi	s0,sp,944
     714:	003e                	0x3e
     716:	0500                	addi	s0,sp,640
     718:	bc00                	fsd	fs0,56(s0)
     71a:	002c                	addi	a1,sp,8
     71c:	0500                	addi	s0,sp,640
     71e:	d600                	sw	s0,40(a2)
     720:	0500006b          	0x500006b
     724:	1100                	addi	s0,sp,160
     726:	0079                	c.addi	zero,30
     728:	0500                	addi	s0,sp,640
     72a:	0800                	addi	s0,sp,16
     72c:	000e                	0xe
     72e:	0500                	addi	s0,sp,640
     730:	0d00                	addi	s0,sp,656
     732:	000c                	0xc
     734:	0500                	addi	s0,sp,640
     736:	c600                	sw	s0,8(a2)
     738:	0040                	addi	s0,sp,4
     73a:	0500                	addi	s0,sp,640
     73c:	0500                	addi	s0,sp,640
     73e:	001d                	c.addi	zero,7
     740:	0500                	addi	s0,sp,640
     742:	b700                	fsd	fs0,40(a4)
     744:	0002                	0x2
     746:	0500                	addi	s0,sp,640
     748:	2000                	fld	fs0,0(s0)
     74a:	0074                	addi	a3,sp,12
     74c:	0500                	addi	s0,sp,640
     74e:	9400                	0x9400
     750:	003a                	0x3a
     752:	0500                	addi	s0,sp,640
     754:	3a00                	fld	fs0,48(a2)
     756:	0065                	c.addi	zero,25
     758:	0500                	addi	s0,sp,640
     75a:	b600                	fsd	fs0,40(a2)
     75c:	0500007b          	0x500007b
     760:	4a00                	lw	s0,16(a2)
     762:	05000047          	0x5000047
     766:	6a00                	flw	fs0,16(a2)
     768:	0001                	nop
     76a:	0500                	addi	s0,sp,640
     76c:	8500                	0x8500
     76e:	0046                	0x46
     770:	0500                	addi	s0,sp,640
     772:	a300                	fsd	fs0,0(a4)
     774:	0500006f          	j	7c4 <_data-0x1f83c>
     778:	e600                	fsw	fs0,8(a2)
     77a:	0036                	0x36
     77c:	0500                	addi	s0,sp,640
     77e:	eb00                	fsw	fs0,16(a4)
     780:	05000013          	li	zero,80
     784:	6200                	flw	fs0,0(a2)
     786:	0000                	unimp
     788:	0500                	addi	s0,sp,640
     78a:	af00                	fsd	fs0,24(a4)
     78c:	0028                	addi	a0,sp,8
     78e:	0500                	addi	s0,sp,640
     790:	2c00                	fld	fs0,24(s0)
     792:	0049                	c.addi	zero,18
     794:	0500                	addi	s0,sp,640
     796:	4500                	lw	s0,8(a0)
     798:	0001                	nop
     79a:	0500                	addi	s0,sp,640
     79c:	3d00                	fld	fs0,56(a0)
     79e:	05000073          	0x5000073
     7a2:	0d00                	addi	s0,sp,656
     7a4:	05000023          	sb	a6,64(zero) # 5000040 <__global_pointer$+0x4fdf010>
     7a8:	7100                	flw	fs0,32(a0)
     7aa:	0048                	addi	a0,sp,4
     7ac:	0500                	addi	s0,sp,640
     7ae:	0500                	addi	s0,sp,640
     7b0:	05000063          	beq	zero,a6,7f0 <_data-0x1f810>
     7b4:	4c00                	lw	s0,24(s0)
     7b6:	003c                	addi	a5,sp,8
     7b8:	0500                	addi	s0,sp,640
     7ba:	2100                	fld	fs0,0(a0)
     7bc:	0056                	0x56
     7be:	0500                	addi	s0,sp,640
     7c0:	b700                	fsd	fs0,40(a4)
     7c2:	000d                	c.addi	zero,3
     7c4:	0500                	addi	s0,sp,640
     7c6:	3b00                	fld	fs0,48(a4)
     7c8:	007e                	0x7e
     7ca:	0500                	addi	s0,sp,640
     7cc:	4800                	lw	s0,16(s0)
     7ce:	0059                	c.addi	zero,22
     7d0:	0500                	addi	s0,sp,640
     7d2:	ad00                	fsd	fs0,24(a0)
     7d4:	004c                	addi	a1,sp,4
     7d6:	0500                	addi	s0,sp,640
     7d8:	4600                	lw	s0,8(a2)
     7da:	0500003b          	0x500003b
     7de:	6e00                	flw	fs0,24(a2)
     7e0:	05000033          	0x5000033
     7e4:	6600                	flw	fs0,8(a2)
     7e6:	002d                	c.addi	zero,11
     7e8:	0500                	addi	s0,sp,640
     7ea:	1800                	addi	s0,sp,48
     7ec:	05000013          	li	zero,80
     7f0:	0c00                	addi	s0,sp,528
     7f2:	05000047          	0x5000047
     7f6:	2800                	fld	fs0,16(s0)
     7f8:	0055                	c.addi	zero,21
     7fa:	0500                	addi	s0,sp,640
     7fc:	3f00                	fld	fs0,56(a4)
     7fe:	0081                	addi	ra,ra,0
     800:	0500                	addi	s0,sp,640
     802:	c000                	sw	s0,0(s0)
     804:	001c                	0x1c
     806:	0500                	addi	s0,sp,640
     808:	6100                	flw	fs0,0(a0)
     80a:	0039                	c.addi	zero,14
     80c:	0500                	addi	s0,sp,640
     80e:	ad00                	fsd	fs0,24(a0)
     810:	0011                	c.addi	zero,4
     812:	0500                	addi	s0,sp,640
     814:	3c00                	fld	fs0,56(s0)
     816:	05000013          	li	zero,80
     81a:	7900                	flw	fs0,48(a0)
     81c:	0038                	addi	a4,sp,8
     81e:	0500                	addi	s0,sp,640
     820:	b400                	fsd	fs0,40(s0)
     822:	0044                	addi	s1,sp,4
     824:	0500                	addi	s0,sp,640
     826:	a900                	fsd	fs0,16(a0)
     828:	05000053          	0x5000053
     82c:	ee00                	fsw	fs0,24(a2)
     82e:	0035                	c.addi	zero,13
     830:	0500                	addi	s0,sp,640
     832:	bd00                	fsd	fs0,56(a0)
     834:	05000033          	0x5000033
     838:	8600                	0x8600
     83a:	0500000f          	fence	ow,unknown
     83e:	6f00                	flw	fs0,24(a4)
     840:	05000037          	lui	zero,0x5000
     844:	3300                	fld	fs0,32(a4)
     846:	0050                	addi	a2,sp,4
     848:	0500                	addi	s0,sp,640
     84a:	6000                	flw	fs0,0(s0)
     84c:	005f 0500 c400      	0xc4000500005f
     852:	05000003          	lb	zero,80(zero) # 5000050 <__global_pointer$+0x4fdf020>
     856:	c600                	sw	s0,8(a2)
     858:	0052                	0x52
     85a:	0500                	addi	s0,sp,640
     85c:	1700                	addi	s0,sp,928
     85e:	0015                	c.addi	zero,5
     860:	0500                	addi	s0,sp,640
     862:	a800                	fsd	fs0,16(s0)
     864:	002e                	0x2e
     866:	0500                	addi	s0,sp,640
     868:	a900                	fsd	fs0,16(a0)
     86a:	0051                	c.addi	zero,20
     86c:	0500                	addi	s0,sp,640
     86e:	b800                	fsd	fs0,48(s0)
     870:	004e                	0x4e
     872:	0500                	addi	s0,sp,640
     874:	3b00                	fld	fs0,48(a4)
     876:	0072                	0x72
     878:	0500                	addi	s0,sp,640
     87a:	3300                	fld	fs0,32(a4)
     87c:	0036                	0x36
     87e:	0500                	addi	s0,sp,640
     880:	7c00                	flw	fs0,56(s0)
     882:	0005                	c.addi	zero,1
     884:	0500                	addi	s0,sp,640
     886:	4a00                	lw	s0,16(a2)
     888:	002d                	c.addi	zero,11
     88a:	0500                	addi	s0,sp,640
     88c:	f200                	fsw	fs0,32(a2)
     88e:	000e                	0xe
     890:	0500                	addi	s0,sp,640
     892:	6900                	flw	fs0,16(a0)
     894:	0002                	0x2
     896:	0500                	addi	s0,sp,640
     898:	ff00                	fsw	fs0,56(a4)
     89a:	0056                	0x56
     89c:	0500                	addi	s0,sp,640
     89e:	4a00                	lw	s0,16(a2)
     8a0:	002e                	0x2e
     8a2:	0500                	addi	s0,sp,640
     8a4:	f500                	fsw	fs0,40(a0)
     8a6:	0005                	c.addi	zero,1
     8a8:	0500                	addi	s0,sp,640
     8aa:	2800                	fld	fs0,16(s0)
     8ac:	006d                	c.addi	zero,27
     8ae:	0500                	addi	s0,sp,640
     8b0:	4a00                	lw	s0,16(a2)
     8b2:	0018                	0x18
     8b4:	0500                	addi	s0,sp,640
     8b6:	2200                	fld	fs0,0(a2)
     8b8:	0079                	c.addi	zero,30
     8ba:	0500                	addi	s0,sp,640
     8bc:	6600                	flw	fs0,8(a2)
     8be:	0030                	addi	a2,sp,8
     8c0:	0500                	addi	s0,sp,640
     8c2:	f800                	fsw	fs0,48(s0)
     8c4:	0500004b          	0x500004b
     8c8:	8800                	0x8800
     8ca:	05000013          	li	zero,80
     8ce:	7500                	flw	fs0,40(a0)
     8d0:	001e                	0x1e
     8d2:	0500                	addi	s0,sp,640
     8d4:	f600                	fsw	fs0,40(a2)
     8d6:	0064                	addi	s1,sp,12
     8d8:	0500                	addi	s0,sp,640
     8da:	3b00                	fld	fs0,48(a4)
     8dc:	001e                	0x1e
     8de:	0500                	addi	s0,sp,640
     8e0:	8000                	0x8000
     8e2:	0000                	unimp
     8e4:	0500                	addi	s0,sp,640
     8e6:	eb00                	fsw	fs0,16(a4)
     8e8:	05000063          	beq	zero,a6,928 <_data-0x1f6d8>
     8ec:	d600                	sw	s0,40(a2)
     8ee:	05000063          	beq	zero,a6,92e <_data-0x1f6d2>
     8f2:	7300                	flw	fs0,32(a4)
     8f4:	0031                	c.addi	zero,12
     8f6:	0500                	addi	s0,sp,640
     8f8:	6300                	flw	fs0,0(a4)
     8fa:	0078                	addi	a4,sp,12
     8fc:	0500                	addi	s0,sp,640
     8fe:	e500                	fsw	fs0,8(a0)
     900:	0000                	unimp
     902:	0500                	addi	s0,sp,640
     904:	0300                	addi	s0,sp,384
     906:	0055                	c.addi	zero,21
     908:	0500                	addi	s0,sp,640
     90a:	ad00                	fsd	fs0,24(a0)
     90c:	0014                	0x14
     90e:	0500                	addi	s0,sp,640
     910:	c800                	sw	s0,16(s0)
     912:	004c                	addi	a1,sp,4
     914:	0500                	addi	s0,sp,640
     916:	d600                	sw	s0,40(a2)
     918:	0066                	0x66
     91a:	0500                	addi	s0,sp,640
     91c:	1500                	addi	s0,sp,672
     91e:	0500001b          	0x500001b
     922:	c400                	sw	s0,8(s0)
     924:	0000                	unimp
     926:	0500                	addi	s0,sp,640
     928:	9e00                	0x9e00
     92a:	0500002b          	0x500002b
     92e:	3400                	fld	fs0,40(s0)
     930:	0061                	c.addi	zero,24
     932:	0500                	addi	s0,sp,640
     934:	9e00                	0x9e00
     936:	003d                	c.addi	zero,15
     938:	0500                	addi	s0,sp,640
     93a:	ec00                	fsw	fs0,24(s0)
     93c:	0024                	addi	s1,sp,8
     93e:	0500                	addi	s0,sp,640
     940:	0e00                	addi	s0,sp,784
     942:	002c                	addi	a1,sp,8
     944:	0500                	addi	s0,sp,640
     946:	8c00                	0x8c00
     948:	0032                	0x32
     94a:	0500                	addi	s0,sp,640
     94c:	f000                	fsw	fs0,32(s0)
     94e:	0034                	addi	a3,sp,8
     950:	0500                	addi	s0,sp,640
     952:	4c00                	lw	s0,24(s0)
     954:	05000023          	sb	a6,64(zero) # 40 <_data-0x1ffc0>
     958:	0900                	addi	s0,sp,144
     95a:	0042                	0x42
     95c:	0500                	addi	s0,sp,640
     95e:	3800                	fld	fs0,48(s0)
     960:	0071                	c.addi	zero,28
     962:	0500                	addi	s0,sp,640
     964:	0400                	addi	s0,sp,512
     966:	004a                	0x4a
     968:	0500                	addi	s0,sp,640
     96a:	5800                	lw	s0,48(s0)
     96c:	0000                	unimp
     96e:	0500                	addi	s0,sp,640
     970:	4f00                	lw	s0,24(a4)
     972:	005f 0500 c100      	0xc1000500005f
     978:	0500001b          	0x500001b
     97c:	7d00                	flw	fs0,56(a0)
     97e:	0018                	0x18
     980:	0500                	addi	s0,sp,640
     982:	3c00                	fld	fs0,56(s0)
     984:	05000003          	lb	zero,80(zero) # 50 <_data-0x1ffb0>
     988:	7100                	flw	fs0,32(a0)
     98a:	005a                	0x5a
     98c:	0500                	addi	s0,sp,640
     98e:	5c00                	lw	s0,56(s0)
     990:	0500004b          	0x500004b
     994:	5900                	lw	s0,48(a0)
     996:	0025                	c.addi	zero,9
     998:	0500                	addi	s0,sp,640
     99a:	9f00                	0x9f00
     99c:	0079                	c.addi	zero,30
     99e:	0500                	addi	s0,sp,640
     9a0:	8800                	0x8800
     9a2:	0500006f          	j	9f2 <_data-0x1f60e>
     9a6:	f600                	fsw	fs0,40(a2)
     9a8:	0500003f 00013b00 	0x13b000500003f
     9b0:	0000                	unimp
     9b2:	0004                	0x4
     9b4:	0500                	addi	s0,sp,640
     9b6:	8804                	0x8804
     9b8:	003d                	c.addi	zero,15
     9ba:	0500                	addi	s0,sp,640
     9bc:	a006                	fsd	ft1,0(sp)
     9be:	0050                	addi	a2,sp,4
     9c0:	0500                	addi	s0,sp,640
     9c2:	00187007          	0x187007
     9c6:	0500                	addi	s0,sp,640
     9c8:	9308                	0x9308
     9ca:	05000017          	auipc	zero,0x5000
     9ce:	7309                	lui	t1,0xfffe2
     9d0:	0056                	0x56
     9d2:	0000                	unimp
     9d4:	0004                	0x4
     9d6:	0500                	addi	s0,sp,640
     9d8:	b412                	fsd	ft4,40(sp)
     9da:	005e                	0x5e
     9dc:	0500                	addi	s0,sp,640
     9de:	8c15                	sub	s0,s0,a3
     9e0:	0080                	addi	s0,sp,64
     9e2:	0500                	addi	s0,sp,640
     9e4:	002f771b          	0x2f771b
     9e8:	0500                	addi	s0,sp,640
     9ea:	fb28                	fsw	fa0,112(a4)
     9ec:	05000027          	0x5000027
     9f0:	2432                	fld	fs0,264(sp)
     9f2:	0065                	c.addi	zero,25
     9f4:	0500                	addi	s0,sp,640
     9f6:	1939                	addi	s2,s2,-18
     9f8:	001a                	0x1a
     9fa:	0500                	addi	s0,sp,640
     9fc:	3e3c                	fld	fa5,120(a2)
     9fe:	0041                	c.addi	zero,16
     a00:	0500                	addi	s0,sp,640
     a02:	7842                	flw	fa6,48(sp)
     a04:	05000047          	0x5000047
     a08:	df45                	beqz	a4,9c0 <_data-0x1f640>
     a0a:	0050                	addi	a2,sp,4
     a0c:	0500                	addi	s0,sp,640
     a0e:	c548                	sw	a0,12(a0)
     a10:	002a                	0x2a
     a12:	0500                	addi	s0,sp,640
     a14:	0071514b          	fnmsub.s	ft2,ft2,ft7,ft0,unknown
     a18:	0000                	unimp
     a1a:	0004                	0x4
     a1c:	0500                	addi	s0,sp,640
     a1e:	7416                	flw	fs0,100(sp)
     a20:	0022                	0x22
     a22:	0500                	addi	s0,sp,640
     a24:	2221                	jal	b2c <_data-0x1f4d4>
     a26:	0011                	c.addi	zero,4
     a28:	0500                	addi	s0,sp,640
     a2a:	5328                	lw	a0,96(a4)
     a2c:	0070                	addi	a2,sp,12
     a2e:	0600                	addi	s0,sp,768
     a30:	0180                	addi	s0,sp,192
     a32:	38d8                	fld	fa4,176(s1)
     a34:	0000                	unimp
     a36:	8105                	srli	a0,a0,0x1
     a38:	cc01                	beqz	s0,a50 <_data-0x1f5b0>
     a3a:	06000037          	lui	zero,0x6000
     a3e:	0185                	addi	gp,gp,1
     a40:	35b4                	fld	fa3,104(a1)
     a42:	0000                	unimp
     a44:	8605                	srai	a2,a2,0x1
     a46:	f701                	bnez	a4,94e <_data-0x1f6b2>
     a48:	06000077          	0x6000077
     a4c:	82280187          	0x82280187
     a50:	0000                	unimp
     a52:	8805                	andi	s0,s0,1
     a54:	7701                	lui	a4,0xfffe0
     a56:	0016                	0x16
     a58:	0600                	addi	s0,sp,768
     a5a:	31d6019b          	0x31d6019b
     a5e:	0000                	unimp
     a60:	9c05                	0x9c05
     a62:	d501                	beqz	a0,96a <_data-0x1f696>
     a64:	05000043          	0x5000043
     a68:	01f2                	slli	gp,gp,0x1c
     a6a:	4ce6                	lw	s9,88(sp)
     a6c:	0000                	unimp
     a6e:	f805                	bnez	s0,99e <_data-0x1f662>
     a70:	4a01                	li	s4,0
     a72:	0042                	0x42
     a74:	0500                	addi	s0,sp,640
     a76:	0280                	addi	s0,sp,320
     a78:	5812                	lw	a6,36(sp)
     a7a:	0000                	unimp
     a7c:	8505                	srai	a0,a0,0x1
     a7e:	7b02                	flw	fs6,32(sp)
     a80:	004e                	0x4e
     a82:	0500                	addi	s0,sp,640
     a84:	0290                	addi	a2,sp,320
     a86:	1834                	addi	a3,sp,56
     a88:	0000                	unimp
     a8a:	9405                	srai	s0,s0,0x21
     a8c:	9902                	jalr	s2
     a8e:	0054                	addi	a3,sp,4
     a90:	0500                	addi	s0,sp,640
     a92:	029a                	slli	t0,t0,0x6
     a94:	04ea                	slli	s1,s1,0x1a
     a96:	0000                	unimp
     a98:	aa05                	j	bc8 <_data-0x1f438>
     a9a:	3c02                	fld	fs8,32(sp)
     a9c:	0000                	unimp
     a9e:	0500                	addi	s0,sp,640
     aa0:	02ba                	slli	t0,t0,0xe
     aa2:	000006ab          	0x6ab
     aa6:	0400                	addi	s0,sp,512
     aa8:	0000                	unimp
     aaa:	4f05                	li	t5,1
     aac:	00006e2f          	0x6e2f
     ab0:	db05                	beqz	a4,9e0 <_data-0x1f620>
     ab2:	b601                	j	5b2 <_data-0x1fa4e>
     ab4:	004d                	c.addi	zero,19
     ab6:	0600                	addi	s0,sp,768
     ab8:	01e1                	addi	gp,gp,24
     aba:	000035cb          	fnmsub.s	fa1,ft0,ft0,ft0,rup
     abe:	e505                	bnez	a0,ae6 <_data-0x1f51a>
     ac0:	c901                	beqz	a0,ad0 <_data-0x1f530>
     ac2:	0500004f          	0x500004f
     ac6:	01f4                	addi	a3,sp,204
     ac8:	4b00                	lw	s0,16(a4)
     aca:	0000                	unimp
     acc:	f805                	bnez	s0,9fc <_data-0x1f604>
     ace:	1601                	addi	a2,a2,-32
     ad0:	004c                	addi	a1,sp,4
     ad2:	0500                	addi	s0,sp,640
     ad4:	0285                	addi	t0,t0,1
     ad6:	1749                	addi	a4,a4,-14
     ad8:	0000                	unimp
     ada:	0400                	addi	s0,sp,512
     adc:	0000                	unimp
     ade:	1705                	addi	a4,a4,-31
     ae0:	430c                	lw	a1,0(a4)
     ae2:	0000                	unimp
     ae4:	2c05                	jal	d14 <_data-0x1f2ec>
     ae6:	4d40                	lw	s0,28(a0)
     ae8:	0000                	unimp
     aea:	2d05                	jal	111a <_data-0x1eee6>
     aec:	29a8                	fld	fa0,80(a1)
     aee:	0000                	unimp
     af0:	2e05                	jal	e20 <_data-0x1f1e0>
     af2:	0ee8                	addi	a0,sp,860
     af4:	0000                	unimp
     af6:	3205                	jal	416 <_data-0x1fbea>
     af8:	7a85                	lui	s5,0xfffe1
     afa:	0000                	unimp
     afc:	3305                	jal	81c <_data-0x1f7e4>
     afe:	7ee1                	lui	t4,0xffff8
     b00:	0000                	unimp
     b02:	3405                	jal	522 <_data-0x1fade>
     b04:	00006017          	auipc	zero,0x6
     b08:	3505                	jal	928 <_data-0x1f6d8>
     b0a:	11a0                	addi	s0,sp,232
     b0c:	0000                	unimp
     b0e:	3605                	jal	62e <_data-0x1f9d2>
     b10:	21ce                	fld	ft3,208(sp)
     b12:	0000                	unimp
     b14:	3705                	jal	a34 <_data-0x1f5cc>
     b16:	285c                	fld	fa5,144(s0)
     b18:	0000                	unimp
     b1a:	3805                	jal	34a <_data-0x1fcb6>
     b1c:	000056f3          	csrrwi	a3,0x0,0
     b20:	3905                	jal	750 <_data-0x1f8b0>
     b22:	71be                	flw	ft3,236(sp)
     b24:	0000                	unimp
     b26:	4005                	0x4005
     b28:	48b2                	lw	a7,12(sp)
     b2a:	0000                	unimp
     b2c:	4105                	li	sp,1
     b2e:	00000c6f          	jal	s8,b2e <_data-0x1f4d2>
     b32:	4205                	li	tp,1
     b34:	81c5                	srli	a1,a1,0x11
     b36:	0000                	unimp
     b38:	4305                	li	t1,1
     b3a:	0000220f          	0x220f
     b3e:	4505                	li	a0,1
     b40:	00001c5b          	0x1c5b
     b44:	4605                	li	a2,1
     b46:	6698                	flw	fa4,8(a3)
     b48:	0000                	unimp
     b4a:	4705                	li	a4,1
     b4c:	00005e2b          	0x5e2b
     b50:	4905                	li	s2,1
     b52:	01f9                	addi	gp,gp,30
     b54:	0000                	unimp
     b56:	4c05                	li	s8,1
     b58:	1708                	addi	a0,sp,928
     b5a:	0000                	unimp
     b5c:	6505                	lui	a0,0x1
     b5e:	6b01                	0x6b01
     b60:	0000                	unimp
     b62:	7f05                	lui	t5,0xfffe1
     b64:	00000d4f          	fnmadd.s	fs10,ft0,ft0,ft0,rne
     b68:	8305                	srli	a4,a4,0x1
     b6a:	ba01                	j	47a <_data-0x1fb86>
     b6c:	05000013          	li	zero,80
     b70:	0184                	addi	s1,sp,192
     b72:	622a                	flw	ft4,136(sp)
     b74:	0000                	unimp
     b76:	0400                	addi	s0,sp,512
     b78:	0000                	unimp
     b7a:	1f05                	addi	t5,t5,-31
     b7c:	00004df7          	0x4df7
     b80:	2105                	jal	fa0 <_data-0x1f060>
     b82:	24c8                	fld	fa0,136(s1)
     b84:	0000                	unimp
     b86:	2205                	jal	ca6 <_data-0x1f35a>
     b88:	000037bf 00000400 	0x400000037bf
     b90:	0605                	addi	a2,a2,1
     b92:	4f42                	lw	t5,16(sp)
     b94:	0000                	unimp
     b96:	0f05                	addi	t5,t5,1
     b98:	4402                	lw	s0,0(sp)
     b9a:	0000                	unimp
     b9c:	1a05                	addi	s4,s4,-31
     b9e:	59ff                	0x59ff
     ba0:	0000                	unimp
     ba2:	2105                	jal	fc2 <_data-0x1f03e>
     ba4:	6d7e                	flw	fs10,220(sp)
     ba6:	0000                	unimp
     ba8:	2f05                	jal	12d8 <_data-0x1ed28>
     baa:	350c                	fld	fa1,40(a0)
     bac:	0000                	unimp
     bae:	3d05                	jal	9de <_data-0x1f622>
     bb0:	26df 0000 5305      	0x5305000026df
     bb6:	411a                	lw	sp,132(sp)
     bb8:	0000                	unimp
     bba:	6d05                	lui	s10,0x1
     bbc:	1502                	slli	a0,a0,0x20
     bbe:	0000                	unimp
     bc0:	8c05                	sub	s0,s0,s1
     bc2:	4001                	0x4001
     bc4:	004a                	0x4a
     bc6:	0500                	addi	s0,sp,640
     bc8:	01a6                	slli	gp,gp,0x9
     bca:	00001357          	0x1357
     bce:	bc05                	j	5fe <_data-0x1fa02>
     bd0:	2401                	jal	dd0 <_data-0x1f230>
     bd2:	0031                	c.addi	zero,12
     bd4:	0500                	addi	s0,sp,640
     bd6:	01ce                	slli	gp,gp,0x13
     bd8:	4354                	lw	a3,4(a4)
     bda:	0000                	unimp
     bdc:	f406                	fsw	ft1,40(sp)
     bde:	aa01                	j	cee <_data-0x1f312>
     be0:	0054                	addi	a3,sp,4
     be2:	0000                	unimp
     be4:	0004                	0x4
     be6:	0500                	addi	s0,sp,640
     be8:	27d001bb          	0x27d001bb
     bec:	0000                	unimp
     bee:	bc05                	j	61e <_data-0x1f9e2>
     bf0:	ed01                	bnez	a0,c08 <_data-0x1f3f8>
     bf2:	0009                	c.addi	zero,2
     bf4:	0500                	addi	s0,sp,640
     bf6:	01bd                	addi	gp,gp,15
     bf8:	7469                	lui	s0,0xffffa
     bfa:	0000                	unimp
     bfc:	be05                	j	72c <_data-0x1f8d4>
     bfe:	f001                	bnez	s0,afe <_data-0x1f502>
     c00:	0011                	c.addi	zero,4
     c02:	0500                	addi	s0,sp,640
     c04:	364801bf c0050000 	0xc0050000364801bf
     c0c:	d301                	beqz	a4,b0c <_data-0x1f4f4>
     c0e:	000c                	0xc
     c10:	0500                	addi	s0,sp,640
     c12:	01c1                	addi	gp,gp,16
     c14:	5324                	lw	s1,96(a4)
     c16:	0000                	unimp
     c18:	c205                	beqz	a2,c38 <_data-0x1f3c8>
     c1a:	cc01                	beqz	s0,c32 <_data-0x1f3ce>
     c1c:	005c                	addi	a5,sp,4
     c1e:	0500                	addi	s0,sp,640
     c20:	5cc801c3          	0x5cc801c3
     c24:	0000                	unimp
     c26:	c405                	beqz	s0,c4e <_data-0x1f3b2>
     c28:	5701                	li	a4,-32
     c2a:	001d                	c.addi	zero,7
     c2c:	0500                	addi	s0,sp,640
     c2e:	01c5                	addi	gp,gp,17
     c30:	57e8                	lw	a0,108(a5)
     c32:	0000                	unimp
     c34:	c605                	beqz	a2,c5c <_data-0x1f3a4>
     c36:	5301                	li	t1,-32
     c38:	001d                	c.addi	zero,7
     c3a:	0500                	addi	s0,sp,640
     c3c:	161801c7          	fmsub.q	ft3,fa6,ft1,ft2,rne
     c40:	0000                	unimp
     c42:	c805                	beqz	s0,c72 <_data-0x1f38e>
     c44:	9301                	srli	a4,a4,0x20
     c46:	001d                	c.addi	zero,7
     c48:	0500                	addi	s0,sp,640
     c4a:	01c9                	addi	gp,gp,18
     c4c:	7465                	lui	s0,0xffff9
     c4e:	0000                	unimp
     c50:	ca05                	beqz	a2,c80 <_data-0x1f380>
     c52:	7c01                	lui	s8,0xfffe0
     c54:	0046                	0x46
     c56:	0500                	addi	s0,sp,640
     c58:	01d2                	slli	gp,gp,0x14
     c5a:	0c29                	addi	s8,s8,10
     c5c:	0000                	unimp
     c5e:	ee06                	fsw	ft1,28(sp)
     c60:	d301                	beqz	a4,b60 <_data-0x1f4a0>
     c62:	003d                	c.addi	zero,15
     c64:	0600                	addi	s0,sp,768
     c66:	0391                	addi	t2,t2,4
     c68:	3f1c                	fld	fa5,56(a4)
     c6a:	0000                	unimp
     c6c:	9605                	srai	a2,a2,0x21
     c6e:	00309703          	lh	a4,3(ra) # 8a7 <_data-0x1f759>
     c72:	0600                	addi	s0,sp,768
     c74:	039c                	addi	a5,sp,448
     c76:	3f15                	jal	baa <_data-0x1f456>
     c78:	0000                	unimp
     c7a:	0400                	addi	s0,sp,512
     c7c:	0000                	unimp
     c7e:	2f05                	jal	13ae <_data-0x1ec52>
     c80:	1e2a                	slli	t3,t3,0x2a
     c82:	0000                	unimp
     c84:	3005                	jal	4a4 <_data-0x1fb5c>
     c86:	56f2                	lw	a3,60(sp)
     c88:	0000                	unimp
     c8a:	3105                	jal	8aa <_data-0x1f756>
     c8c:	4381                	li	t2,0
     c8e:	0000                	unimp
     c90:	3405                	jal	6b0 <_data-0x1f950>
     c92:	000018b3          	sll	a7,zero,zero
     c96:	3705                	jal	bb6 <_data-0x1f44a>
     c98:	1a0a                	slli	s4,s4,0x22
     c9a:	0000                	unimp
     c9c:	3805                	jal	4cc <_data-0x1fb34>
     c9e:	000079af          	0x79af
     ca2:	3a05                	jal	5d2 <_data-0x1fa2e>
     ca4:	3d2d                	jal	ade <_data-0x1f522>
     ca6:	0000                	unimp
     ca8:	3b05                	jal	9d8 <_data-0x1f628>
     caa:	2ab1                	jal	e06 <_data-0x1f1fa>
     cac:	0000                	unimp
     cae:	3c05                	jal	6de <_data-0x1f922>
     cb0:	1d30                	addi	a2,sp,696
     cb2:	0000                	unimp
     cb4:	3d05                	jal	ae4 <_data-0x1f51c>
     cb6:	6de9                	lui	s11,0x1a
     cb8:	0000                	unimp
     cba:	4005                	0x4005
     cbc:	00000c33          	add	s8,zero,zero
     cc0:	4105                	li	sp,1
     cc2:	088a                	slli	a7,a7,0x2
     cc4:	0000                	unimp
     cc6:	4205                	li	tp,1
     cc8:	621e                	flw	ft4,196(sp)
     cca:	0000                	unimp
     ccc:	4c05                	li	s8,1
     cce:	00000f0b          	0xf0b
     cd2:	4f05                	li	t5,1
     cd4:	2741                	jal	1454 <_data-0x1ebac>
     cd6:	0000                	unimp
     cd8:	5505                	li	a0,-31
     cda:	00005e07          	0x5e07
     cde:	5c05                	li	s8,-31
     ce0:	5566                	lw	a0,120(sp)
     ce2:	0000                	unimp
     ce4:	5d05                	li	s10,-31
     ce6:	6628                	flw	fa0,72(a2)
     ce8:	0000                	unimp
     cea:	6905                	lui	s2,0x1
     cec:	2dbc                	fld	fa5,88(a1)
     cee:	0000                	unimp
     cf0:	6a05                	lui	s4,0x1
     cf2:	739e                	flw	ft7,228(sp)
     cf4:	0000                	unimp
     cf6:	6e05                	lui	t3,0x1
     cf8:	0421                	addi	s0,s0,8
     cfa:	0000                	unimp
     cfc:	6f05                	lui	t5,0x1
     cfe:	64de                	flw	fs1,212(sp)
     d00:	0000                	unimp
     d02:	7005                	0x7005
     d04:	0000                	unimp
     d06:	0000                	unimp
     d08:	7305                	lui	t1,0xfffe1
     d0a:	26a9                	jal	1054 <_data-0x1efac>
     d0c:	0000                	unimp
     d0e:	7605                	lui	a2,0xfffe1
     d10:	10fc                	addi	a5,sp,108
     d12:	0000                	unimp
     d14:	7d05                	lui	s10,0xfffe1
     d16:	00002b23          	sw	zero,22(zero) # 6b1a <_data-0x194e6>
     d1a:	7e05                	lui	t3,0xfffe1
     d1c:	6f31                	lui	t5,0xc
     d1e:	0000                	unimp
     d20:	7f05                	lui	t5,0xfffe1
     d22:	72ad                	lui	t0,0xfffeb
     d24:	0000                	unimp
     d26:	8305                	srli	a4,a4,0x1
     d28:	a401                	j	f28 <_data-0x1f0d8>
     d2a:	0055                	c.addi	zero,21
     d2c:	0500                	addi	s0,sp,640
     d2e:	018a                	slli	gp,gp,0x2
     d30:	7b76                	flw	fs6,124(sp)
     d32:	0000                	unimp
     d34:	8e05                	sub	a2,a2,s1
     d36:	da01                	beqz	a2,c46 <_data-0x1f3ba>
     d38:	0022                	0x22
     d3a:	0500                	addi	s0,sp,640
     d3c:	1df4018f          	0x1df4018f
     d40:	0000                	unimp
     d42:	9205                	srli	a2,a2,0x21
     d44:	e201                	bnez	a2,d44 <_data-0x1f2bc>
     d46:	0045                	c.addi	zero,17
     d48:	0500                	addi	s0,sp,640
     d4a:	0195                	addi	gp,gp,5
     d4c:	000056db          	0x56db
     d50:	9605                	srai	a2,a2,0x21
     d52:	6201                	0x6201
     d54:	05000077          	0x5000077
     d58:	69b30197          	auipc	gp,0x69b30
     d5c:	0000                	unimp
     d5e:	9905                	andi	a0,a0,-31
     d60:	5a01                	li	s4,-32
     d62:	003a                	0x3a
     d64:	0500                	addi	s0,sp,640
     d66:	019a                	slli	gp,gp,0x6
     d68:	7472                	flw	fs0,60(sp)
     d6a:	0000                	unimp
     d6c:	9c05                	0x9c05
     d6e:	bb01                	j	a7e <_data-0x1f582>
     d70:	0076                	0x76
     d72:	0500                	addi	s0,sp,640
     d74:	019e                	slli	gp,gp,0x7
     d76:	0000168f          	0x168f
     d7a:	af05                	j	14aa <_data-0x1eb56>
     d7c:	f401                	bnez	s0,c84 <_data-0x1f37c>
     d7e:	0021                	c.addi	zero,8
     d80:	0500                	addi	s0,sp,640
     d82:	01b0                	addi	a2,sp,200
     d84:	0cbd                	addi	s9,s9,15
     d86:	0000                	unimp
     d88:	b105                	j	9a8 <_data-0x1f658>
     d8a:	7c01                	lui	s8,0xfffe0
     d8c:	05000003          	lb	zero,80(zero) # 50 <_data-0x1ffb0>
     d90:	01b2                	slli	gp,gp,0xc
     d92:	00004da7          	fsq	ft0,27(zero) # 1b <_data-0x1ffe5>
     d96:	b305                	j	ab6 <_data-0x1f54a>
     d98:	b001                	j	598 <_data-0x1fa68>
     d9a:	0054                	addi	a3,sp,4
     d9c:	0500                	addi	s0,sp,640
     d9e:	01b5                	addi	gp,gp,13
     da0:	160a                	slli	a2,a2,0x22
     da2:	0000                	unimp
     da4:	b605                	j	8c4 <_data-0x1f73c>
     da6:	5a01                	li	s4,-32
     da8:	0059                	c.addi	zero,22
     daa:	0500                	addi	s0,sp,640
     dac:	4c3a01b7          	lui	gp,0x4c3a0
     db0:	0000                	unimp
     db2:	ef05                	bnez	a4,dea <_data-0x1f216>
     db4:	1c01                	addi	s8,s8,-32
     db6:	0026                	0x26
     db8:	0500                	addi	s0,sp,640
     dba:	01fc                	addi	a5,sp,204
     dbc:	540d                	li	s0,-29
     dbe:	0000                	unimp
     dc0:	fd05                	bnez	a0,cf8 <_data-0x1f308>
     dc2:	9101                	srli	a0,a0,0x20
     dc4:	0038                	addi	a4,sp,8
     dc6:	0500                	addi	s0,sp,640
     dc8:	01fe                	slli	gp,gp,0x1f
     dca:	71c9                	lui	gp,0xffff2
     dcc:	0000                	unimp
     dce:	ff05                	bnez	a4,d06 <_data-0x1f2fa>
     dd0:	4401                	li	s0,0
     dd2:	0026                	0x26
     dd4:	0500                	addi	s0,sp,640
     dd6:	0280                	addi	s0,sp,320
     dd8:	8031                	srli	s0,s0,0xc
     dda:	0000                	unimp
     ddc:	8105                	srli	a0,a0,0x1
     dde:	1402                	slli	s0,s0,0x20
     de0:	05000007          	0x5000007
     de4:	0282                	slli	t0,t0,0x0
     de6:	3414                	fld	fa3,40(s0)
     de8:	0000                	unimp
     dea:	8505                	srai	a0,a0,0x1
     dec:	2d02                	fld	fs10,0(sp)
     dee:	05000057          	0x5000057
     df2:	028a                	slli	t0,t0,0x2
     df4:	1b8c                	addi	a1,sp,496
     df6:	0000                	unimp
     df8:	e305                	bnez	a4,e18 <_data-0x1f1e8>
     dfa:	fa02                	fsw	ft0,52(sp)
     dfc:	002d                	c.addi	zero,11
     dfe:	0500                	addi	s0,sp,640
     e00:	02ec                	addi	a1,sp,332
     e02:	4d4e                	lw	s10,208(sp)
     e04:	0000                	unimp
     e06:	ed05                	bnez	a0,e3e <_data-0x1f1c2>
     e08:	ff02                	fsw	ft0,188(sp)
     e0a:	05000073          	0x5000073
     e0e:	02f4                	addi	a3,sp,332
     e10:	00001a63          	bnez	zero,e24 <_data-0x1f1dc>
     e14:	fa05                	bnez	a2,d44 <_data-0x1f2bc>
     e16:	8502                	jr	a0
     e18:	0022                	0x22
     e1a:	0500                	addi	s0,sp,640
     e1c:	0380                	addi	s0,sp,448
     e1e:	3a2d                	jal	758 <_data-0x1f8a8>
     e20:	0000                	unimp
     e22:	8105                	srli	a0,a0,0x1
     e24:	00426c03          	0x426c03
     e28:	0500                	addi	s0,sp,640
     e2a:	0388                	addi	a0,sp,448
     e2c:	6a96                	flw	fs5,68(sp)
     e2e:	0000                	unimp
     e30:	8905                	andi	a0,a0,1
     e32:	006f4d03          	lbu	s10,6(t5) # fffe1006 <__EH_FRAME_BEGIN__+0x7ffdfd5e>
     e36:	0500                	addi	s0,sp,640
     e38:	0390                	addi	a2,sp,448
     e3a:	2906                	fld	fs2,64(sp)
     e3c:	0000                	unimp
     e3e:	9605                	srai	a2,a2,0x21
     e40:	00710003          	lb	zero,7(sp)
     e44:	0500                	addi	s0,sp,640
     e46:	03aa                	slli	t2,t2,0xa
     e48:	3052                	fld	ft0,304(sp)
     e4a:	0000                	unimp
     e4c:	cb05                	beqz	a4,e7c <_data-0x1f184>
     e4e:	001c8003          	lb	zero,1(s9) # 4049 <_data-0x1bfb7>
     e52:	0500                	addi	s0,sp,640
     e54:	03cc                	addi	a1,sp,452
     e56:	063a                	slli	a2,a2,0xe
     e58:	0000                	unimp
     e5a:	d305                	beqz	a4,d7a <_data-0x1f286>
     e5c:	0051c403          	lbu	s0,5(gp) # ffff2005 <__EH_FRAME_BEGIN__+0x7fff0d5d>
     e60:	0500                	addi	s0,sp,640
     e62:	03d4                	addi	a3,sp,452
     e64:	0000276b          	0x276b
     e68:	d705                	beqz	a4,d90 <_data-0x1f270>
     e6a:	0023cb03          	lbu	s6,2(t2)
     e6e:	0500                	addi	s0,sp,640
     e70:	03e1                	addi	t2,t2,24
     e72:	3525                	jal	c9a <_data-0x1f366>
     e74:	0000                	unimp
     e76:	e205                	bnez	a2,e96 <_data-0x1f16a>
     e78:	006c1403          	lh	s0,6(s8) # fffe0006 <__EH_FRAME_BEGIN__+0x7ffded5e>
     e7c:	0500                	addi	s0,sp,640
     e7e:	03ec                	addi	a1,sp,460
     e80:	5c10                	lw	a2,56(s0)
     e82:	0000                	unimp
     e84:	8205                	srli	a2,a2,0x1
     e86:	1b04                	addi	s1,sp,432
     e88:	006a                	0x6a
     e8a:	0500                	addi	s0,sp,640
     e8c:	0484                	addi	s1,sp,576
     e8e:	000051fb          	0x51fb
     e92:	8605                	srai	a2,a2,0x1
     e94:	9d04                	0x9d04
     e96:	001e                	0x1e
     e98:	0500                	addi	s0,sp,640
     e9a:	6fc40487          	0x6fc40487
     e9e:	0000                	unimp
     ea0:	8905                	andi	a0,a0,1
     ea2:	e804                	fsw	fs1,16(s0)
     ea4:	007e                	0x7e
     ea6:	0500                	addi	s0,sp,640
     ea8:	0495                	addi	s1,s1,5
     eaa:	00006b7b          	0x6b7b
     eae:	a305                	j	13ce <_data-0x1ec32>
     eb0:	4c04                	lw	s1,24(s0)
     eb2:	05000053          	0x5000053
     eb6:	04a8                	addi	a0,sp,584
     eb8:	0519                	addi	a0,a0,6
     eba:	0000                	unimp
     ebc:	ad05                	j	14ec <_data-0x1eb14>
     ebe:	0a04                	addi	s1,sp,272
     ec0:	05000077          	0x5000077
     ec4:	04b0                	addi	a2,sp,584
     ec6:	3cb6                	fld	fs9,360(sp)
     ec8:	0000                	unimp
     eca:	b405                	j	8ea <_data-0x1f716>
     ecc:	d404                	sw	s1,40(s0)
     ece:	006e                	0x6e
     ed0:	0500                	addi	s0,sp,640
     ed2:	04b6                	slli	s1,s1,0xd
     ed4:	1fd5                	addi	t6,t6,-11
     ed6:	0000                	unimp
     ed8:	d905                	beqz	a0,e08 <_data-0x1f1f8>
     eda:	9e04                	0x9e04
     edc:	004e                	0x4e
     ede:	0500                	addi	s0,sp,640
     ee0:	04dd                	addi	s1,s1,23
     ee2:	00006453          	fadd.s	fs0,ft0,ft0,unknown
     ee6:	e105                	bnez	a0,f06 <_data-0x1f0fa>
     ee8:	9f04                	0x9f04
     eea:	0004                	0x4
     eec:	0500                	addi	s0,sp,640
     eee:	04e5                	addi	s1,s1,25
     ef0:	27a1                	jal	1638 <_data-0x1e9c8>
     ef2:	0000                	unimp
     ef4:	e905                	bnez	a0,f24 <_data-0x1f0dc>
     ef6:	8c04                	0x8c04
     ef8:	0051                	c.addi	zero,20
     efa:	0500                	addi	s0,sp,640
     efc:	04ed                	addi	s1,s1,27
     efe:	00004947          	fmsub.s	fs2,ft0,ft0,ft0,rmm
     f02:	f105                	bnez	a0,e22 <_data-0x1f1de>
     f04:	9104                	0x9104
     f06:	006e                	0x6e
     f08:	0500                	addi	s0,sp,640
     f0a:	04f5                	addi	s1,s1,29
     f0c:	7f9d                	lui	t6,0xfffe7
     f0e:	0000                	unimp
     f10:	8605                	srai	a2,a2,0x1
     f12:	f505                	bnez	a0,e3a <_data-0x1f1c6>
     f14:	0050                	addi	a2,sp,4
     f16:	0500                	addi	s0,sp,640
     f18:	7bf90587          	0x7bf90587
     f1c:	0000                	unimp
     f1e:	9905                	andi	a0,a0,-31
     f20:	cd05                	beqz	a0,f58 <_data-0x1f0a8>
     f22:	006a                	0x6a
     f24:	0500                	addi	s0,sp,640
     f26:	059d                	addi	a1,a1,7
     f28:	77d2                	flw	fa5,52(sp)
     f2a:	0000                	unimp
     f2c:	a005                	j	f4c <_data-0x1f0b4>
     f2e:	7a05                	lui	s4,0xfffe1
     f30:	0012                	0x12
     f32:	0500                	addi	s0,sp,640
     f34:	05a2                	slli	a1,a1,0x8
     f36:	00007177          	0x7177
     f3a:	a605                	j	125a <_data-0x1eda6>
     f3c:	9e05                	0x9e05
     f3e:	0041                	c.addi	zero,16
     f40:	0500                	addi	s0,sp,640
     f42:	05a8                	addi	a0,sp,712
     f44:	00005aeb          	0x5aeb
     f48:	ac05                	j	1178 <_data-0x1ee88>
     f4a:	f305                	bnez	a4,e6a <_data-0x1f196>
     f4c:	0500001b          	0x500001b
     f50:	194505af          	0x194505af
     f54:	0000                	unimp
     f56:	b105                	j	b76 <_data-0x1f48a>
     f58:	f805                	bnez	s0,e88 <_data-0x1f178>
     f5a:	0080                	addi	s0,sp,64
     f5c:	0500                	addi	s0,sp,640
     f5e:	05b5                	addi	a1,a1,13
     f60:	60ad                	lui	ra,0xb
     f62:	0000                	unimp
     f64:	b705                	j	e84 <_data-0x1f17c>
     f66:	5d05                	li	s10,-31
     f68:	0029                	c.addi	zero,10
     f6a:	0500                	addi	s0,sp,640
     f6c:	05b9                	addi	a1,a1,14
     f6e:	49a2                	lw	s3,8(sp)
     f70:	0000                	unimp
     f72:	bd05                	j	da2 <_data-0x1f25e>
     f74:	9605                	srai	a2,a2,0x21
     f76:	001a                	0x1a
     f78:	0500                	addi	s0,sp,640
     f7a:	05c0                	addi	s0,sp,708
     f7c:	6746                	flw	fa4,80(sp)
     f7e:	0000                	unimp
     f80:	c105                	beqz	a0,fa0 <_data-0x1f060>
     f82:	1105                	addi	sp,sp,-31
     f84:	00000067          	jr	zero
     f88:	0004                	0x4
     f8a:	0500                	addi	s0,sp,640
     f8c:	003b6827          	0x3b6827
     f90:	0500                	addi	s0,sp,640
     f92:	ba28                	fsd	fa0,112(a2)
     f94:	0052                	0x52
     f96:	0500                	addi	s0,sp,640
     f98:	632a                	flw	ft6,136(sp)
     f9a:	0500003b          	0x500003b
     f9e:	0189                	addi	gp,gp,2
     fa0:	4f7e                	lw	t5,220(sp)
     fa2:	0000                	unimp
     fa4:	8a05                	andi	a2,a2,1
     fa6:	d001                	beqz	s0,ea6 <_data-0x1f15a>
     fa8:	003a                	0x3a
     faa:	0500                	addi	s0,sp,640
     fac:	4911018b          	0x4911018b
     fb0:	0000                	unimp
     fb2:	8c05                	sub	s0,s0,s1
     fb4:	2201                	jal	10b4 <_data-0x1ef4c>
     fb6:	0058                	addi	a4,sp,4
     fb8:	0500                	addi	s0,sp,640
     fba:	018d                	addi	gp,gp,3
     fbc:	0bba                	slli	s7,s7,0xe
     fbe:	0000                	unimp
     fc0:	8e05                	sub	a2,a2,s1
     fc2:	b601                	j	ac2 <_data-0x1f53e>
     fc4:	0500000b          	0x500000b
     fc8:	39f9018f          	0x39f9018f
     fcc:	0000                	unimp
     fce:	9005                	srli	s0,s0,0x21
     fd0:	7a01                	lui	s4,0xfffe0
     fd2:	0500004f          	0x500004f
     fd6:	0191                	addi	gp,gp,4
     fd8:	4de2                	lw	s11,24(sp)
     fda:	0000                	unimp
     fdc:	a106                	fsd	ft1,128(sp)
     fde:	3f01                	jal	eee <_data-0x1f112>
     fe0:	006d                	c.addi	zero,27
     fe2:	0600                	addi	s0,sp,768
     fe4:	01ee                	slli	gp,gp,0x1b
     fe6:	00003dd3          	fadd.s	fs11,ft0,ft0,rup
     fea:	8b05                	andi	a4,a4,1
     fec:	df02                	sw	zero,188(sp)
     fee:	003e                	0x3e
     ff0:	0500                	addi	s0,sp,640
     ff2:	028c                	addi	a1,sp,320
     ff4:	00004a1b          	0x4a1b
     ff8:	8d05                	sub	a0,a0,s1
     ffa:	ee02                	fsw	ft0,28(sp)
     ffc:	005e                	0x5e
     ffe:	0500                	addi	s0,sp,640
    1000:	028e                	slli	t0,t0,0x3
    1002:	00003cab          	0x3cab
    1006:	8f05                	sub	a4,a4,s1
    1008:	7602                	flw	fa2,32(sp)
    100a:	0011                	c.addi	zero,4
    100c:	0500                	addi	s0,sp,640
    100e:	0290                	addi	a2,sp,320
    1010:	40dd                	li	ra,23
    1012:	0000                	unimp
    1014:	9105                	srli	a0,a0,0x21
    1016:	6702                	flw	fa4,0(sp)
    1018:	002e                	0x2e
    101a:	0500                	addi	s0,sp,640
    101c:	0292                	slli	t0,t0,0x4
    101e:	00002e63          	0x2e63
    1022:	9305                	srli	a4,a4,0x21
    1024:	5602                	lw	a2,32(sp)
    1026:	0080                	addi	s0,sp,64
    1028:	0500                	addi	s0,sp,640
    102a:	0294                	addi	a3,sp,320
    102c:	00005ab7          	lui	s5,0x5
    1030:	9505                	srai	a0,a0,0x21
    1032:	1f02                	slli	t5,t5,0x20
    1034:	005e                	0x5e
    1036:	0500                	addi	s0,sp,640
    1038:	0296                	slli	t0,t0,0x5
    103a:	0c8d                	addi	s9,s9,3
    103c:	0000                	unimp
    103e:	9705                	srai	a4,a4,0x21
    1040:	1a02                	slli	s4,s4,0x20
    1042:	005e                	0x5e
    1044:	0500                	addi	s0,sp,640
    1046:	0298                	addi	a4,sp,320
    1048:	5eea                	lw	t4,184(sp)
    104a:	0000                	unimp
    104c:	9905                	andi	a0,a0,-31
    104e:	8f02                	jr	t5
    1050:	06000047          	fmsub.q	ft0,ft0,ft0,ft0,rne
    1054:	02a6                	slli	t0,t0,0x9
    1056:	76ad                	lui	a3,0xfffeb
    1058:	0000                	unimp
    105a:	db06                	sw	ra,180(sp)
    105c:	5502                	lw	a0,32(sp)
    105e:	0600000b          	0x600000b
    1062:	0391                	addi	t2,t2,4
    1064:	3f1c                	fld	fa5,56(a4)
    1066:	0000                	unimp
    1068:	9605                	srai	a2,a2,0x21
    106a:	00309703          	lh	a4,3(ra) # b003 <_data-0x14ffd>
    106e:	0600                	addi	s0,sp,768
    1070:	039c                	addi	a5,sp,448
    1072:	3f15                	jal	fa6 <_data-0x1f05a>
    1074:	0000                	unimp
    1076:	a105                	j	1496 <_data-0x1eb6a>
    1078:	0037f403          	0x37f403
    107c:	0500                	addi	s0,sp,640
    107e:	03a6                	slli	t2,t2,0x9
    1080:	618d                	lui	gp,0x3
    1082:	0000                	unimp
    1084:	0400                	addi	s0,sp,512
    1086:	0000                	unimp
    1088:	2206                	fld	ft4,64(sp)
    108a:	7c19                	lui	s8,0xfffe6
    108c:	0000                	unimp
    108e:	2705                	jal	17ae <_data-0x1e852>
    1090:	2d80                	fld	fs0,24(a1)
    1092:	0000                	unimp
    1094:	0400                	addi	s0,sp,512
    1096:	0000                	unimp
    1098:	0205                	addi	tp,tp,1
    109a:	82a1                	srli	a3,a3,0x8
    109c:	0000                	unimp
    109e:	0b05                	addi	s6,s6,1
    10a0:	4fdf 0000 0c05      	0xc0500004fdf
    10a6:	000014cb          	fnmsub.s	fs1,ft0,ft0,ft0,rtz
    10aa:	0d05                	addi	s10,s10,1
    10ac:	4c76                	lw	s8,92(sp)
    10ae:	0000                	unimp
    10b0:	0e05                	addi	t3,t3,1
    10b2:	7b41                	lui	s6,0xffff0
    10b4:	0000                	unimp
    10b6:	0f05                	addi	t5,t5,1
    10b8:	2b01                	jal	15c8 <_data-0x1ea38>
    10ba:	0000                	unimp
    10bc:	1005                	c.addi	zero,-31
    10be:	0b7d                	addi	s6,s6,31
    10c0:	0000                	unimp
    10c2:	1105                	addi	sp,sp,-31
    10c4:	3c28                	fld	fa0,120(s0)
    10c6:	0000                	unimp
    10c8:	1205                	addi	tp,tp,-31
    10ca:	2f49                	jal	185c <_data-0x1e7a4>
    10cc:	0000                	unimp
    10ce:	1305                	addi	t1,t1,-31
    10d0:	258e                	fld	fa1,192(sp)
    10d2:	0000                	unimp
    10d4:	1405                	addi	s0,s0,-31
    10d6:	000053db          	0x53db
    10da:	1505                	addi	a0,a0,-31
    10dc:	4022                	0x4022
    10de:	0000                	unimp
    10e0:	1605                	addi	a2,a2,-31
    10e2:	6e01                	0x6e01
    10e4:	0000                	unimp
    10e6:	0400                	addi	s0,sp,512
    10e8:	0000                	unimp
    10ea:	7d06                	flw	fs10,96(sp)
    10ec:	56d2                	lw	a3,52(sp)
    10ee:	0000                	unimp
    10f0:	9005                	srli	s0,s0,0x21
    10f2:	0b01                	addi	s6,s6,0
    10f4:	06000033          	0x6000033
    10f8:	0192                	slli	gp,gp,0x4
    10fa:	66cd                	lui	a3,0x13
    10fc:	0000                	unimp
    10fe:	9e05                	0x9e05
    1100:	7a01                	lui	s4,0xfffe0
    1102:	0078                	addi	a4,sp,12
    1104:	0000                	unimp
    1106:	0004                	0x4
    1108:	0600                	addi	s0,sp,768
    110a:	01a1                	addi	gp,gp,8
    110c:	00006d3f d301ee06 	0xd301ee0600006d3f
    1114:	003d                	c.addi	zero,15
    1116:	0600                	addi	s0,sp,768
    1118:	0b5502db          	0xb5502db
    111c:	0000                	unimp
    111e:	e005                	bnez	s0,113e <_data-0x1eec2>
    1120:	b802                	fsd	ft0,48(sp)
    1122:	0024                	addi	s1,sp,8
    1124:	0600                	addi	s0,sp,768
    1126:	1fad02e7          	jalr	t0,506(s10) # fffe11fa <__EH_FRAME_BEGIN__+0x7ffdff52>
    112a:	0000                	unimp
    112c:	9106                	add	sp,sp,ra
    112e:	003f1c03          	lh	s8,3(t5)
    1132:	0500                	addi	s0,sp,640
    1134:	0396                	slli	t2,t2,0x5
    1136:	00003097          	auipc	ra,0x3
    113a:	9c06                	add	s8,s8,ra
    113c:	003f1503          	lh	a0,3(t5)
    1140:	0500                	addi	s0,sp,640
    1142:	03a1                	addi	t2,t2,8
    1144:	37f4                	fld	fa3,232(a5)
    1146:	0000                	unimp
    1148:	0400                	addi	s0,sp,512
    114a:	0000                	unimp
    114c:	b705                	j	106c <_data-0x1ef94>
    114e:	3a01                	jal	a5e <_data-0x1f5a2>
    1150:	0022                	0x22
    1152:	0500                	addi	s0,sp,640
    1154:	01ba                	slli	gp,gp,0xe
    1156:	4984                	lw	s1,16(a1)
    1158:	0000                	unimp
    115a:	bd05                	j	f8a <_data-0x1f076>
    115c:	c601                	beqz	a2,1164 <_data-0x1ee9c>
    115e:	005d                	c.addi	zero,23
    1160:	0500                	addi	s0,sp,640
    1162:	01c0                	addi	s0,sp,196
    1164:	3745                	jal	1104 <_data-0x1eefc>
    1166:	0000                	unimp
    1168:	0400                	addi	s0,sp,512
    116a:	0000                	unimp
    116c:	1105                	addi	sp,sp,-31
    116e:	6de1                	lui	s11,0x18
    1170:	0000                	unimp
    1172:	1505                	addi	a0,a0,-31
    1174:	619f 0000 4805      	0x48050000619f
    117a:	4c2a                	lw	s8,136(sp)
    117c:	0000                	unimp
    117e:	6405                	lui	s0,0x1
    1180:	00007f4b          	fnmsub.s	ft10,ft0,ft0,ft0
    1184:	6a05                	lui	s4,0x1
    1186:	0000698b          	0x698b
    118a:	b205                	j	aaa <_data-0x1f556>
    118c:	f601                	bnez	a2,1094 <_data-0x1ef6c>
    118e:	0500003b          	0x500003b
    1192:	02b8                	addi	a4,sp,328
    1194:	6162                	flw	ft2,24(sp)
    1196:	0000                	unimp
    1198:	b905                	j	dc8 <_data-0x1f238>
    119a:	a402                	fsd	ft0,8(sp)
    119c:	0039                	c.addi	zero,14
    119e:	0500                	addi	s0,sp,640
    11a0:	02ba                	slli	t0,t0,0xe
    11a2:	8289                	srli	a3,a3,0x2
    11a4:	0000                	unimp
    11a6:	bb05                	j	ed6 <_data-0x1f12a>
    11a8:	8d02                	jr	s10
    11aa:	0072                	0x72
    11ac:	0500                	addi	s0,sp,640
    11ae:	02bc                	addi	a5,sp,328
    11b0:	60fe                	flw	ft1,220(sp)
    11b2:	0000                	unimp
    11b4:	bd05                	j	fe4 <_data-0x1f01c>
    11b6:	0c02                	slli	s8,s8,0x0
    11b8:	0050                	addi	a2,sp,4
    11ba:	0500                	addi	s0,sp,640
    11bc:	02be                	slli	t0,t0,0xf
    11be:	7d9f 0000 ca05      	0xca0500007d9f
    11c4:	ef02                	fsw	ft0,156(sp)
    11c6:	0016                	0x16
    11c8:	0500                	addi	s0,sp,640
    11ca:	7e0202cb          	fnmsub.q	ft5,ft4,ft0,fa5,rne
    11ce:	0000                	unimp
    11d0:	cc05                	beqz	s0,1208 <_data-0x1edf8>
    11d2:	d002                	sw	zero,32(sp)
    11d4:	0002                	0x2
    11d6:	0500                	addi	s0,sp,640
    11d8:	04f4                	addi	a3,sp,588
    11da:	1180                	addi	s0,sp,224
    11dc:	0000                	unimp
    11de:	8a05                	andi	a2,a2,1
    11e0:	cf05                	beqz	a4,1218 <_data-0x1ede8>
    11e2:	0074                	addi	a3,sp,12
    11e4:	0500                	addi	s0,sp,640
    11e6:	05ba                	slli	a1,a1,0xe
    11e8:	6775                	lui	a4,0x1d
    11ea:	0000                	unimp
    11ec:	c805                	beqz	s0,121c <_data-0x1ede4>
    11ee:	b505                	j	100e <_data-0x1eff2>
    11f0:	0074                	addi	a3,sp,12
    11f2:	0500                	addi	s0,sp,640
    11f4:	05c9                	addi	a1,a1,18
    11f6:	0f29                	addi	t5,t5,10
    11f8:	0000                	unimp
    11fa:	ca05                	beqz	a2,122a <_data-0x1edd6>
    11fc:	e005                	bnez	s0,121c <_data-0x1ede4>
    11fe:	005d                	c.addi	zero,23
    1200:	0500                	addi	s0,sp,640
    1202:	3fd705cb          	fnmsub.q	fa1,fa4,ft9,ft7,rne
    1206:	0000                	unimp
    1208:	cc05                	beqz	s0,1240 <_data-0x1edc0>
    120a:	e805                	bnez	s0,123a <_data-0x1edc6>
    120c:	0062                	0x62
    120e:	0500                	addi	s0,sp,640
    1210:	05cd                	addi	a1,a1,19
    1212:	558c                	lw	a1,40(a1)
    1214:	0000                	unimp
    1216:	ce05                	beqz	a2,124e <_data-0x1edb2>
    1218:	7305                	lui	t1,0xfffe1
    121a:	0500003b          	0x500003b
    121e:	05d0                	addi	a2,sp,708
    1220:	2b66                	fld	fs6,88(sp)
    1222:	0000                	unimp
    1224:	d105                	beqz	a0,1144 <_data-0x1eebc>
    1226:	0705                	addi	a4,a4,1
    1228:	0014                	0x14
    122a:	0500                	addi	s0,sp,640
    122c:	05d2                	slli	a1,a1,0x14
    122e:	120e                	slli	tp,tp,0x23
    1230:	0000                	unimp
    1232:	d305                	beqz	a4,1152 <_data-0x1eeae>
    1234:	3805                	jal	a64 <_data-0x1f59c>
    1236:	003e                	0x3e
    1238:	0500                	addi	s0,sp,640
    123a:	05d4                	addi	a3,sp,708
    123c:	1a2d                	addi	s4,s4,-21
    123e:	0000                	unimp
    1240:	d505                	beqz	a0,1168 <_data-0x1ee98>
    1242:	6b05                	lui	s6,0x1
    1244:	0009                	c.addi	zero,2
    1246:	0500                	addi	s0,sp,640
    1248:	05d6                	slli	a1,a1,0x15
    124a:	1c30                	addi	a2,sp,568
    124c:	0000                	unimp
    124e:	d705                	beqz	a4,1176 <_data-0x1ee8a>
    1250:	8105                	srli	a0,a0,0x1
    1252:	005a                	0x5a
    1254:	0500                	addi	s0,sp,640
    1256:	05d8                	addi	a4,sp,708
    1258:	00000ae7          	jalr	s5,zero
    125c:	d905                	beqz	a0,118c <_data-0x1ee74>
    125e:	7c05                	lui	s8,0xfffe1
    1260:	0059                	c.addi	zero,22
    1262:	0500                	addi	s0,sp,640
    1264:	05da                	slli	a1,a1,0x16
    1266:	5b66                	lw	s6,120(sp)
    1268:	0000                	unimp
    126a:	db05                	beqz	a4,119a <_data-0x1ee66>
    126c:	7f05                	lui	t5,0xfffe1
    126e:	0026                	0x26
    1270:	0500                	addi	s0,sp,640
    1272:	05dc                	addi	a5,sp,708
    1274:	3f8a                	fld	ft11,160(sp)
    1276:	0000                	unimp
    1278:	dd05                	beqz	a0,11b0 <_data-0x1ee50>
    127a:	3a05                	jal	baa <_data-0x1f456>
    127c:	0032                	0x32
    127e:	0500                	addi	s0,sp,640
    1280:	05de                	slli	a1,a1,0x17
    1282:	31e5                	jal	f6a <_data-0x1f096>
    1284:	0000                	unimp
    1286:	df05                	beqz	a4,11be <_data-0x1ee42>
    1288:	2f05                	jal	19b8 <_data-0x1e648>
    128a:	0058                	addi	a4,sp,4
    128c:	0500                	addi	s0,sp,640
    128e:	05e0                	addi	s0,sp,716
    1290:	4318                	lw	a4,0(a4)
    1292:	0000                	unimp
    1294:	e105                	bnez	a0,12b4 <_data-0x1ed4c>
    1296:	7a05                	lui	s4,0xfffe1
    1298:	0024                	addi	s1,sp,8
    129a:	0500                	addi	s0,sp,640
    129c:	05e2                	slli	a1,a1,0x18
    129e:	00004297          	auipc	t0,0x4
    12a2:	e305                	bnez	a4,12c2 <_data-0x1ed3e>
    12a4:	aa05                	j	13d4 <_data-0x1ec2c>
    12a6:	0500005b          	0x500005b
    12aa:	05e4                	addi	s1,sp,716
    12ac:	5791                	li	a5,-28
    12ae:	0000                	unimp
    12b0:	e505                	bnez	a0,12d8 <_data-0x1ed28>
    12b2:	a105                	j	16d2 <_data-0x1e92e>
    12b4:	05000043          	0x5000043
    12b8:	05e6                	slli	a1,a1,0x19
    12ba:	7c2a                	flw	fs8,168(sp)
    12bc:	0000                	unimp
    12be:	e705                	bnez	a4,12e6 <_data-0x1ed1a>
    12c0:	a905                	j	16f0 <_data-0x1e910>
    12c2:	007a                	0x7a
    12c4:	0500                	addi	s0,sp,640
    12c6:	513405eb          	0x513405eb
    12ca:	0000                	unimp
    12cc:	f305                	bnez	a4,11ec <_data-0x1ee14>
    12ce:	fe05                	bnez	a2,1206 <_data-0x1edfa>
    12d0:	0002                	0x2
    12d2:	0500                	addi	s0,sp,640
    12d4:	6b4a05fb          	0x6b4a05fb
    12d8:	0000                	unimp
    12da:	8b05                	andi	a4,a4,1
    12dc:	2e06                	fld	ft8,64(sp)
    12de:	05000027          	0x5000027
    12e2:	068e                	slli	a3,a3,0x3
    12e4:	6dc0                	flw	fs0,28(a1)
    12e6:	0000                	unimp
    12e8:	9405                	srai	s0,s0,0x21
    12ea:	f906                	fsw	ft1,176(sp)
    12ec:	0000                	unimp
    12ee:	0000                	unimp
    12f0:	0004                	0x4
    12f2:	0500                	addi	s0,sp,640
    12f4:	b428                	fsd	fa0,104(s0)
    12f6:	0009                	c.addi	zero,2
    12f8:	0500                	addi	s0,sp,640
    12fa:	f43c                	fsw	fa5,104(s0)
    12fc:	0029                	c.addi	zero,10
    12fe:	0000                	unimp
    1300:	0004                	0x4
    1302:	0500                	addi	s0,sp,640
    1304:	d20a                	sw	sp,36(sp)
    1306:	000d                	c.addi	zero,3
    1308:	0500                	addi	s0,sp,640
    130a:	1615                	addi	a2,a2,-27
    130c:	006d                	c.addi	zero,27
    130e:	0500                	addi	s0,sp,640
    1310:	5e19                	li	t3,-26
    1312:	005a                	0x5a
    1314:	0500                	addi	s0,sp,640
    1316:	00350d1b          	0x350d1b
    131a:	0500                	addi	s0,sp,640
    131c:	5621                	li	a2,-24
    131e:	007a                	0x7a
    1320:	0500                	addi	s0,sp,640
    1322:	3f25                	jal	125a <_data-0x1eda6>
    1324:	0064                	addi	s1,sp,12
    1326:	0500                	addi	s0,sp,640
    1328:	0026e027          	0x26e027
    132c:	0500                	addi	s0,sp,640
    132e:	892d                	andi	a0,a0,11
    1330:	0076                	0x76
    1332:	0500                	addi	s0,sp,640
    1334:	9c31                	0x9c31
    1336:	005c                	addi	a5,sp,4
    1338:	0500                	addi	s0,sp,640
    133a:	00411b33          	sll	s6,sp,tp
    133e:	0500                	addi	s0,sp,640
    1340:	6539                	lui	a0,0xe
    1342:	007e                	0x7e
    1344:	0500                	addi	s0,sp,640
    1346:	ec3d                	bnez	s0,13c4 <_data-0x1ec3c>
    1348:	0070                	addi	a2,sp,12
    134a:	0500                	addi	s0,sp,640
    134c:	0015033f f7440500 	0xf74405000015033f
    1354:	0058                	addi	a4,sp,4
    1356:	0500                	addi	s0,sp,640
    1358:	a149                	j	17da <_data-0x1e826>
    135a:	0058                	addi	a4,sp,4
    135c:	0500                	addi	s0,sp,640
    135e:	8c4e                	mv	s8,s3
    1360:	0011                	c.addi	zero,4
    1362:	0500                	addi	s0,sp,640
    1364:	005aa253          	fadd.s	ft4,fs5,ft5,rdn
    1368:	0000                	unimp
    136a:	0004                	0x4
    136c:	0500                	addi	s0,sp,640
    136e:	1412                	slli	s0,s0,0x24
    1370:	003c                	addi	a5,sp,8
    1372:	0500                	addi	s0,sp,640
    1374:	1616                	slli	a2,a2,0x25
    1376:	0500007b          	0x500007b
    137a:	af1a                	fsd	ft6,408(sp)
    137c:	0031                	c.addi	zero,12
    137e:	0500                	addi	s0,sp,640
    1380:	8c1f 004d 0000      	0x4d8c1f
    1386:	0004                	0x4
    1388:	0500                	addi	s0,sp,640
    138a:	2209                	jal	148c <_data-0x1eb74>
    138c:	000e                	0xe
    138e:	0500                	addi	s0,sp,640
    1390:	590a                	lw	s2,160(sp)
    1392:	0002                	0x2
    1394:	0500                	addi	s0,sp,640
    1396:	5d11                	li	s10,-28
    1398:	0500004f          	0x500004f
    139c:	7112                	flw	ft2,36(sp)
    139e:	0015                	c.addi	zero,5
    13a0:	0500                	addi	s0,sp,640
    13a2:	007e1913          	slli	s2,t3,0x7
    13a6:	0500                	addi	s0,sp,640
    13a8:	ad14                	fsd	fa3,24(a0)
    13aa:	0032                	0x32
    13ac:	0500                	addi	s0,sp,640
    13ae:	b418                	fsd	fa4,40(s0)
    13b0:	0038                	addi	a4,sp,8
    13b2:	0500                	addi	s0,sp,640
    13b4:	3919                	jal	fca <_data-0x1f036>
    13b6:	0029                	c.addi	zero,10
    13b8:	0500                	addi	s0,sp,640
    13ba:	4a1a                	lw	s4,132(sp)
    13bc:	05000033          	0x5000033
    13c0:	9b39                	andi	a4,a4,-18
    13c2:	0000                	unimp
    13c4:	0500                	addi	s0,sp,640
    13c6:	383a                	fld	fa6,424(sp)
    13c8:	0500005b          	0x500005b
    13cc:	000d913b          	0xd913b
    13d0:	0500                	addi	s0,sp,640
    13d2:	cd3c                	sw	a5,88(a0)
    13d4:	004e                	0x4e
    13d6:	0000                	unimp
    13d8:	0004                	0x4
    13da:	0500                	addi	s0,sp,640
    13dc:	d11e                	sw	t2,160(sp)
    13de:	0500002b          	0x500002b
    13e2:	d124                	sw	s1,96(a0)
    13e4:	0062                	0x62
    13e6:	0500                	addi	s0,sp,640
    13e8:	7229                	lui	tp,0xfffea
    13ea:	0050                	addi	a2,sp,4
    13ec:	0500                	addi	s0,sp,640
    13ee:	6f2a                	flw	ft10,136(sp)
    13f0:	05000043          	0x5000043
    13f4:	002a832f          	0x2a832f
    13f8:	0500                	addi	s0,sp,640
    13fa:	883c                	0x883c
    13fc:	0040                	addi	s0,sp,4
    13fe:	0500                	addi	s0,sp,640
    1400:	103d                	c.addi	zero,-17
    1402:	0500004f          	0x500004f
    1406:	fe3e                	fsw	fa5,60(sp)
    1408:	007c                	addi	a5,sp,12
    140a:	0500                	addi	s0,sp,640
    140c:	9742                	add	a4,a4,a6
    140e:	05000007          	0x5000007
    1412:	0044cf4b          	fnmsub.s	ft10,fs1,ft4,ft0,rmm
    1416:	0000                	unimp
    1418:	0004                	0x4
    141a:	0500                	addi	s0,sp,640
    141c:	7e29                	lui	t3,0xfffea
    141e:	0500004b          	0x500004b
    1422:	942e                	add	s0,s0,a1
    1424:	006c                	addi	a1,sp,12
    1426:	0000                	unimp
    1428:	0004                	0x4
    142a:	0500                	addi	s0,sp,640
    142c:	dc1e                	sw	t2,56(sp)
    142e:	0008                	0x8
    1430:	0500                	addi	s0,sp,640
    1432:	cd22                	sw	s0,152(sp)
    1434:	005f 0500 bf2a      	0xbf2a0500005f
    143a:	006a                	0x6a
    143c:	0500                	addi	s0,sp,640
    143e:	e02e                	fsw	fa1,0(sp)
    1440:	05000073          	0x5000073
    1444:	3f30                	fld	fa2,120(a4)
    1446:	0039                	c.addi	zero,14
    1448:	0500                	addi	s0,sp,640
    144a:	b839                	j	c68 <_data-0x1f398>
    144c:	0066                	0x66
    144e:	0500                	addi	s0,sp,640
    1450:	00286b3b          	0x286b3b
    1454:	0500                	addi	s0,sp,640
    1456:	da3c                	sw	a5,112(a2)
    1458:	0500000f          	fence	ow,unknown
    145c:	173d                	addi	a4,a4,-17
    145e:	0009                	c.addi	zero,2
    1460:	0500                	addi	s0,sp,640
    1462:	793e                	flw	fs2,236(sp)
    1464:	0065                	c.addi	zero,25
    1466:	0000                	unimp
    1468:	0004                	0x4
    146a:	0500                	addi	s0,sp,640
    146c:	7745                	lui	a4,0xffff1
    146e:	0058                	addi	a4,sp,4
    1470:	0500                	addi	s0,sp,640
    1472:	9b46                	add	s6,s6,a7
    1474:	0021                	c.addi	zero,8
    1476:	0500                	addi	s0,sp,640
    1478:	994a                	add	s2,s2,s2
    147a:	007c                	addi	a5,sp,12
    147c:	0500                	addi	s0,sp,640
    147e:	0005ab4f          	fnmadd.s	fs6,fa1,ft0,ft0,rdn
    1482:	0500                	addi	s0,sp,640
    1484:	e558                	fsw	fa4,12(a0)
    1486:	007f                	0x7f
    1488:	0500                	addi	s0,sp,640
    148a:	525c                	lw	a5,36(a2)
    148c:	0035                	c.addi	zero,13
    148e:	0500                	addi	s0,sp,640
    1490:	1c60                	addi	s0,sp,572
    1492:	003a                	0x3a
    1494:	0500                	addi	s0,sp,640
    1496:	c464                	sw	s1,76(s0)
    1498:	0082                	slli	ra,ra,0x0
    149a:	0500                	addi	s0,sp,640
    149c:	c466                	sw	s9,8(sp)
    149e:	0500003f 0059b672 	0x59b6720500003f
    14a6:	0500                	addi	s0,sp,640
    14a8:	002e7277          	0x2e7277
    14ac:	0500                	addi	s0,sp,640
    14ae:	9f7c                	0x9f7c
    14b0:	0046                	0x46
    14b2:	0500                	addi	s0,sp,640
    14b4:	aa7d                	j	1672 <_data-0x1e98e>
    14b6:	0001                	nop
    14b8:	0500                	addi	s0,sp,640
    14ba:	0188                	addi	a0,sp,192
    14bc:	0ad4                	addi	a3,sp,340
    14be:	0000                	unimp
    14c0:	8c05                	sub	s0,s0,s1
    14c2:	4d01                	li	s10,0
    14c4:	002c                	addi	a1,sp,8
    14c6:	0500                	addi	s0,sp,640
    14c8:	0192                	slli	gp,gp,0x4
    14ca:	2fa4                	fld	fs1,88(a5)
    14cc:	0000                	unimp
    14ce:	9705                	srai	a4,a4,0x21
    14d0:	e701                	bnez	a4,14d8 <_data-0x1eb28>
    14d2:	0058                	addi	a4,sp,4
    14d4:	0500                	addi	s0,sp,640
    14d6:	019c                	addi	a5,sp,192
    14d8:	465a                	lw	a2,148(sp)
    14da:	0000                	unimp
    14dc:	ae05                	j	180c <_data-0x1e7f4>
    14de:	7f01                	lui	t5,0xfffe0
    14e0:	000a                	0xa
    14e2:	0500                	addi	s0,sp,640
    14e4:	01b2                	slli	gp,gp,0xc
    14e6:	00001f83          	lh	t6,0(zero) # 0 <_data-0x20000>
    14ea:	b605                	j	100a <_data-0x1eff6>
    14ec:	6b01                	0x6b01
    14ee:	0046                	0x46
    14f0:	0500                	addi	s0,sp,640
    14f2:	01ba                	slli	gp,gp,0xe
    14f4:	5df6                	lw	s11,124(sp)
    14f6:	0000                	unimp
    14f8:	bf05                	j	1428 <_data-0x1ebd8>
    14fa:	0901                	addi	s2,s2,0
    14fc:	0041                	c.addi	zero,16
    14fe:	0500                	addi	s0,sp,640
    1500:	01c4                	addi	s1,sp,196
    1502:	0d80                	addi	s0,sp,720
    1504:	0000                	unimp
    1506:	c905                	beqz	a0,1536 <_data-0x1eaca>
    1508:	7a01                	lui	s4,0xfffe0
    150a:	0061                	c.addi	zero,24
    150c:	0500                	addi	s0,sp,640
    150e:	01ce                	slli	gp,gp,0x13
    1510:	0be1                	addi	s7,s7,24
    1512:	0000                	unimp
    1514:	d305                	beqz	a4,1434 <_data-0x1ebcc>
    1516:	ab01                	j	1a26 <_data-0x1e5da>
    1518:	000a                	0xa
    151a:	0500                	addi	s0,sp,640
    151c:	01d8                	addi	a4,sp,196
    151e:	22f8                	fld	fa4,192(a3)
    1520:	0000                	unimp
    1522:	d905                	beqz	a0,1452 <_data-0x1ebae>
    1524:	3c01                	jal	f34 <_data-0x1f0cc>
    1526:	0079                	c.addi	zero,30
    1528:	0500                	addi	s0,sp,640
    152a:	01de                	slli	gp,gp,0x17
    152c:	4e45                	li	t3,17
    152e:	0000                	unimp
    1530:	df05                	beqz	a4,1468 <_data-0x1eb98>
    1532:	e701                	bnez	a4,153a <_data-0x1eac6>
    1534:	0076                	0x76
    1536:	0500                	addi	s0,sp,640
    1538:	01e4                	addi	s1,sp,204
    153a:	00002543          	fmadd.s	fa0,ft0,ft0,ft0,rdn
    153e:	0400                	addi	s0,sp,512
    1540:	0000                	unimp
    1542:	1605                	addi	a2,a2,-31
    1544:	5024                	lw	s1,96(s0)
    1546:	0000                	unimp
    1548:	2305                	jal	1a68 <_data-0x1e598>
    154a:	246c                	fld	fa1,200(s0)
    154c:	0000                	unimp
    154e:	2605                	jal	186e <_data-0x1e792>
    1550:	3add                	jal	f46 <_data-0x1f0ba>
    1552:	0000                	unimp
    1554:	2705                	jal	1c74 <_data-0x1e38c>
    1556:	7e30                	flw	fa2,120(a2)
    1558:	0000                	unimp
    155a:	0400                	addi	s0,sp,512
    155c:	0000                	unimp
    155e:	2405                	jal	177e <_data-0x1e882>
    1560:	5cd6                	lw	s9,116(sp)
    1562:	0000                	unimp
    1564:	2505                	jal	1b84 <_data-0x1e47c>
    1566:	3f60                	fld	fs0,248(a4)
    1568:	0000                	unimp
    156a:	2805                	jal	159a <_data-0x1ea66>
    156c:	02e6                	slli	t0,t0,0x19
    156e:	0000                	unimp
    1570:	2b05                	jal	1aa0 <_data-0x1e560>
    1572:	000019af          	0x19af
    1576:	2e05                	jal	18a6 <_data-0x1e75a>
    1578:	4dc8                	lw	a0,28(a1)
    157a:	0000                	unimp
    157c:	2f05                	jal	1cac <_data-0x1e354>
    157e:	34ad                	jal	fe8 <_data-0x1f018>
    1580:	0000                	unimp
    1582:	ac05                	j	17b2 <_data-0x1e84e>
    1584:	6f01                	0x6f01
    1586:	05000053          	0x5000053
    158a:	01b2                	slli	gp,gp,0xc
    158c:	0000250b          	0x250b
    1590:	c505                	beqz	a0,15b8 <_data-0x1ea48>
    1592:	2001                	jal	1592 <_data-0x1ea6e>
    1594:	0000                	unimp
    1596:	0000                	unimp
    1598:	0004                	0x4
    159a:	0500                	addi	s0,sp,640
    159c:	7e02                	flw	ft8,32(sp)
    159e:	0064                	addi	s1,sp,12
    15a0:	0500                	addi	s0,sp,640
    15a2:	370d                	jal	14c4 <_data-0x1eb3c>
    15a4:	0500001b          	0x500001b
    15a8:	bd15                	j	13dc <_data-0x1ec24>
    15aa:	0020                	addi	s0,sp,8
    15ac:	0000                	unimp
    15ae:	0004                	0x4
    15b0:	0500                	addi	s0,sp,640
    15b2:	2f51                	jal	1d46 <_data-0x1e2ba>
    15b4:	0015                	c.addi	zero,5
    15b6:	0500                	addi	s0,sp,640
    15b8:	f652                	fsw	fs4,44(sp)
    15ba:	0048                	addi	a0,sp,4
    15bc:	0500                	addi	s0,sp,640
    15be:	00593b53          	fadd.s	fs6,fs2,ft5,rup
    15c2:	0500                	addi	s0,sp,640
    15c4:	c154                	sw	a3,4(a0)
    15c6:	05000073          	0x5000073
    15ca:	4056                	0x4056
    15cc:	002a                	0x2a
    15ce:	0500                	addi	s0,sp,640
    15d0:	00462657          	0x462657
    15d4:	0500                	addi	s0,sp,640
    15d6:	6158                	flw	fa4,4(a0)
    15d8:	0041                	c.addi	zero,16
    15da:	0500                	addi	s0,sp,640
    15dc:	6559                	lui	a0,0x16
    15de:	0056                	0x56
    15e0:	0500                	addi	s0,sp,640
    15e2:	c45a                	sw	s6,8(sp)
    15e4:	05000077          	0x5000077
    15e8:	000d725b          	0xd725b
    15ec:	0500                	addi	s0,sp,640
    15ee:	3c5c                	fld	fa5,184(s0)
    15f0:	005a                	0x5a
    15f2:	0500                	addi	s0,sp,640
    15f4:	915d                	srli	a0,a0,0x37
    15f6:	007a                	0x7a
    15f8:	0500                	addi	s0,sp,640
    15fa:	205e                	fld	ft0,464(sp)
    15fc:	0024                	addi	s1,sp,8
    15fe:	0500                	addi	s0,sp,640
    1600:	905f 004e 0500      	0x500004e905f
    1606:	0029b463          	0x29b463
    160a:	0500                	addi	s0,sp,640
    160c:	4766                	lw	a4,88(sp)
    160e:	0031                	c.addi	zero,12
    1610:	0500                	addi	s0,sp,640
    1612:	00386b67          	0x386b67
    1616:	0500                	addi	s0,sp,640
    1618:	1772                	slli	a4,a4,0x3c
    161a:	0000                	unimp
    161c:	0500                	addi	s0,sp,640
    161e:	006fbb73          	csrrc	s6,0x6,t6
    1622:	0500                	addi	s0,sp,640
    1624:	0074                	addi	a3,sp,12
    1626:	0042                	0x42
    1628:	0500                	addi	s0,sp,640
    162a:	c676                	sw	t4,12(sp)
    162c:	0044                	addi	s1,sp,4
    162e:	0500                	addi	s0,sp,640
    1630:	0070257b          	0x70257b
    1634:	0500                	addi	s0,sp,640
    1636:	0181                	addi	gp,gp,0
    1638:	00003407          	fld	fs0,0(zero) # 0 <_data-0x20000>
    163c:	8705                	srai	a4,a4,0x1
    163e:	1801                	addi	a6,a6,-32
    1640:	0500004b          	0x500004b
    1644:	018d                	addi	gp,gp,3
    1646:	2368                	fld	fa0,192(a4)
    1648:	0000                	unimp
    164a:	9105                	srli	a0,a0,0x21
    164c:	3901                	jal	125c <_data-0x1eda4>
    164e:	0500003f 02ac0195 	0x2ac01950500003f
    1656:	0000                	unimp
    1658:	9805                	andi	s0,s0,-31
    165a:	2501                	jal	1c5a <_data-0x1e3a6>
    165c:	05000017          	auipc	zero,0x5000
    1660:	5a53019b          	0x5a53019b
    1664:	0000                	unimp
    1666:	9e05                	0x9e05
    1668:	d601                	beqz	a2,1570 <_data-0x1ea90>
    166a:	0046                	0x46
    166c:	0500                	addi	s0,sp,640
    166e:	01a0                	addi	s0,sp,200
    1670:	0780                	addi	s0,sp,960
    1672:	0000                	unimp
    1674:	a105                	j	1a94 <_data-0x1e56c>
    1676:	4b01                	li	s6,0
    1678:	05000063          	beq	zero,a6,16b8 <_data-0x1e948>
    167c:	01a2                	slli	gp,gp,0x8
    167e:	0b3c                	addi	a5,sp,408
    1680:	0000                	unimp
    1682:	a405                	j	18a2 <_data-0x1e75e>
    1684:	1e01                	addi	t3,t3,-32
    1686:	0042                	0x42
    1688:	0500                	addi	s0,sp,640
    168a:	01a5                	addi	gp,gp,9
    168c:	3aea                	fld	fs5,184(sp)
    168e:	0000                	unimp
    1690:	a605                	j	19b0 <_data-0x1e650>
    1692:	9001                	srli	s0,s0,0x20
    1694:	0002                	0x2
    1696:	0500                	addi	s0,sp,640
    1698:	01ae                	slli	gp,gp,0xb
    169a:	3f21                	jal	15b2 <_data-0x1ea4e>
    169c:	0000                	unimp
    169e:	e605                	bnez	a2,16c6 <_data-0x1e93a>
    16a0:	ef04                	fsw	fs1,24(a4)
    16a2:	0079                	c.addi	zero,30
    16a4:	0500                	addi	s0,sp,640
    16a6:	04e8                	addi	a0,sp,588
    16a8:	2045                	jal	1748 <_data-0x1e8b8>
    16aa:	0000                	unimp
    16ac:	8b05                	andi	a4,a4,1
    16ae:	0c05                	addi	s8,s8,1
    16b0:	001f 0500 05a8      	0x5a80500001f
    16b6:	034d                	addi	t1,t1,19
    16b8:	0000                	unimp
    16ba:	cc05                	beqz	s0,16f2 <_data-0x1e90e>
    16bc:	6805                	lui	a6,0x1
    16be:	0044                	addi	s1,sp,4
    16c0:	0500                	addi	s0,sp,640
    16c2:	05cd                	addi	a1,a1,19
    16c4:	6d8e                	flw	fs11,192(sp)
    16c6:	0000                	unimp
    16c8:	ce05                	beqz	a2,1700 <_data-0x1e900>
    16ca:	ce05                	beqz	a2,1702 <_data-0x1e8fe>
    16cc:	0069                	c.addi	zero,26
    16ce:	0500                	addi	s0,sp,640
    16d0:	78ad05cf          	fnmadd.s	fa1,fs10,fa0,fa5,rne
    16d4:	0000                	unimp
    16d6:	d205                	beqz	a2,15f6 <_data-0x1ea0a>
    16d8:	d405                	beqz	s0,1600 <_data-0x1ea00>
    16da:	002a                	0x2a
    16dc:	0500                	addi	s0,sp,640
    16de:	34d905d3          	0x34d905d3
    16e2:	0000                	unimp
    16e4:	d405                	beqz	s0,160c <_data-0x1e9f4>
    16e6:	8a05                	andi	a2,a2,1
    16e8:	0074                	addi	a3,sp,12
    16ea:	0500                	addi	s0,sp,640
    16ec:	01c205d7          	0x1c205d7
    16f0:	0000                	unimp
    16f2:	d805                	beqz	s0,1622 <_data-0x1e9de>
    16f4:	0e05                	addi	t3,t3,1
    16f6:	05000073          	0x5000073
    16fa:	05d9                	addi	a1,a1,22
    16fc:	7e80                	flw	fs0,56(a3)
    16fe:	0000                	unimp
    1700:	e305                	bnez	a4,1720 <_data-0x1e8e0>
    1702:	0b05                	addi	s6,s6,1
    1704:	0006                	0x6
    1706:	0500                	addi	s0,sp,640
    1708:	05e4                	addi	s1,sp,716
    170a:	212a                	fld	ft2,136(sp)
    170c:	0000                	unimp
    170e:	ea05                	bnez	a2,173e <_data-0x1e8c2>
    1710:	a805                	j	1740 <_data-0x1e8c0>
    1712:	0030                	addi	a2,sp,8
    1714:	0500                	addi	s0,sp,640
    1716:	05f2                	slli	a1,a1,0x1c
    1718:	3ec5                	jal	1308 <_data-0x1ecf8>
    171a:	0000                	unimp
    171c:	f705                	bnez	a4,1644 <_data-0x1e9bc>
    171e:	2f05                	jal	1e4e <_data-0x1e1b2>
    1720:	0019                	c.addi	zero,6
    1722:	0500                	addi	s0,sp,640
    1724:	05f8                	addi	a4,sp,716
    1726:	000012c7          	fmsub.s	ft5,ft0,ft0,ft0,rtz
    172a:	fb05                	bnez	a4,165a <_data-0x1e9a6>
    172c:	4e05                	li	t3,1
    172e:	004c                	addi	a1,sp,4
    1730:	0500                	addi	s0,sp,640
    1732:	05fc                	addi	a5,sp,716
    1734:	10a1                	addi	ra,ra,-24
    1736:	0000                	unimp
    1738:	0400                	addi	s0,sp,512
    173a:	0000                	unimp
    173c:	0d05                	addi	s10,s10,1
    173e:	24c8                	fld	fa0,136(s1)
    1740:	0000                	unimp
    1742:	0e05                	addi	t3,t3,1
    1744:	000023bb          	0x23bb
    1748:	0f05                	addi	t5,t5,1
    174a:	000037bf 00000400 	0x400000037bf
    1752:	a106                	fsd	ft1,128(sp)
    1754:	3f01                	jal	1664 <_data-0x1e99c>
    1756:	006d                	c.addi	zero,27
    1758:	0600                	addi	s0,sp,768
    175a:	01ee                	slli	gp,gp,0x1b
    175c:	00003dd3          	fadd.s	fs11,ft0,ft0,rup
    1760:	db06                	sw	ra,180(sp)
    1762:	5502                	lw	a0,32(sp)
    1764:	0600000b          	0x600000b
    1768:	0391                	addi	t2,t2,4
    176a:	3f1c                	fld	fa5,56(a4)
    176c:	0000                	unimp
    176e:	9605                	srai	a2,a2,0x21
    1770:	00309703          	lh	a4,3(ra) # 4139 <_data-0x1bec7>
    1774:	0600                	addi	s0,sp,768
    1776:	039c                	addi	a5,sp,448
    1778:	3f15                	jal	16ac <_data-0x1e954>
    177a:	0000                	unimp
    177c:	a105                	j	1b9c <_data-0x1e464>
    177e:	0037f403          	0x37f403
    1782:	0000                	unimp
    1784:	0004                	0x4
    1786:	0500                	addi	s0,sp,640
    1788:	e608                	fsw	fa0,8(a2)
    178a:	002c                	addi	a1,sp,8
    178c:	0600                	addi	s0,sp,768
    178e:	e80d                	bnez	s0,17c0 <_data-0x1e840>
    1790:	0049                	c.addi	zero,18
    1792:	0500                	addi	s0,sp,640
    1794:	a210                	fsd	fa2,0(a2)
    1796:	005d                	c.addi	zero,23
    1798:	0000                	unimp
    179a:	0004                	0x4
    179c:	0500                	addi	s0,sp,640
    179e:	6e38                	flw	fa4,88(a2)
    17a0:	0054                	addi	a3,sp,4
    17a2:	0500                	addi	s0,sp,640
    17a4:	b43c                	fsd	fa5,104(s0)
    17a6:	007d                	c.addi	zero,31
    17a8:	0500                	addi	s0,sp,640
    17aa:	8b3d                	andi	a4,a4,15
    17ac:	0018                	0x18
    17ae:	0500                	addi	s0,sp,640
    17b0:	0035c23f e8430500 	0xe84305000035c23f
    17b8:	0040                	addi	s0,sp,4
    17ba:	0500                	addi	s0,sp,640
    17bc:	732e01a3          	sb	s2,1827(t3) # fffea723 <__EH_FRAME_BEGIN__+0x7ffe947b>
    17c0:	0000                	unimp
    17c2:	0400                	addi	s0,sp,512
    17c4:	0000                	unimp
    17c6:	0205                	addi	tp,tp,1
    17c8:	10d4                	addi	a3,sp,100
    17ca:	0000                	unimp
    17cc:	0905                	addi	s2,s2,1
    17ce:	24c8                	fld	fa0,136(s1)
    17d0:	0000                	unimp
    17d2:	0a05                	addi	s4,s4,1
    17d4:	646c                	flw	fa1,76(s0)
    17d6:	0000                	unimp
    17d8:	0400                	addi	s0,sp,512
    17da:	0000                	unimp
    17dc:	9c05                	0x9c05
    17de:	8701                	srai	a4,a4,0x0
    17e0:	002e                	0x2e
    17e2:	0500                	addi	s0,sp,640
    17e4:	019d                	addi	gp,gp,7
    17e6:	3dfa                	fld	fs11,440(sp)
    17e8:	0000                	unimp
    17ea:	9e05                	0x9e05
    17ec:	fc01                	bnez	s0,1704 <_data-0x1e8fc>
    17ee:	0028                	addi	a0,sp,8
    17f0:	0500                	addi	s0,sp,640
    17f2:	019f 3565 0000      	0x3565019f
    17f8:	a105                	j	1c18 <_data-0x1e3e8>
    17fa:	3302                	fld	ft6,32(sp)
    17fc:	0022                	0x22
    17fe:	0500                	addi	s0,sp,640
    1800:	02a2                	slli	t0,t0,0x8
    1802:	7131                	addi	sp,sp,-192
    1804:	0000                	unimp
    1806:	a305                	j	1d26 <_data-0x1e2da>
    1808:	af02                	fsd	ft0,408(sp)
    180a:	0500007b          	0x500007b
    180e:	02a4                	addi	s1,sp,328
    1810:	24e5                	jal	1af8 <_data-0x1e508>
    1812:	0000                	unimp
    1814:	a605                	j	1b34 <_data-0x1e4cc>
    1816:	ac02                	fsd	ft0,24(sp)
    1818:	0002                	0x2
    181a:	0500                	addi	s0,sp,640
    181c:	172502a7          	0x172502a7
    1820:	0000                	unimp
    1822:	a805                	j	1852 <_data-0x1e7ae>
    1824:	5302                	lw	t1,32(sp)
    1826:	005a                	0x5a
    1828:	0500                	addi	s0,sp,640
    182a:	02ac                	addi	a1,sp,328
    182c:	0d40                	addi	s0,sp,660
    182e:	0000                	unimp
    1830:	ad05                	j	1e60 <_data-0x1e1a0>
    1832:	6302                	flw	ft6,0(sp)
    1834:	000e                	0xe
    1836:	0500                	addi	s0,sp,640
    1838:	02ae                	slli	t0,t0,0xb
    183a:	70c2                	flw	ft1,48(sp)
    183c:	0000                	unimp
    183e:	b405                	j	125e <_data-0x1eda2>
    1840:	6002                	flw	ft0,0(sp)
    1842:	05000057          	0x5000057
    1846:	02b5                	addi	t0,t0,13
    1848:	2cd6                	fld	fs9,336(sp)
    184a:	0000                	unimp
    184c:	b605                	j	136c <_data-0x1ec94>
    184e:	ec02                	fsw	ft0,24(sp)
    1850:	003d                	c.addi	zero,15
    1852:	0500                	addi	s0,sp,640
    1854:	73ce02b7          	lui	t0,0x73ce0
    1858:	0000                	unimp
    185a:	b805                	j	108a <_data-0x1ef76>
    185c:	0a02                	slli	s4,s4,0x0
    185e:	0080                	addi	s0,sp,64
    1860:	0500                	addi	s0,sp,640
    1862:	02b9                	addi	t0,t0,14
    1864:	7889                	lui	a7,0xfffe2
    1866:	0000                	unimp
    1868:	ba05                	j	1198 <_data-0x1ee68>
    186a:	5402                	lw	s0,32(sp)
    186c:	05000027          	0x5000027
    1870:	24d702bb          	0x24d702bb
    1874:	0000                	unimp
    1876:	bc05                	j	12a6 <_data-0x1ed5a>
    1878:	f002                	fsw	ft0,32(sp)
    187a:	0008                	0x8
    187c:	0500                	addi	s0,sp,640
    187e:	02bd                	addi	t0,t0,15
    1880:	00005d87          	0x5d87
    1884:	c005                	beqz	s0,18a4 <_data-0x1e75c>
    1886:	7202                	flw	ft4,32(sp)
    1888:	0082                	slli	ra,ra,0x0
    188a:	0500                	addi	s0,sp,640
    188c:	02c1                	addi	t0,t0,16
    188e:	0000568b          	0x568b
    1892:	c205                	beqz	a2,18b2 <_data-0x1e74e>
    1894:	0202                	slli	tp,tp,0x0
    1896:	006c                	addi	a1,sp,12
    1898:	0500                	addi	s0,sp,640
    189a:	149902c3          	0x149902c3
    189e:	0000                	unimp
    18a0:	c505                	beqz	a0,18c8 <_data-0x1e738>
    18a2:	f902                	fsw	ft0,176(sp)
    18a4:	0046                	0x46
    18a6:	0500                	addi	s0,sp,640
    18a8:	02c6                	slli	t0,t0,0x11
    18aa:	076d                	addi	a4,a4,27
    18ac:	0000                	unimp
    18ae:	c705                	beqz	a4,18d6 <_data-0x1e72a>
    18b0:	ba02                	fsd	ft0,304(sp)
    18b2:	0500002f          	0x500002f
    18b6:	02c8                	addi	a0,sp,324
    18b8:	5ef8                	lw	a4,124(a3)
    18ba:	0000                	unimp
    18bc:	c905                	beqz	a0,18ec <_data-0x1e714>
    18be:	9802                	jalr	a6
    18c0:	05000023          	sb	a6,64(zero) # 500169c <__global_pointer$+0x4fe066c>
    18c4:	02ca                	slli	t0,t0,0x12
    18c6:	2d10                	fld	fa2,24(a0)
    18c8:	0000                	unimp
    18ca:	cb05                	beqz	a4,18fa <_data-0x1e706>
    18cc:	6902                	flw	fs2,0(sp)
    18ce:	0012                	0x12
    18d0:	0500                	addi	s0,sp,640
    18d2:	02cc                	addi	a1,sp,324
    18d4:	000056a3          	0x56a3
    18d8:	cd05                	beqz	a0,1910 <_data-0x1e6f0>
    18da:	e402                	fsw	ft0,8(sp)
    18dc:	0072                	0x72
    18de:	0500                	addi	s0,sp,640
    18e0:	02ce                	slli	t0,t0,0x13
    18e2:	592e                	lw	s2,232(sp)
    18e4:	0000                	unimp
    18e6:	cf05                	beqz	a4,191e <_data-0x1e6e2>
    18e8:	b202                	fsd	ft0,288(sp)
    18ea:	004a                	0x4a
    18ec:	0500                	addi	s0,sp,640
    18ee:	02d0                	addi	a2,sp,324
    18f0:	6689                	lui	a3,0x2
    18f2:	0000                	unimp
    18f4:	d105                	beqz	a0,1814 <_data-0x1e7ec>
    18f6:	3d02                	fld	fs10,32(sp)
    18f8:	005e                	0x5e
    18fa:	0500                	addi	s0,sp,640
    18fc:	02d2                	slli	t0,t0,0x14
    18fe:	000010e3          	bnez	zero,20fe <_data-0x1df02>
    1902:	d305                	beqz	a4,1822 <_data-0x1e7de>
    1904:	bc02                	fsd	ft0,56(sp)
    1906:	003d                	c.addi	zero,15
    1908:	0500                	addi	s0,sp,640
    190a:	02d4                	addi	a3,sp,324
    190c:	102d                	c.addi	zero,-21
    190e:	0000                	unimp
    1910:	d505                	beqz	a0,1838 <_data-0x1e7c8>
    1912:	1502                	slli	a0,a0,0x20
    1914:	05000057          	0x5000057
    1918:	02d6                	slli	t0,t0,0x15
    191a:	245a                	fld	fs0,400(sp)
    191c:	0000                	unimp
    191e:	d705                	beqz	a4,1846 <_data-0x1e7ba>
    1920:	fe02                	fsw	ft0,60(sp)
    1922:	05000023          	sb	a6,64(zero) # 40 <_data-0x1ffc0>
    1926:	02d8                	addi	a4,sp,324
    1928:	80a1                	srli	s1,s1,0x8
    192a:	0000                	unimp
    192c:	d905                	beqz	a0,185c <_data-0x1e7a4>
    192e:	0a02                	slli	s4,s4,0x0
    1930:	0018                	0x18
    1932:	0500                	addi	s0,sp,640
    1934:	02da                	slli	t0,t0,0x16
    1936:	1372                	slli	t1,t1,0x3c
    1938:	0000                	unimp
    193a:	db05                	beqz	a4,186a <_data-0x1e796>
    193c:	f802                	fsw	ft0,48(sp)
    193e:	05000033          	0x5000033
    1942:	02dc                	addi	a5,sp,324
    1944:	5cee                	lw	s9,248(sp)
    1946:	0000                	unimp
    1948:	dd05                	beqz	a0,1880 <_data-0x1e780>
    194a:	c702                	sw	zero,140(sp)
    194c:	0078                	addi	a4,sp,12
    194e:	0500                	addi	s0,sp,640
    1950:	02de                	slli	t0,t0,0x17
    1952:	2e91                	jal	1ca6 <_data-0x1e35a>
    1954:	0000                	unimp
    1956:	df05                	beqz	a4,188e <_data-0x1e772>
    1958:	8102                	jr	sp
    195a:	002c                	addi	a1,sp,8
    195c:	0500                	addi	s0,sp,640
    195e:	02e0                	addi	s0,sp,332
    1960:	00000bf3          	0xbf3
    1964:	e105                	bnez	a0,1984 <_data-0x1e67c>
    1966:	4c02                	lw	s8,0(sp)
    1968:	0062                	0x62
    196a:	0500                	addi	s0,sp,640
    196c:	02e2                	slli	t0,t0,0x18
    196e:	17f1                	addi	a5,a5,-4
    1970:	0000                	unimp
    1972:	e305                	bnez	a4,1992 <_data-0x1e66e>
    1974:	ae02                	fsd	ft0,280(sp)
    1976:	007c                	addi	a5,sp,12
    1978:	0500                	addi	s0,sp,640
    197a:	02e4                	addi	s1,sp,332
    197c:	3b29                	jal	1696 <_data-0x1e96a>
    197e:	0000                	unimp
    1980:	e505                	bnez	a0,19a8 <_data-0x1e658>
    1982:	5202                	lw	tp,32(sp)
    1984:	0022                	0x22
    1986:	0500                	addi	s0,sp,640
    1988:	02e6                	slli	t0,t0,0x19
    198a:	6635                	lui	a2,0xd
    198c:	0000                	unimp
    198e:	e805                	bnez	s0,19be <_data-0x1e642>
    1990:	9002                	ebreak
    1992:	000a                	0xa
    1994:	0500                	addi	s0,sp,640
    1996:	02e9                	addi	t0,t0,26
    1998:	7092                	flw	ft1,36(sp)
    199a:	0000                	unimp
    199c:	ea05                	bnez	a2,19cc <_data-0x1e634>
    199e:	7b02                	flw	fs6,32(sp)
    19a0:	05000077          	0x5000077
    19a4:	78ed02eb          	0x78ed02eb
    19a8:	0000                	unimp
    19aa:	ec05                	bnez	s0,19e2 <_data-0x1e61e>
    19ac:	2e02                	fld	ft8,0(sp)
    19ae:	05000053          	0x5000053
    19b2:	02ed                	addi	t0,t0,27
    19b4:	4d15                	li	s10,5
    19b6:	0000                	unimp
    19b8:	ee05                	bnez	a2,19f0 <_data-0x1e610>
    19ba:	1002                	0x1002
    19bc:	0046                	0x46
    19be:	0500                	addi	s0,sp,640
    19c0:	17cd02ef          	jal	t0,d1b3c <__global_pointer$+0xb0b0c>
    19c4:	0000                	unimp
    19c6:	f005                	bnez	s0,18e6 <_data-0x1e71a>
    19c8:	e802                	fsw	ft0,16(sp)
    19ca:	0038                	addi	a4,sp,8
    19cc:	0500                	addi	s0,sp,640
    19ce:	02f1                	addi	t0,t0,28
    19d0:	596a                	lw	s2,184(sp)
    19d2:	0000                	unimp
    19d4:	f205                	bnez	a2,18f4 <_data-0x1e70c>
    19d6:	8302                	jr	t1
    19d8:	0010                	0x10
    19da:	0500                	addi	s0,sp,640
    19dc:	2e3702f3          	0x2e3702f3
    19e0:	0000                	unimp
    19e2:	f405                	bnez	s0,190a <_data-0x1e6f6>
    19e4:	fe02                	fsw	ft0,60(sp)
    19e6:	0045                	c.addi	zero,17
    19e8:	0500                	addi	s0,sp,640
    19ea:	02f5                	addi	t0,t0,29
    19ec:	4065                	0x4065
    19ee:	0000                	unimp
    19f0:	f605                	bnez	a2,1918 <_data-0x1e6e8>
    19f2:	e102                	fsw	ft0,128(sp)
    19f4:	0048                	addi	a0,sp,4
    19f6:	0500                	addi	s0,sp,640
    19f8:	3bd602f7          	0x3bd602f7
    19fc:	0000                	unimp
    19fe:	f805                	bnez	s0,192e <_data-0x1e6d2>
    1a00:	e102                	fsw	ft0,128(sp)
    1a02:	0046                	0x46
    1a04:	0500                	addi	s0,sp,640
    1a06:	02f9                	addi	t0,t0,30
    1a08:	5d62                	lw	s10,56(sp)
    1a0a:	0000                	unimp
    1a0c:	fa05                	bnez	a2,193c <_data-0x1e6c4>
    1a0e:	4d02                	lw	s10,0(sp)
    1a10:	002a                	0x2a
    1a12:	0500                	addi	s0,sp,640
    1a14:	49ef02fb          	0x49ef02fb
    1a18:	0000                	unimp
    1a1a:	fc05                	bnez	s0,1952 <_data-0x1e6ae>
    1a1c:	6f02                	flw	ft10,0(sp)
    1a1e:	006d                	c.addi	zero,27
    1a20:	0500                	addi	s0,sp,640
    1a22:	02fd                	addi	t0,t0,31
    1a24:	00003e13          	sltiu	t3,zero,0
    1a28:	fe05                	bnez	a2,1960 <_data-0x1e6a0>
    1a2a:	8d02                	jr	s10
    1a2c:	001e                	0x1e
    1a2e:	0500                	addi	s0,sp,640
    1a30:	02ff                	0x2ff
    1a32:	7f86                	flw	ft11,96(sp)
    1a34:	0000                	unimp
    1a36:	8005                	srli	s0,s0,0x1
    1a38:	001ad403          	lhu	s0,1(s5) # 5001 <_data-0x1afff>
    1a3c:	0500                	addi	s0,sp,640
    1a3e:	0381                	addi	t2,t2,0
    1a40:	000022bf ad038205 	0xad038205000022bf
    1a48:	05000023          	sb	a6,64(zero) # 40 <_data-0x1ffc0>
    1a4c:	42380383          	lb	t2,1059(a6) # 1423 <_data-0x1ebdd>
    1a50:	0000                	unimp
    1a52:	8405                	srai	s0,s0,0x1
    1a54:	00490403          	lb	s0,4(s2) # 1004 <_data-0x1effc>
    1a58:	0500                	addi	s0,sp,640
    1a5a:	0385                	addi	t2,t2,1
    1a5c:	3ed2                	fld	ft9,304(sp)
    1a5e:	0000                	unimp
    1a60:	8605                	srai	a2,a2,0x1
    1a62:	00385903          	lhu	s2,3(a6)
    1a66:	0500                	addi	s0,sp,640
    1a68:	42d90387          	0x42d90387
    1a6c:	0000                	unimp
    1a6e:	8805                	andi	s0,s0,1
    1a70:	0082b103          	0x82b103
    1a74:	0500                	addi	s0,sp,640
    1a76:	0389                	addi	t2,t2,2
    1a78:	3b91                	jal	17cc <_data-0x1e834>
    1a7a:	0000                	unimp
    1a7c:	8a05                	andi	a2,a2,1
    1a7e:	005d7103          	0x5d7103
    1a82:	0500                	addi	s0,sp,640
    1a84:	5d44038b          	0x5d44038b
    1a88:	0000                	unimp
    1a8a:	8c05                	sub	s0,s0,s1
    1a8c:	0063ad03          	lw	s10,6(t2)
    1a90:	0500                	addi	s0,sp,640
    1a92:	038d                	addi	t2,t2,3
    1a94:	6ae1                	lui	s5,0x18
    1a96:	0000                	unimp
    1a98:	8e05                	sub	a2,a2,s1
    1a9a:	00012103          	lw	sp,0(sp)
    1a9e:	0500                	addi	s0,sp,640
    1aa0:	2a95038f          	0x2a95038f
    1aa4:	0000                	unimp
    1aa6:	9005                	srli	s0,s0,0x21
    1aa8:	005f9f03          	lh	t5,5(t6) # fffe7005 <__EH_FRAME_BEGIN__+0x7ffe5d5d>
    1aac:	0500                	addi	s0,sp,640
    1aae:	0391                	addi	t2,t2,4
    1ab0:	6151                	addi	sp,sp,272
    1ab2:	0000                	unimp
    1ab4:	9205                	srli	a2,a2,0x21
    1ab6:	007ddc03          	lhu	s8,7(s11) # 18007 <_data-0x7ff9>
    1aba:	0500                	addi	s0,sp,640
    1abc:	5fe60393          	addi	t2,a2,1534 # d5fe <_data-0x12a02>
    1ac0:	0000                	unimp
    1ac2:	9405                	srai	s0,s0,0x21
    1ac4:	00086e03          	0x86e03
    1ac8:	0500                	addi	s0,sp,640
    1aca:	0395                	addi	t2,t2,5
    1acc:	0405                	addi	s0,s0,1
    1ace:	0000                	unimp
    1ad0:	9605                	srai	a2,a2,0x21
    1ad2:	00043703          	0x43703
    1ad6:	0500                	addi	s0,sp,640
    1ad8:	7af00397          	auipc	t2,0x7af00
    1adc:	0000                	unimp
    1ade:	9805                	andi	s0,s0,-31
    1ae0:	003bae03          	lw	t3,3(s7)
    1ae4:	0500                	addi	s0,sp,640
    1ae6:	0399                	addi	t2,t2,6
    1ae8:	398d                	jal	175a <_data-0x1e8a6>
    1aea:	0000                	unimp
    1aec:	9a05                	andi	a2,a2,-31
    1aee:	00348503          	lb	a0,3(s1) # fffe9003 <__EH_FRAME_BEGIN__+0x7ffe7d5b>
    1af2:	0500                	addi	s0,sp,640
    1af4:	6c6a039b          	0x6c6a039b
    1af8:	0000                	unimp
    1afa:	9c05                	0x9c05
    1afc:	002da703          	lw	a4,2(s11)
    1b00:	0500                	addi	s0,sp,640
    1b02:	039d                	addi	t2,t2,7
    1b04:	03a0                	addi	s0,sp,456
    1b06:	0000                	unimp
    1b08:	9e05                	0x9e05
    1b0a:	00543303          	0x543303
    1b0e:	0500                	addi	s0,sp,640
    1b10:	039f 7eca 0000      	0x7eca039f
    1b16:	a005                	j	1b36 <_data-0x1e4ca>
    1b18:	00301b03          	lh	s6,3(zero) # 3 <_data-0x1fffd>
    1b1c:	0500                	addi	s0,sp,640
    1b1e:	03a1                	addi	t2,t2,8
    1b20:	64b4                	flw	fa3,72(s1)
    1b22:	0000                	unimp
    1b24:	a205                	j	1c44 <_data-0x1e3bc>
    1b26:	005d3103          	0x5d3103
    1b2a:	0500                	addi	s0,sp,640
    1b2c:	3d5d03a3          	sb	s5,967(s10)
    1b30:	0000                	unimp
    1b32:	a405                	j	1d52 <_data-0x1e2ae>
    1b34:	00548503          	lb	a0,5(s1)
    1b38:	0500                	addi	s0,sp,640
    1b3a:	03a5                	addi	t2,t2,9
    1b3c:	6bec                	flw	fa1,84(a5)
    1b3e:	0000                	unimp
    1b40:	a605                	j	1e60 <_data-0x1e1a0>
    1b42:	00260903          	lb	s2,2(a2)
    1b46:	0500                	addi	s0,sp,640
    1b48:	508403a7          	0x508403a7
    1b4c:	0000                	unimp
    1b4e:	a805                	j	1b7e <_data-0x1e482>
    1b50:	003e8a03          	lb	s4,3(t4) # ffff8003 <__EH_FRAME_BEGIN__+0x7fff6d5b>
    1b54:	0500                	addi	s0,sp,640
    1b56:	03a9                	addi	t2,t2,10
    1b58:	425a                	lw	tp,148(sp)
    1b5a:	0000                	unimp
    1b5c:	aa05                	j	1c8c <_data-0x1e374>
    1b5e:	007d8103          	lb	sp,7(s11)
    1b62:	0500                	addi	s0,sp,640
    1b64:	074103ab          	0x74103ab
    1b68:	0000                	unimp
    1b6a:	ac05                	j	1d9a <_data-0x1e266>
    1b6c:	002f8e03          	lb	t3,2(t6)
    1b70:	0500                	addi	s0,sp,640
    1b72:	03ad                	addi	t2,t2,11
    1b74:	3441                	jal	15f4 <_data-0x1ea0c>
    1b76:	0000                	unimp
    1b78:	ae05                	j	1ea8 <_data-0x1e158>
    1b7a:	0025b603          	0x25b603
    1b7e:	0500                	addi	s0,sp,640
    1b80:	31c603af          	0x31c603af
    1b84:	0000                	unimp
    1b86:	b005                	j	13a6 <_data-0x1ec5a>
    1b88:	0004d703          	lhu	a4,0(s1)
    1b8c:	0500                	addi	s0,sp,640
    1b8e:	03b1                	addi	t2,t2,12
    1b90:	09d4                	addi	a3,sp,212
    1b92:	0000                	unimp
    1b94:	b205                	j	14b4 <_data-0x1eb4c>
    1b96:	004d0103          	lb	sp,4(s10)
    1b9a:	0500                	addi	s0,sp,640
    1b9c:	5d1c03b3          	0x5d1c03b3
    1ba0:	0000                	unimp
    1ba2:	b405                	j	15c2 <_data-0x1ea3e>
    1ba4:	003a7303          	0x3a7303
    1ba8:	0500                	addi	s0,sp,640
    1baa:	03b5                	addi	t2,t2,13
    1bac:	1730                	addi	a2,sp,936
    1bae:	0000                	unimp
    1bb0:	b605                	j	16d0 <_data-0x1e930>
    1bb2:	00545903          	lhu	s2,5(s0) # 1005 <_data-0x1effb>
    1bb6:	0500                	addi	s0,sp,640
    1bb8:	371503b7          	lui	t2,0x37150
    1bbc:	0000                	unimp
    1bbe:	b805                	j	13ee <_data-0x1ec12>
    1bc0:	002bbd03          	0x2bbd03
    1bc4:	0500                	addi	s0,sp,640
    1bc6:	03b9                	addi	t2,t2,14
    1bc8:	00001caf          	0x1caf
    1bcc:	ba05                	j	14fc <_data-0x1eb04>
    1bce:	0036f803          	0x36f803
    1bd2:	0500                	addi	s0,sp,640
    1bd4:	42f003bb          	0x42f003bb
    1bd8:	0000                	unimp
    1bda:	bc05                	j	160a <_data-0x1e9f6>
    1bdc:	00666603          	0x666603
    1be0:	0500                	addi	s0,sp,640
    1be2:	03bd                	addi	t2,t2,15
    1be4:	8069                	srli	s0,s0,0x1a
    1be6:	0000                	unimp
    1be8:	be05                	j	1718 <_data-0x1e8e8>
    1bea:	003f7703          	0x3f7703
    1bee:	0500                	addi	s0,sp,640
    1bf0:	2c3203bf c0050000 	0xc00500002c3203bf
    1bf8:	007a6903          	0x7a6903
    1bfc:	0500                	addi	s0,sp,640
    1bfe:	03c1                	addi	t2,t2,16
    1c00:	4046                	0x4046
    1c02:	0000                	unimp
    1c04:	c205                	beqz	a2,1c24 <_data-0x1e3dc>
    1c06:	00214e03          	lbu	t3,2(sp)
    1c0a:	0500                	addi	s0,sp,640
    1c0c:	5e7b03c3          	fmadd.q	ft7,fs6,ft7,fa1,rne
    1c10:	0000                	unimp
    1c12:	c405                	beqz	s0,1c3a <_data-0x1e3c6>
    1c14:	000b1203          	lh	tp,0(s6) # 1000 <_data-0x1f000>
    1c18:	0500                	addi	s0,sp,640
    1c1a:	03c5                	addi	t2,t2,17
    1c1c:	00002ae7          	0x2ae7
    1c20:	c605                	beqz	a2,1c48 <_data-0x1e3b8>
    1c22:	003c6403          	0x3c6403
    1c26:	0500                	addi	s0,sp,640
    1c28:	0d2203c7          	0xd2203c7
    1c2c:	0000                	unimp
    1c2e:	c805                	beqz	s0,1c5e <_data-0x1e3a2>
    1c30:	00266503          	0x266503
    1c34:	0500                	addi	s0,sp,640
    1c36:	03c9                	addi	t2,t2,18
    1c38:	00000e33          	add	t3,zero,zero
    1c3c:	ca05                	beqz	a2,1c6c <_data-0x1e394>
    1c3e:	001f6503          	0x1f6503
    1c42:	0500                	addi	s0,sp,640
    1c44:	3c7f03cb          	0x3c7f03cb
    1c48:	0000                	unimp
    1c4a:	cc05                	beqz	s0,1c82 <_data-0x1e37e>
    1c4c:	000a5203          	lhu	tp,0(s4) # fffe0000 <__EH_FRAME_BEGIN__+0x7ffded58>
    1c50:	0500                	addi	s0,sp,640
    1c52:	03cd                	addi	t2,t2,19
    1c54:	4fa0                	lw	s0,88(a5)
    1c56:	0000                	unimp
    1c58:	ce05                	beqz	a2,1c90 <_data-0x1e370>
    1c5a:	00722203          	lw	tp,7(tp) # fffea007 <__EH_FRAME_BEGIN__+0x7ffe8d5f>
    1c5e:	0500                	addi	s0,sp,640
    1c60:	03d4                	addi	a3,sp,452
    1c62:	6364                	flw	fs1,68(a4)
    1c64:	0000                	unimp
    1c66:	d505                	beqz	a0,1b8e <_data-0x1e472>
    1c68:	0076d703          	lhu	a4,7(a3) # 2007 <_data-0x1dff9>
    1c6c:	0500                	addi	s0,sp,640
    1c6e:	03d6                	slli	t2,t2,0x15
    1c70:	3eec                	fld	fa1,248(a3)
    1c72:	0000                	unimp
    1c74:	d705                	beqz	a4,1b9c <_data-0x1e464>
    1c76:	00075e03          	lhu	t3,0(a4) # ffff1000 <__EH_FRAME_BEGIN__+0x7ffefd58>
    1c7a:	0500                	addi	s0,sp,640
    1c7c:	03d8                	addi	a4,sp,452
    1c7e:	33ae                	fld	ft7,232(sp)
    1c80:	0000                	unimp
    1c82:	d905                	beqz	a0,1bb2 <_data-0x1e44e>
    1c84:	0011ff03          	0x11ff03
    1c88:	0500                	addi	s0,sp,640
    1c8a:	03da                	slli	t2,t2,0x16
    1c8c:	2d90                	fld	fa2,24(a1)
    1c8e:	0000                	unimp
    1c90:	db05                	beqz	a4,1bc0 <_data-0x1e440>
    1c92:	0000b503          	0xb503
    1c96:	0500                	addi	s0,sp,640
    1c98:	03dc                	addi	a5,sp,452
    1c9a:	044d                	addi	s0,s0,19
    1c9c:	0000                	unimp
    1c9e:	dd05                	beqz	a0,1bd6 <_data-0x1e42a>
    1ca0:	00068403          	lb	s0,0(a3)
    1ca4:	0500                	addi	s0,sp,640
    1ca6:	03de                	slli	t2,t2,0x17
    1ca8:	00003043          	fmadd.s	ft0,ft0,ft0,ft0,rup
    1cac:	df05                	beqz	a4,1be4 <_data-0x1e41c>
    1cae:	00095c03          	lhu	s8,0(s2)
    1cb2:	0500                	addi	s0,sp,640
    1cb4:	03e0                	addi	s0,sp,460
    1cb6:	00006a07          	0x6a07
    1cba:	e105                	bnez	a0,1cda <_data-0x1e326>
    1cbc:	00708003          	lb	zero,7(ra)
    1cc0:	0500                	addi	s0,sp,640
    1cc2:	03e2                	slli	t2,t2,0x18
    1cc4:	4d2d                	li	s10,11
    1cc6:	0000                	unimp
    1cc8:	e305                	bnez	a4,1ce8 <_data-0x1e318>
    1cca:	00211403          	lh	s0,2(sp)
    1cce:	0500                	addi	s0,sp,640
    1cd0:	03e4                	addi	s1,sp,460
    1cd2:	237e                	fld	ft6,472(sp)
    1cd4:	0000                	unimp
    1cd6:	e505                	bnez	a0,1cfe <_data-0x1e302>
    1cd8:	0080b803          	0x80b803
    1cdc:	0500                	addi	s0,sp,640
    1cde:	03e6                	slli	t2,t2,0x19
    1ce0:	63bd                	lui	t2,0xf
    1ce2:	0000                	unimp
    1ce4:	e705                	bnez	a4,1d0c <_data-0x1e2f4>
    1ce6:	000abe03          	0xabe03
    1cea:	0500                	addi	s0,sp,640
    1cec:	03e8                	addi	a0,sp,460
    1cee:	2fff                	0x2fff
    1cf0:	0000                	unimp
    1cf2:	0400                	addi	s0,sp,512
    1cf4:	0000                	unimp
    1cf6:	0805                	addi	a6,a6,1
    1cf8:	6705                	lui	a4,0x1
    1cfa:	0000                	unimp
    1cfc:	0f05                	addi	t5,t5,1
    1cfe:	24c8                	fld	fa0,136(s1)
    1d00:	0000                	unimp
    1d02:	1005                	c.addi	zero,-31
    1d04:	000037bf 00000400 	0x400000037bf
    1d0c:	0a05                	addi	s4,s4,1
    1d0e:	76fa                	flw	fa3,188(sp)
    1d10:	0000                	unimp
    1d12:	1005                	c.addi	zero,-31
    1d14:	43e6                	lw	t2,88(sp)
    1d16:	0000                	unimp
    1d18:	2a06                	fld	fs4,64(sp)
    1d1a:	2864                	fld	fs1,208(s0)
    1d1c:	0000                	unimp
    1d1e:	2b06                	fld	fs6,64(sp)
    1d20:	66cd                	lui	a3,0x13
    1d22:	0000                	unimp
    1d24:	2c06                	fld	fs8,64(sp)
    1d26:	067f                	0x67f
    1d28:	0000                	unimp
    1d2a:	2d06                	fld	fs10,64(sp)
    1d2c:	512e                	lw	sp,232(sp)
    1d2e:	0000                	unimp
    1d30:	2e02                	fld	ft8,0(sp)
    1d32:	6e69                	lui	t3,0x1a
    1d34:	0074                	addi	a3,sp,12
    1d36:	2f06                	fld	ft10,64(sp)
    1d38:	8190                	0x8190
    1d3a:	0000                	unimp
    1d3c:	3006                	fld	ft0,96(sp)
    1d3e:	00004dc3          	fmadd.s	fs11,ft0,ft0,ft0,rmm
    1d42:	3105                	jal	1962 <_data-0x1e69e>
    1d44:	7a4c                	flw	fa1,52(a2)
    1d46:	0000                	unimp
    1d48:	3205                	jal	1668 <_data-0x1e998>
    1d4a:	7a4a                	flw	fs4,176(sp)
    1d4c:	0000                	unimp
    1d4e:	3305                	jal	1a6e <_data-0x1e592>
    1d50:	00006373          	csrrsi	t1,0x0,0
    1d54:	3405                	jal	1774 <_data-0x1e88c>
    1d56:	745c                	flw	fa5,44(s0)
    1d58:	0000                	unimp
    1d5a:	3505                	jal	1b7a <_data-0x1e486>
    1d5c:	004d                	c.addi	zero,19
    1d5e:	0000                	unimp
    1d60:	3605                	jal	1880 <_data-0x1e780>
    1d62:	39d4                	fld	fa3,176(a1)
    1d64:	0000                	unimp
    1d66:	3705                	jal	1c86 <_data-0x1e37a>
    1d68:	00007d97          	auipc	s11,0x7
    1d6c:	4005                	0x4005
    1d6e:	333a                	fld	ft6,424(sp)
    1d70:	0000                	unimp
    1d72:	4705                	li	a4,1
    1d74:	7df2                	flw	fs11,60(sp)
    1d76:	0000                	unimp
    1d78:	4f05                	li	t5,1
    1d7a:	00000897          	auipc	a7,0x0
    1d7e:	5a05                	li	s4,-31
    1d80:	4865                	li	a6,25
    1d82:	0000                	unimp
    1d84:	6505                	lui	a0,0x1
    1d86:	7302                	flw	ft6,32(sp)
    1d88:	0000                	unimp
    1d8a:	6e05                	lui	t3,0x1
    1d8c:	7c8c                	flw	fa1,56(s1)
    1d8e:	0000                	unimp
    1d90:	7505                	lui	a0,0xfffe1
    1d92:	6b29                	lui	s6,0xa
    1d94:	0000                	unimp
    1d96:	7e05                	lui	t3,0xfffe1
    1d98:	1800                	addi	s0,sp,48
    1d9a:	0000                	unimp
    1d9c:	8505                	srai	a0,a0,0x1
    1d9e:	3101                	jal	199e <_data-0x1e662>
    1da0:	0070                	addi	a2,sp,12
    1da2:	0500                	addi	s0,sp,640
    1da4:	0190                	addi	a2,sp,192
    1da6:	391e                	fld	fs2,480(sp)
    1da8:	0000                	unimp
    1daa:	9405                	srai	s0,s0,0x21
    1dac:	c801                	beqz	s0,1dbc <_data-0x1e244>
    1dae:	0028                	addi	a0,sp,8
    1db0:	0500                	addi	s0,sp,640
    1db2:	019f 032e 0000      	0x32e019f
    1db8:	aa05                	j	1ee8 <_data-0x1e118>
    1dba:	1f01                	addi	t5,t5,-32
    1dbc:	0010                	0x10
    1dbe:	0500                	addi	s0,sp,640
    1dc0:	578201b3          	0x578201b3
    1dc4:	0000                	unimp
    1dc6:	b506                	fsd	ft1,168(sp)
    1dc8:	6401                	0x6401
    1dca:	0028                	addi	a0,sp,8
    1dcc:	0600                	addi	s0,sp,768
    1dce:	01b6                	slli	gp,gp,0xd
    1dd0:	66cd                	lui	a3,0x13
    1dd2:	0000                	unimp
    1dd4:	b706                	fsd	ft1,424(sp)
    1dd6:	7f01                	lui	t5,0xfffe0
    1dd8:	0006                	0x6
    1dda:	0600                	addi	s0,sp,768
    1ddc:	01b8                	addi	a4,sp,200
    1dde:	512e                	lw	sp,232(sp)
    1de0:	0000                	unimp
    1de2:	b902                	fsd	ft0,176(sp)
    1de4:	6901                	0x6901
    1de6:	746e                	flw	fs0,248(sp)
    1de8:	0600                	addi	s0,sp,768
    1dea:	01ba                	slli	gp,gp,0xe
    1dec:	00004dc3          	fmadd.s	fs11,ft0,ft0,ft0,rmm
    1df0:	bf06                	fsd	ft1,440(sp)
    1df2:	9001                	srli	s0,s0,0x20
    1df4:	0081                	addi	ra,ra,0
    1df6:	0000                	unimp
    1df8:	0004                	0x4
    1dfa:	0500                	addi	s0,sp,640
    1dfc:	004a4117          	auipc	sp,0x4a4
    1e00:	0500                	addi	s0,sp,640
    1e02:	581d                	li	a6,-25
    1e04:	05000013          	li	zero,80
    1e08:	00312523          	sw	gp,10(sp) # 4a5e06 <__global_pointer$+0x484dd6>
    1e0c:	0500                	addi	s0,sp,640
    1e0e:	5529                	li	a0,-22
    1e10:	05000043          	0x5000043
    1e14:	1b35                	addi	s6,s6,-19
    1e16:	05000033          	0x5000033
    1e1a:	0047eb3f 3e490500 	0x3e4905000047eb3f
    1e22:	000c                	0xc
    1e24:	0500                	addi	s0,sp,640
    1e26:	00218253          	fadd.s	ft4,ft3,ft2,rne
    1e2a:	0500                	addi	s0,sp,640
    1e2c:	0180                	addi	s0,sp,192
    1e2e:	81e8                	0x81e8
    1e30:	0000                	unimp
    1e32:	8105                	srli	a0,a0,0x1
    1e34:	7a01                	lui	s4,0xfffe0
    1e36:	006a                	0x6a
    1e38:	0500                	addi	s0,sp,640
    1e3a:	0182                	slli	gp,gp,0x0
    1e3c:	153d                	addi	a0,a0,-17
    1e3e:	0000                	unimp
    1e40:	9805                	andi	s0,s0,-31
    1e42:	df01                	beqz	a4,1d5a <_data-0x1e2a6>
    1e44:	0054                	addi	a3,sp,4
    1e46:	0500                	addi	s0,sp,640
    1e48:	0199                	addi	gp,gp,6
    1e4a:	4642                	lw	a2,16(sp)
    1e4c:	0000                	unimp
    1e4e:	9a05                	andi	a2,a2,-31
    1e50:	cb01                	beqz	a4,1e60 <_data-0x1e1a0>
    1e52:	007c                	addi	a5,sp,12
    1e54:	0500                	addi	s0,sp,640
    1e56:	01a2                	slli	gp,gp,0x8
    1e58:	5e52                	lw	t3,52(sp)
    1e5a:	0000                	unimp
    1e5c:	a305                	j	237c <_data-0x1dc84>
    1e5e:	6201                	0x6201
    1e60:	0500000f          	fence	ow,unknown
    1e64:	01a4                	addi	s1,sp,200
    1e66:	6024                	flw	fs1,64(s0)
    1e68:	0000                	unimp
    1e6a:	ae05                	j	219a <_data-0x1de66>
    1e6c:	8b01                	andi	a4,a4,0
    1e6e:	0001                	nop
    1e70:	0500                	addi	s0,sp,640
    1e72:	0bc701af          	0xbc701af
    1e76:	0000                	unimp
    1e78:	b005                	j	1698 <_data-0x1e968>
    1e7a:	fb01                	bnez	a4,1d8a <_data-0x1e276>
    1e7c:	005f 0500 01b8      	0x1b80500005f
    1e82:	00002be3          	0x2be3
    1e86:	b905                	j	1ab6 <_data-0x1e54a>
    1e88:	b601                	j	1988 <_data-0x1e678>
    1e8a:	0008                	0x8
    1e8c:	0500                	addi	s0,sp,640
    1e8e:	01ba                	slli	gp,gp,0xe
    1e90:	2a02                	fld	fs4,0(sp)
    1e92:	0000                	unimp
    1e94:	c405                	beqz	s0,1ebc <_data-0x1e144>
    1e96:	cb01                	beqz	a4,1ea6 <_data-0x1e15a>
    1e98:	005e                	0x5e
    1e9a:	0500                	addi	s0,sp,640
    1e9c:	01c5                	addi	gp,gp,17
    1e9e:	2810                	fld	fa2,16(s0)
    1ea0:	0000                	unimp
    1ea2:	c605                	beqz	a2,1eca <_data-0x1e136>
    1ea4:	a901                	j	22b4 <_data-0x1dd4c>
    1ea6:	003e                	0x3e
    1ea8:	0500                	addi	s0,sp,640
    1eaa:	01d4                	addi	a3,sp,196
    1eac:	65fd                	lui	a1,0x1f
    1eae:	0000                	unimp
    1eb0:	d505                	beqz	a0,1dd8 <_data-0x1e228>
    1eb2:	4001                	0x4001
    1eb4:	0500002b          	0x500002b
    1eb8:	01d6                	slli	gp,gp,0x15
    1eba:	62a9                	lui	t0,0xa
    1ebc:	0000                	unimp
    1ebe:	e605                	bnez	a2,1ee6 <_data-0x1e11a>
    1ec0:	dc01                	beqz	s0,1dd8 <_data-0x1e228>
    1ec2:	05000027          	0x5000027
    1ec6:	3e7001e7          	jalr	gp,999(zero) # 3e7 <_data-0x1fc19>
    1eca:	0000                	unimp
    1ecc:	e805                	bnez	s0,1efc <_data-0x1e104>
    1ece:	1801                	addi	a6,a6,-32
    1ed0:	0018                	0x18
    1ed2:	0500                	addi	s0,sp,640
    1ed4:	01f6                	slli	gp,gp,0x1d
    1ed6:	164c                	addi	a1,sp,804
    1ed8:	0000                	unimp
    1eda:	f705                	bnez	a4,1e02 <_data-0x1e1fe>
    1edc:	e201                	bnez	a2,1edc <_data-0x1e124>
    1ede:	000d                	c.addi	zero,3
    1ee0:	0500                	addi	s0,sp,640
    1ee2:	01f8                	addi	a4,sp,204
    1ee4:	459f 0000 8605      	0x86050000459f
    1eea:	d102                	sw	zero,160(sp)
    1eec:	0080                	addi	s0,sp,64
    1eee:	0500                	addi	s0,sp,640
    1ef0:	20230287          	0x20230287
    1ef4:	0000                	unimp
    1ef6:	8805                	andi	s0,s0,1
    1ef8:	b202                	fsd	ft0,288(sp)
    1efa:	0046                	0x46
    1efc:	0500                	addi	s0,sp,640
    1efe:	0296                	slli	t0,t0,0x5
    1f00:	00005a13          	srli	s4,zero,0x0
    1f04:	9705                	srai	a4,a4,0x21
    1f06:	a202                	fsd	ft0,256(sp)
    1f08:	05000047          	0x5000047
    1f0c:	0298                	addi	a4,sp,320
    1f0e:	28d6                	fld	fa7,336(sp)
    1f10:	0000                	unimp
    1f12:	a605                	j	2232 <_data-0x1ddce>
    1f14:	c702                	sw	zero,140(sp)
    1f16:	0011                	c.addi	zero,4
    1f18:	0500                	addi	s0,sp,640
    1f1a:	819802a7          	0x819802a7
    1f1e:	0000                	unimp
    1f20:	a805                	j	1f50 <_data-0x1e0b0>
    1f22:	6802                	flw	fa6,0(sp)
    1f24:	0025                	c.addi	zero,9
    1f26:	0500                	addi	s0,sp,640
    1f28:	02b6                	slli	t0,t0,0xd
    1f2a:	00004ee7          	0x4ee7
    1f2e:	b705                	j	1e4e <_data-0x1e1b2>
    1f30:	a002                	fsd	ft0,0(sp)
    1f32:	05000077          	0x5000077
    1f36:	02b8                	addi	a4,sp,328
    1f38:	2d24                	fld	fs1,88(a0)
    1f3a:	0000                	unimp
    1f3c:	c605                	beqz	a2,1f64 <_data-0x1e09c>
    1f3e:	8902                	jr	s2
    1f40:	05000037          	lui	zero,0x5000
    1f44:	199202c7          	fmsub.s	ft5,ft4,fs9,ft3,rne
    1f48:	0000                	unimp
    1f4a:	cf05                	beqz	a4,1f82 <_data-0x1e07e>
    1f4c:	db02                	sw	zero,180(sp)
    1f4e:	0039                	c.addi	zero,14
    1f50:	0500                	addi	s0,sp,640
    1f52:	04bf02d7          	0x4bf02d7
    1f56:	0000                	unimp
    1f58:	dd05                	beqz	a0,1e90 <_data-0x1e170>
    1f5a:	d302                	sw	zero,164(sp)
    1f5c:	002e                	0x2e
    1f5e:	0500                	addi	s0,sp,640
    1f60:	02de                	slli	t0,t0,0x17
    1f62:	00005293          	srli	t0,zero,0x0
    1f66:	e205                	bnez	a2,1f86 <_data-0x1e07a>
    1f68:	3402                	fld	fs0,32(sp)
    1f6a:	000a                	0xa
    1f6c:	0500                	addi	s0,sp,640
    1f6e:	02e6                	slli	t0,t0,0x19
    1f70:	8209                	srli	a2,a2,0x2
    1f72:	0000                	unimp
    1f74:	eb05                	bnez	a4,1fa4 <_data-0x1e05c>
    1f76:	2702                	fld	fa4,0(sp)
    1f78:	0500007b          	0x500007b
    1f7c:	02f6                	slli	t0,t0,0x1d
    1f7e:	00003d43          	fmadd.s	fs10,ft0,ft0,ft0,rup
    1f82:	8005                	srli	s0,s0,0x1
    1f84:	006b3203          	0x6b3203
    1f88:	0500                	addi	s0,sp,640
    1f8a:	0385                	addi	t2,t2,1
    1f8c:	5cb0                	lw	a2,120(s1)
    1f8e:	0000                	unimp
    1f90:	8c05                	sub	s0,s0,s1
    1f92:	0036af03          	lw	t5,3(a3) # 13003 <_data-0xcffd>
    1f96:	0500                	addi	s0,sp,640
    1f98:	038d                	addi	t2,t2,3
    1f9a:	2a62                	fld	fs4,24(sp)
    1f9c:	0000                	unimp
    1f9e:	9805                	andi	s0,s0,-31
    1fa0:	000ca503          	lw	a0,0(s9)
    1fa4:	0500                	addi	s0,sp,640
    1fa6:	0399                	addi	t2,t2,6
    1fa8:	000025ef          	jal	a1,3fa8 <_data-0x1c058>
    1fac:	a405                	j	21cc <_data-0x1de34>
    1fae:	00620603          	lb	a2,6(tp) # 6 <_data-0x1fffa>
    1fb2:	0500                	addi	s0,sp,640
    1fb4:	03a5                	addi	t2,t2,9
    1fb6:	70d2                	flw	ft1,52(sp)
    1fb8:	0000                	unimp
    1fba:	b105                	j	1bda <_data-0x1e426>
    1fbc:	00050103          	lb	sp,0(a0) # fffe1000 <__EH_FRAME_BEGIN__+0x7ffdfd58>
    1fc0:	0500                	addi	s0,sp,640
    1fc2:	03b2                	slli	t2,t2,0xc
    1fc4:	6e50                	flw	fa2,28(a2)
    1fc6:	0000                	unimp
    1fc8:	c105                	beqz	a0,1fe8 <_data-0x1e018>
    1fca:	0037a503          	lw	a0,3(a5)
    1fce:	0500                	addi	s0,sp,640
    1fd0:	03c2                	slli	t2,t2,0x10
    1fd2:	4498                	lw	a4,8(s1)
    1fd4:	0000                	unimp
    1fd6:	0400                	addi	s0,sp,512
    1fd8:	0200                	addi	s0,sp,256
    1fda:	03a6                	slli	t2,t2,0x9
    1fdc:	0000                	unimp
    1fde:	00023a07          	fld	fs4,0(tp) # 0 <_data-0x20000>
    1fe2:	0300                	addi	s0,sp,384
    1fe4:	0100                	addi	s0,sp,128
    1fe6:	03031403          	lh	s0,48(t1) # fffe1030 <__EH_FRAME_BEGIN__+0x7ffdfd88>
    1fea:	0409                	addi	s0,s0,2
    1fec:	0a05                	addi	s4,s4,1
    1fee:	25d0                	fld	fa2,136(a1)
    1ff0:	0000                	unimp
    1ff2:	05050c03          	lb	s8,80(a0)
    1ff6:	4206                	lw	tp,64(sp)
    1ff8:	0300004f          	fnmadd.d	ft0,ft0,fa6,ft0,rne
    1ffc:	0608                	addi	a0,sp,768
    1ffe:	1605                	addi	a2,a2,-31
    2000:	2274                	fld	fa3,192(a2)
    2002:	0000                	unimp
    2004:	07071c03          	lh	s8,112(a4) # 1070 <_data-0x1ef90>
    2008:	09b2                	slli	s3,s3,0xc
    200a:	0000                	unimp
    200c:	0704                	addi	s1,sp,896
    200e:	203e                	fld	ft0,456(sp)
    2010:	0000                	unimp
    2012:	0704                	addi	s1,sp,896
    2014:	20c5                	jal	20f4 <_data-0x1df0c>
    2016:	0000                	unimp
    2018:	0304                	addi	s1,sp,384
    201a:	080d                	addi	a6,a6,3
    201c:	00000007          	0x7
    2020:	0400                	addi	s0,sp,512
    2022:	07090e03          	lb	t3,112(s2)
    2026:	0000                	unimp
    2028:	0000                	unimp
    202a:	0704                	addi	s1,sp,896
    202c:	0000                	unimp
    202e:	0000                	unimp
    2030:	0504                	addi	s1,sp,640
    2032:	c70d                	beqz	a4,205c <_data-0x1dfa4>
    2034:	0025                	c.addi	zero,9
    2036:	0400                	addi	s0,sp,512
    2038:	04021503          	lh	a0,64(tp) # 40 <_data-0x1ffc0>
    203c:	0004                	0x4
    203e:	0004                	0x4
    2040:	0500                	addi	s0,sp,640
    2042:	2221                	jal	214a <_data-0x1deb6>
    2044:	0011                	c.addi	zero,4
    2046:	0500                	addi	s0,sp,640
    2048:	5328                	lw	a0,96(a4)
    204a:	0070                	addi	a2,sp,12
    204c:	0600                	addi	s0,sp,768
    204e:	0180                	addi	s0,sp,192
    2050:	38d8                	fld	fa4,176(s1)
    2052:	0000                	unimp
    2054:	8105                	srli	a0,a0,0x1
    2056:	cc01                	beqz	s0,206e <_data-0x1df92>
    2058:	06000037          	lui	zero,0x6000
    205c:	0185                	addi	gp,gp,1
    205e:	35b4                	fld	fa3,104(a1)
    2060:	0000                	unimp
    2062:	8605                	srai	a2,a2,0x1
    2064:	f701                	bnez	a4,1f6c <_data-0x1e094>
    2066:	06000077          	0x6000077
    206a:	82280187          	0x82280187
    206e:	0000                	unimp
    2070:	8805                	andi	s0,s0,1
    2072:	7701                	lui	a4,0xfffe0
    2074:	0016                	0x16
    2076:	0600                	addi	s0,sp,768
    2078:	31d6019b          	0x31d6019b
    207c:	0000                	unimp
    207e:	9c05                	0x9c05
    2080:	d501                	beqz	a0,1f88 <_data-0x1e078>
    2082:	05000043          	0x5000043
    2086:	01f2                	slli	gp,gp,0x1c
    2088:	4ce6                	lw	s9,88(sp)
    208a:	0000                	unimp
    208c:	f805                	bnez	s0,1fbc <_data-0x1e044>
    208e:	4a01                	li	s4,0
    2090:	0042                	0x42
    2092:	0500                	addi	s0,sp,640
    2094:	0280                	addi	s0,sp,320
    2096:	5812                	lw	a6,36(sp)
    2098:	0000                	unimp
    209a:	8505                	srai	a0,a0,0x1
    209c:	7b02                	flw	fs6,32(sp)
    209e:	004e                	0x4e
    20a0:	0500                	addi	s0,sp,640
    20a2:	0290                	addi	a2,sp,320
    20a4:	1834                	addi	a3,sp,56
    20a6:	0000                	unimp
    20a8:	9405                	srai	s0,s0,0x21
    20aa:	9902                	jalr	s2
    20ac:	0054                	addi	a3,sp,4
    20ae:	0500                	addi	s0,sp,640
    20b0:	029a                	slli	t0,t0,0x6
    20b2:	04ea                	slli	s1,s1,0x1a
    20b4:	0000                	unimp
    20b6:	aa05                	j	21e6 <_data-0x1de1a>
    20b8:	3c02                	fld	fs8,32(sp)
    20ba:	0000                	unimp
    20bc:	0500                	addi	s0,sp,640
    20be:	02ba                	slli	t0,t0,0xe
    20c0:	000006ab          	0x6ab
    20c4:	0400                	addi	s0,sp,512
    20c6:	0000                	unimp
    20c8:	0f05                	addi	t5,t5,1
    20ca:	4402                	lw	s0,0(sp)
    20cc:	0000                	unimp
    20ce:	1a05                	addi	s4,s4,-31
    20d0:	59ff                	0x59ff
    20d2:	0000                	unimp
    20d4:	2105                	jal	24f4 <_data-0x1db0c>
    20d6:	6d7e                	flw	fs10,220(sp)
    20d8:	0000                	unimp
    20da:	2f05                	jal	280a <_data-0x1d7f6>
    20dc:	350c                	fld	fa1,40(a0)
    20de:	0000                	unimp
    20e0:	3d05                	jal	1f10 <_data-0x1e0f0>
    20e2:	26df 0000 5305      	0x5305000026df
    20e8:	411a                	lw	sp,132(sp)
    20ea:	0000                	unimp
    20ec:	6d05                	lui	s10,0x1
    20ee:	1502                	slli	a0,a0,0x20
    20f0:	0000                	unimp
    20f2:	8c05                	sub	s0,s0,s1
    20f4:	4001                	0x4001
    20f6:	004a                	0x4a
    20f8:	0500                	addi	s0,sp,640
    20fa:	01a6                	slli	gp,gp,0x9
    20fc:	00001357          	0x1357
    2100:	bc05                	j	1b30 <_data-0x1e4d0>
    2102:	2401                	jal	2302 <_data-0x1dcfe>
    2104:	0031                	c.addi	zero,12
    2106:	0500                	addi	s0,sp,640
    2108:	01ce                	slli	gp,gp,0x13
    210a:	4354                	lw	a3,4(a4)
    210c:	0000                	unimp
    210e:	f406                	fsw	ft1,40(sp)
    2110:	aa01                	j	2220 <_data-0x1dde0>
    2112:	0054                	addi	a3,sp,4
	...

Disassembly of section .debug_line:

00000000 <.debug_line>:
   0:	03a2                	slli	t2,t2,0x8
   2:	0000                	unimp
   4:	0002                	0x2
   6:	0326                	slli	t1,t1,0x9
   8:	0000                	unimp
   a:	0101                	addi	sp,sp,0
   c:	000d0efb          	0xd0efb
  10:	0101                	addi	sp,sp,0
  12:	0101                	addi	sp,sp,0
  14:	0000                	unimp
  16:	0100                	addi	s0,sp,128
  18:	0000                	unimp
  1a:	6f01                	0x6f01
  1c:	7475                	lui	s0,0xffffd
  1e:	63616d2f          	0x63616d2f
  22:	6968                	flw	fa0,84(a0)
  24:	656e                	flw	fa0,216(sp)
  26:	722d                	lui	tp,0xfffeb
  28:	7369                	lui	t1,0xffffa
  2a:	632d7663          	bleu	s2,s10,656 <_data-0x1f9aa>
  2e:	6f6d6d6f          	jal	s10,d6724 <__global_pointer$+0xb56f4>
  32:	2f6e                	fld	ft10,216(sp)
  34:	7865                	lui	a6,0xffff9
  36:	6d61                	lui	s10,0x18
  38:	6c70                	flw	fa2,92(s0)
  3a:	2f65                	jal	7f2 <_data-0x1f80e>
  3c:	6568                	flw	fa0,76(a0)
  3e:	6c6c                	flw	fa1,92(s0)
  40:	65672f6f          	jal	t5,72696 <__global_pointer$+0x51666>
  44:	656e                	flw	fa0,216(sp)
  46:	6972                	flw	fs2,28(sp)
  48:	732f0063          	beq	t5,s2,768 <_data-0x1f898>
  4c:	74617263          	bleu	t1,sp,790 <_data-0x1f870>
  50:	742f6863          	bltu	t5,sp,7a0 <_data-0x1f860>
  54:	736c6f6f          	jal	t5,c678a <__global_pointer$+0xa575a>
  58:	7369722f          	0x7369722f
  5c:	722f7663          	bleu	sp,t5,788 <_data-0x1f878>
  60:	7369                	lui	t1,0xffffa
  62:	32337663          	bleu	gp,t1,38e <_data-0x1fc72>
  66:	752d                	lui	a0,0xfffeb
  68:	6b6e                	flw	fs6,216(sp)
  6a:	6f6e                	flw	ft10,216(sp)
  6c:	652d6e77          	0x652d6e77
  70:	666c                	flw	fa1,76(a2)
  72:	636e692f          	0x636e692f
  76:	756c                	flw	fa1,108(a0)
  78:	6564                	flw	fs1,76(a0)
  7a:	7379732f          	0x7379732f
  7e:	2f00                	fld	fs0,24(a4)
  80:	61726373          	csrrsi	t1,0x617,4
  84:	6374                	flw	fa3,68(a4)
  86:	2f68                	fld	fa0,216(a4)
  88:	6f74                	flw	fa3,92(a4)
  8a:	2f736c6f          	jal	s8,36b80 <__global_pointer$+0x15b50>
  8e:	6972                	flw	fs2,28(sp)
  90:	2f766373          	csrrsi	t1,0x2f7,12
  94:	696c                	flw	fa1,84(a0)
  96:	2f62                	fld	ft10,24(sp)
  98:	2f636367          	0x2f636367
  9c:	6972                	flw	fs2,28(sp)
  9e:	33766373          	csrrsi	t1,mhpmevent23,12
  a2:	2d32                	fld	fs10,264(sp)
  a4:	6e75                	lui	t3,0x1d
  a6:	776f6e6b          	0x776f6e6b
  aa:	2d6e                	fld	fs10,216(sp)
  ac:	6c65                	lui	s8,0x19
  ae:	2f66                	fld	ft10,88(sp)
  b0:	2e322e37          	lui	t3,0x2e322
  b4:	2f30                	fld	fa2,88(a4)
  b6:	6e69                	lui	t3,0x1a
  b8:	64756c63          	bltu	a0,t2,710 <_data-0x1f8f0>
  bc:	0065                	c.addi	zero,25
  be:	7263732f          	0x7263732f
  c2:	7461                	lui	s0,0xffff8
  c4:	742f6863          	bltu	t5,sp,814 <_data-0x1f7ec>
  c8:	736c6f6f          	jal	t5,c67fe <__global_pointer$+0xa57ce>
  cc:	7369722f          	0x7369722f
  d0:	722f7663          	bleu	sp,t5,7fc <_data-0x1f804>
  d4:	7369                	lui	t1,0xffffa
  d6:	32337663          	bleu	gp,t1,402 <_data-0x1fbfe>
  da:	752d                	lui	a0,0xfffeb
  dc:	6b6e                	flw	fs6,216(sp)
  de:	6f6e                	flw	ft10,216(sp)
  e0:	652d6e77          	0x652d6e77
  e4:	666c                	flw	fa1,76(a2)
  e6:	636e692f          	0x636e692f
  ea:	756c                	flw	fa1,108(a0)
  ec:	6564                	flw	fs1,76(a0)
  ee:	2f00                	fld	fs0,24(a4)
  f0:	61726373          	csrrsi	t1,0x617,4
  f4:	6374                	flw	fa3,68(a4)
  f6:	2f68                	fld	fa0,216(a4)
  f8:	6f74                	flw	fa3,92(a4)
  fa:	2f736c6f          	jal	s8,36bf0 <__global_pointer$+0x15bc0>
  fe:	6972                	flw	fs2,28(sp)
 100:	2f766373          	csrrsi	t1,0x2f7,12
 104:	6972                	flw	fs2,28(sp)
 106:	33766373          	csrrsi	t1,mhpmevent23,12
 10a:	2d32                	fld	fs10,264(sp)
 10c:	6e75                	lui	t3,0x1d
 10e:	776f6e6b          	0x776f6e6b
 112:	2d6e                	fld	fs10,216(sp)
 114:	6c65                	lui	s8,0x19
 116:	2f66                	fld	ft10,88(sp)
 118:	6e69                	lui	t3,0x1a
 11a:	64756c63          	bltu	a0,t2,772 <_data-0x1f88e>
 11e:	2f65                	jal	8d6 <_data-0x1f72a>
 120:	616d                	addi	sp,sp,240
 122:	6e696863          	bltu	s2,t1,812 <_data-0x1f7ee>
 126:	0065                	c.addi	zero,25
 128:	6400                	flw	fs0,8(s0)
 12a:	6265                	lui	tp,0x19
 12c:	6775                	lui	a4,0x1d
 12e:	632e                	flw	ft6,200(sp)
 130:	0100                	addi	s0,sp,128
 132:	0000                	unimp
 134:	6f6c                	flw	fa1,92(a4)
 136:	682e6b63          	bltu	t3,sp,7cc <_data-0x1f834>
 13a:	0200                	addi	s0,sp,256
 13c:	0000                	unimp
 13e:	745f 7079 7365      	0x73657079745f
 144:	682e                	flw	fa6,200(sp)
 146:	0200                	addi	s0,sp,256
 148:	0000                	unimp
 14a:	64647473          	csrrci	s0,0x646,8
 14e:	6665                	lui	a2,0x19
 150:	682e                	flw	fa6,200(sp)
 152:	0300                	addi	s0,sp,384
 154:	0000                	unimp
 156:	6572                	flw	fa0,28(sp)
 158:	6e65                	lui	t3,0x19
 15a:	2e74                	fld	fa3,216(a2)
 15c:	0068                	addi	a0,sp,12
 15e:	0002                	0x2
 160:	7400                	flw	fs0,40(s0)
 162:	7079                	0x7079
 164:	7365                	lui	t1,0xffff9
 166:	682e                	flw	fa6,200(sp)
 168:	0200                	addi	s0,sp,256
 16a:	0000                	unimp
 16c:	6c647473          	csrrci	s0,0x6c6,8
 170:	6269                	lui	tp,0x1a
 172:	682e                	flw	fa6,200(sp)
 174:	0400                	addi	s0,sp,512
 176:	0000                	unimp
 178:	6e75                	lui	t3,0x1d
 17a:	7369                	lui	t1,0xffffa
 17c:	6474                	flw	fa3,76(s0)
 17e:	682e                	flw	fa6,200(sp)
 180:	0200                	addi	s0,sp,256
 182:	0000                	unimp
 184:	69727473          	csrrci	s0,0x697,4
 188:	676e                	flw	fa4,216(sp)
 18a:	682e                	flw	fa6,200(sp)
 18c:	0400                	addi	s0,sp,512
 18e:	0000                	unimp
 190:	69647473          	csrrci	s0,0x696,8
 194:	00682e6f          	jal	t3,8219a <__global_pointer$+0x6116a>
 198:	0004                	0x4
 19a:	5f00                	lw	s0,56(a4)
 19c:	6e61                	lui	t3,0x18
 19e:	682e6973          	csrrsi	s2,0x682,28
 1a2:	0400                	addi	s0,sp,512
 1a4:	0000                	unimp
 1a6:	656e                	flw	fa0,216(sp)
 1a8:	62696c77          	0x62696c77
 1ac:	682e                	flw	fa6,200(sp)
 1ae:	0400                	addi	s0,sp,512
 1b0:	0000                	unimp
 1b2:	6e5f 7765 696c      	0x696c77656e5f
 1b8:	5f62                	lw	t5,56(sp)
 1ba:	6576                	flw	fa0,92(sp)
 1bc:	7372                	flw	ft6,60(sp)
 1be:	6f69                	lui	t5,0x1a
 1c0:	2e6e                	fld	ft8,216(sp)
 1c2:	0068                	addi	a0,sp,12
 1c4:	0004                	0x4
 1c6:	6300                	flw	fs0,0(a4)
 1c8:	69666e6f          	jal	t3,6685e <__global_pointer$+0x4582e>
 1cc:	00682e67          	0x682e67
 1d0:	0002                	0x2
 1d2:	6900                	flw	fs0,16(a0)
 1d4:	6565                	lui	a0,0x19
 1d6:	6665                	lui	a2,0x19
 1d8:	2e70                	fld	fa2,216(a2)
 1da:	0068                	addi	a0,sp,12
 1dc:	0005                	c.addi	zero,1
 1de:	6600                	flw	fs0,8(a2)
 1e0:	6165                	addi	sp,sp,112
 1e2:	7574                	flw	fa3,108(a0)
 1e4:	6572                	flw	fa0,28(sp)
 1e6:	00682e73          	csrrs	t3,0x6,a6
 1ea:	0002                	0x2
 1ec:	6300                	flw	fs0,0(a4)
 1ee:	6564                	flw	fs1,76(a0)
 1f0:	7366                	flw	ft6,120(sp)
 1f2:	682e                	flw	fa6,200(sp)
 1f4:	0200                	addi	s0,sp,256
 1f6:	0000                	unimp
 1f8:	645f 6665 7561      	0x75616665645f
 1fe:	746c                	flw	fa1,108(s0)
 200:	745f 7079 7365      	0x73657079745f
 206:	682e                	flw	fa6,200(sp)
 208:	0500                	addi	s0,sp,640
 20a:	0000                	unimp
 20c:	61647473          	csrrci	s0,0x616,8
 210:	6772                	flw	fa4,28(sp)
 212:	682e                	flw	fa6,200(sp)
 214:	0300                	addi	s0,sp,384
 216:	0000                	unimp
 218:	745f 7079 7365      	0x73657079745f
 21e:	682e                	flw	fa6,200(sp)
 220:	0500                	addi	s0,sp,640
 222:	0000                	unimp
 224:	735f 6474 6e69      	0x6e696474735f
 22a:	2e74                	fld	fa3,216(a2)
 22c:	0068                	addi	a0,sp,12
 22e:	0002                	0x2
 230:	6500                	flw	fs0,8(a0)
 232:	646e                	flw	fs0,216(sp)
 234:	6169                	addi	sp,sp,208
 236:	2e6e                	fld	ft8,216(sp)
 238:	0068                	addi	a0,sp,12
 23a:	0005                	c.addi	zero,1
 23c:	5f00                	lw	s0,56(a4)
 23e:	6e65                	lui	t3,0x19
 240:	6964                	flw	fs1,84(a0)
 242:	6e61                	lui	t3,0x18
 244:	682e                	flw	fa6,200(sp)
 246:	0500                	addi	s0,sp,640
 248:	0000                	unimp
 24a:	656c6573          	csrrsi	a0,0x656,24
 24e:	682e7463          	bleu	sp,t3,8d6 <_data-0x1f72a>
 252:	0200                	addi	s0,sp,256
 254:	0000                	unimp
 256:	735f 6769 6573      	0x65736769735f
 25c:	2e74                	fld	fa3,216(a2)
 25e:	0068                	addi	a0,sp,12
 260:	0002                	0x2
 262:	5f00                	lw	s0,56(a4)
 264:	6974                	flw	fa3,84(a0)
 266:	656d                	lui	a0,0x1b
 268:	6176                	flw	ft2,92(sp)
 26a:	2e6c                	fld	fa1,216(a2)
 26c:	0068                	addi	a0,sp,12
 26e:	0002                	0x2
 270:	7400                	flw	fs0,40(s0)
 272:	6d69                	lui	s10,0x1a
 274:	7365                	lui	t1,0xffff9
 276:	6570                	flw	fa2,76(a0)
 278:	00682e63          	0x682e63
 27c:	0002                	0x2
 27e:	5f00                	lw	s0,56(a4)
 280:	6974                	flw	fa3,84(a0)
 282:	656d                	lui	a0,0x1b
 284:	63657073          	csrci	0x636,10
 288:	682e                	flw	fa6,200(sp)
 28a:	0200                	addi	s0,sp,256
 28c:	0000                	unimp
 28e:	705f 6874 6572      	0x65726874705f
 294:	6461                	lui	s0,0x18
 296:	7974                	flw	fa3,116(a0)
 298:	6570                	flw	fa2,76(a0)
 29a:	00682e73          	csrrs	t3,0x6,a6
 29e:	0002                	0x2
 2a0:	7300                	flw	fs0,32(a4)
 2a2:	64656863          	bltu	a0,t1,8f2 <_data-0x1f70e>
 2a6:	682e                	flw	fa6,200(sp)
 2a8:	0200                	addi	s0,sp,256
 2aa:	0000                	unimp
 2ac:	7974                	flw	fa3,116(a0)
 2ae:	6570                	flw	fa2,76(a0)
 2b0:	00682e73          	csrrs	t3,0x6,a6
 2b4:	0005                	c.addi	zero,1
 2b6:	7300                	flw	fs0,32(a4)
 2b8:	6474                	flw	fa3,76(s0)
 2ba:	6f69                	lui	t5,0x1a
 2bc:	682e                	flw	fa6,200(sp)
 2be:	0200                	addi	s0,sp,256
 2c0:	0000                	unimp
 2c2:	6c647473          	csrrci	s0,0x6c6,8
 2c6:	6269                	lui	tp,0x1a
 2c8:	682e                	flw	fa6,200(sp)
 2ca:	0500                	addi	s0,sp,640
 2cc:	0000                	unimp
 2ce:	6c61                	lui	s8,0x18
 2d0:	6f6c                	flw	fa1,92(a4)
 2d2:	682e6163          	bltu	t3,sp,954 <_data-0x1f6ac>
 2d6:	0400                	addi	s0,sp,512
 2d8:	0000                	unimp
 2da:	6e75                	lui	t3,0x1d
 2dc:	7369                	lui	t1,0xffffa
 2de:	6474                	flw	fa3,76(s0)
 2e0:	682e                	flw	fa6,200(sp)
 2e2:	0400                	addi	s0,sp,512
 2e4:	0000                	unimp
 2e6:	6c5f 636f 6c61      	0x6c61636f6c5f
 2ec:	2e65                	jal	6a4 <_data-0x1f95c>
 2ee:	0068                	addi	a0,sp,12
 2f0:	0002                	0x2
 2f2:	7300                	flw	fs0,32(a4)
 2f4:	7274                	flw	fa3,100(a2)
 2f6:	6e69                	lui	t3,0x1a
 2f8:	00682e67          	0x682e67
 2fc:	0002                	0x2
 2fe:	7300                	flw	fs0,32(a4)
 300:	6474                	flw	fa3,76(s0)
 302:	6e69                	lui	t3,0x1a
 304:	2e74                	fld	fa3,216(a2)
 306:	0068                	addi	a0,sp,12
 308:	73000003          	lb	zero,1840(zero) # 6000730 <__global_pointer$+0x5fdf700>
 30c:	6474                	flw	fa3,76(s0)
 30e:	6e69                	lui	t3,0x1a
 310:	2e74                	fld	fa3,216(a2)
 312:	0068                	addi	a0,sp,12
 314:	0004                	0x4
 316:	5f00                	lw	s0,56(a4)
 318:	6e69                	lui	t3,0x1a
 31a:	7374                	flw	fa3,100(a4)
 31c:	7075                	0x7075
 31e:	682e                	flw	fa6,200(sp)
 320:	0200                	addi	s0,sp,256
 322:	0000                	unimp
 324:	6564                	flw	fs1,76(a0)
 326:	7562                	flw	fa0,56(sp)
 328:	00682e67          	0x682e67
 32c:	0001                	nop
 32e:	0000                	unimp
 330:	0500                	addi	s0,sp,640
 332:	2802                	fld	fa6,0(sp)
 334:	0001                	nop
 336:	0380                	addi	s0,sp,448
 338:	0132                	slli	sp,sp,0xc
 33a:	0c090003          	lb	zero,192(s2)
 33e:	0100                	addi	s0,sp,128
 340:	04090103          	lb	sp,64(s2)
 344:	0100                	addi	s0,sp,128
 346:	04090103          	lb	sp,64(s2)
 34a:	0100                	addi	s0,sp,128
 34c:	04097f03          	0x4097f03
 350:	0100                	addi	s0,sp,128
 352:	04090103          	lb	sp,64(s2)
 356:	0100                	addi	s0,sp,128
 358:	10090203          	lb	tp,256(s2)
 35c:	0100                	addi	s0,sp,128
 35e:	08090203          	lb	tp,128(s2)
 362:	0100                	addi	s0,sp,128
 364:	10096b03          	0x10096b03
 368:	0100                	addi	s0,sp,128
 36a:	00090103          	lb	sp,0(s2)
 36e:	0100                	addi	s0,sp,128
 370:	04090603          	lb	a2,64(s2)
 374:	0100                	addi	s0,sp,128
 376:	08097a03          	0x8097a03
 37a:	0100                	addi	s0,sp,128
 37c:	04090903          	lb	s2,64(s2)
 380:	0100                	addi	s0,sp,128
 382:	04097f03          	0x4097f03
 386:	0100                	addi	s0,sp,128
 388:	04090103          	lb	sp,64(s2)
 38c:	0100                	addi	s0,sp,128
 38e:	00097f03          	0x97f03
 392:	0100                	addi	s0,sp,128
 394:	04090103          	lb	sp,64(s2)
 398:	0100                	addi	s0,sp,128
 39a:	04097f03          	0x4097f03
 39e:	0100                	addi	s0,sp,128
 3a0:	0409                	addi	s0,s0,2
 3a2:	0000                	unimp
 3a4:	0101                	addi	sp,sp,0
 3a6:	01d9                	addi	gp,gp,22
 3a8:	0000                	unimp
 3aa:	0002                	0x2
 3ac:	019f 0000 0101      	0x1010000019f
 3b2:	000d0efb          	0xd0efb
 3b6:	0101                	addi	sp,sp,0
 3b8:	0101                	addi	sp,sp,0
 3ba:	0000                	unimp
 3bc:	0100                	addi	s0,sp,128
 3be:	0000                	unimp
 3c0:	6f01                	0x6f01
 3c2:	7475                	lui	s0,0xffffd
 3c4:	63616d2f          	0x63616d2f
 3c8:	6968                	flw	fa0,84(a0)
 3ca:	656e                	flw	fa0,216(sp)
 3cc:	722d                	lui	tp,0xfffeb
 3ce:	7369                	lui	t1,0xffffa
 3d0:	632d7663          	bleu	s2,s10,9fc <_data-0x1f604>
 3d4:	6f6d6d6f          	jal	s10,d6aca <__global_pointer$+0xb5a9a>
 3d8:	2f6e                	fld	ft10,216(sp)
 3da:	7865                	lui	a6,0xffff9
 3dc:	6d61                	lui	s10,0x18
 3de:	6c70                	flw	fa2,92(s0)
 3e0:	2f65                	jal	b98 <_data-0x1f468>
 3e2:	6568                	flw	fa0,76(a0)
 3e4:	6c6c                	flw	fa1,92(s0)
 3e6:	65672f6f          	jal	t5,72a3c <__global_pointer$+0x51a0c>
 3ea:	656e                	flw	fa0,216(sp)
 3ec:	6972                	flw	fs2,28(sp)
 3ee:	732f0063          	beq	t5,s2,b0e <_data-0x1f4f2>
 3f2:	74617263          	bleu	t1,sp,b36 <_data-0x1f4ca>
 3f6:	742f6863          	bltu	t5,sp,b46 <_data-0x1f4ba>
 3fa:	736c6f6f          	jal	t5,c6b30 <__global_pointer$+0xa5b00>
 3fe:	7369722f          	0x7369722f
 402:	6c2f7663          	bleu	sp,t5,ace <_data-0x1f532>
 406:	6269                	lui	tp,0x1a
 408:	6363672f          	0x6363672f
 40c:	7369722f          	0x7369722f
 410:	32337663          	bleu	gp,t1,73c <_data-0x1f8c4>
 414:	752d                	lui	a0,0xfffeb
 416:	6b6e                	flw	fs6,216(sp)
 418:	6f6e                	flw	ft10,216(sp)
 41a:	652d6e77          	0x652d6e77
 41e:	666c                	flw	fa1,76(a2)
 420:	322e372f          	0x322e372f
 424:	302e                	fld	ft0,232(sp)
 426:	636e692f          	0x636e692f
 42a:	756c                	flw	fa1,108(a0)
 42c:	6564                	flw	fs1,76(a0)
 42e:	2f00                	fld	fs0,24(a4)
 430:	61726373          	csrrsi	t1,0x617,4
 434:	6374                	flw	fa3,68(a4)
 436:	2f68                	fld	fa0,216(a4)
 438:	6f74                	flw	fa3,92(a4)
 43a:	2f736c6f          	jal	s8,36f30 <__global_pointer$+0x15f00>
 43e:	6972                	flw	fs2,28(sp)
 440:	2f766373          	csrrsi	t1,0x2f7,12
 444:	6972                	flw	fs2,28(sp)
 446:	33766373          	csrrsi	t1,mhpmevent23,12
 44a:	2d32                	fld	fs10,264(sp)
 44c:	6e75                	lui	t3,0x1d
 44e:	776f6e6b          	0x776f6e6b
 452:	2d6e                	fld	fs10,216(sp)
 454:	6c65                	lui	s8,0x19
 456:	2f66                	fld	ft10,88(sp)
 458:	6e69                	lui	t3,0x1a
 45a:	64756c63          	bltu	a0,t2,ab2 <_data-0x1f54e>
 45e:	0065                	c.addi	zero,25
 460:	7263732f          	0x7263732f
 464:	7461                	lui	s0,0xffff8
 466:	742f6863          	bltu	t5,sp,bb6 <_data-0x1f44a>
 46a:	736c6f6f          	jal	t5,c6ba0 <__global_pointer$+0xa5b70>
 46e:	7369722f          	0x7369722f
 472:	722f7663          	bleu	sp,t5,b9e <_data-0x1f462>
 476:	7369                	lui	t1,0xffffa
 478:	32337663          	bleu	gp,t1,7a4 <_data-0x1f85c>
 47c:	752d                	lui	a0,0xfffeb
 47e:	6b6e                	flw	fs6,216(sp)
 480:	6f6e                	flw	ft10,216(sp)
 482:	652d6e77          	0x652d6e77
 486:	666c                	flw	fa1,76(a2)
 488:	636e692f          	0x636e692f
 48c:	756c                	flw	fa1,108(a0)
 48e:	6564                	flw	fs1,76(a0)
 490:	63616d2f          	0x63616d2f
 494:	6968                	flw	fa0,84(a0)
 496:	656e                	flw	fa0,216(sp)
 498:	2f00                	fld	fs0,24(a4)
 49a:	61726373          	csrrsi	t1,0x617,4
 49e:	6374                	flw	fa3,68(a4)
 4a0:	2f68                	fld	fa0,216(a4)
 4a2:	6f74                	flw	fa3,92(a4)
 4a4:	2f736c6f          	jal	s8,36f9a <__global_pointer$+0x15f6a>
 4a8:	6972                	flw	fs2,28(sp)
 4aa:	2f766373          	csrrsi	t1,0x2f7,12
 4ae:	6972                	flw	fs2,28(sp)
 4b0:	33766373          	csrrsi	t1,mhpmevent23,12
 4b4:	2d32                	fld	fs10,264(sp)
 4b6:	6e75                	lui	t3,0x1d
 4b8:	776f6e6b          	0x776f6e6b
 4bc:	2d6e                	fld	fs10,216(sp)
 4be:	6c65                	lui	s8,0x19
 4c0:	2f66                	fld	ft10,88(sp)
 4c2:	6e69                	lui	t3,0x1a
 4c4:	64756c63          	bltu	a0,t2,b1c <_data-0x1f4e4>
 4c8:	2f65                	jal	c80 <_data-0x1f380>
 4ca:	00737973          	csrrci	s2,0x7,6
 4ce:	6800                	flw	fs0,16(s0)
 4d0:	6c65                	lui	s8,0x19
 4d2:	6f6c                	flw	fa1,92(a4)
 4d4:	632e                	flw	ft6,200(sp)
 4d6:	0100                	addi	s0,sp,128
 4d8:	0000                	unimp
 4da:	6564                	flw	fs1,76(a0)
 4dc:	7562                	flw	fa0,56(sp)
 4de:	00682e67          	0x682e67
 4e2:	0001                	nop
 4e4:	7300                	flw	fs0,32(a4)
 4e6:	6474                	flw	fa3,76(s0)
 4e8:	6e69                	lui	t3,0x1a
 4ea:	2e74                	fld	fa3,216(a2)
 4ec:	0068                	addi	a0,sp,12
 4ee:	0002                	0x2
 4f0:	7300                	flw	fs0,32(a4)
 4f2:	6474                	flw	fa3,76(s0)
 4f4:	6e69                	lui	t3,0x1a
 4f6:	2e74                	fld	fa3,216(a2)
 4f8:	0068                	addi	a0,sp,12
 4fa:	5f000003          	lb	zero,1520(zero) # 5f0 <_data-0x1fa10>
 4fe:	6564                	flw	fs1,76(a0)
 500:	6166                	flw	ft2,88(sp)
 502:	6c75                	lui	s8,0x1d
 504:	5f74                	lw	a3,124(a4)
 506:	7974                	flw	fa3,116(a0)
 508:	6570                	flw	fa2,76(a0)
 50a:	00682e73          	csrrs	t3,0x6,a6
 50e:	0004                	0x4
 510:	6600                	flw	fs0,8(a2)
 512:	6165                	addi	sp,sp,112
 514:	7574                	flw	fa3,108(a0)
 516:	6572                	flw	fa0,28(sp)
 518:	00682e73          	csrrs	t3,0x6,a6
 51c:	0005                	c.addi	zero,1
 51e:	5f00                	lw	s0,56(a4)
 520:	656e                	flw	fa0,216(sp)
 522:	62696c77          	0x62696c77
 526:	765f 7265 6973      	0x69737265765f
 52c:	682e6e6f          	jal	t3,e6bae <__global_pointer$+0xc5b7e>
 530:	0300                	addi	s0,sp,384
 532:	0000                	unimp
 534:	695f 746e 7573      	0x7573746e695f
 53a:	2e70                	fld	fa2,216(a2)
 53c:	0068                	addi	a0,sp,12
 53e:	0005                	c.addi	zero,1
 540:	5f00                	lw	s0,56(a4)
 542:	69647473          	csrrci	s0,0x696,8
 546:	746e                	flw	fs0,248(sp)
 548:	682e                	flw	fa6,200(sp)
 54a:	0500                	addi	s0,sp,640
 54c:	0000                	unimp
 54e:	0000                	unimp
 550:	0205                	addi	tp,tp,1
 552:	1284                	addi	s1,sp,352
 554:	8000                	0x8000
 556:	03011703          	lh	a4,48(sp)
 55a:	0902                	slli	s2,s2,0x0
 55c:	0000                	unimp
 55e:	0301                	addi	t1,t1,0
 560:	097e                	slli	s2,s2,0x1f
 562:	0004                	0x4
 564:	0301                	addi	t1,t1,0
 566:	0902                	slli	s2,s2,0x0
 568:	0004                	0x4
 56a:	0301                	addi	t1,t1,0
 56c:	097e                	slli	s2,s2,0x1f
 56e:	0004                	0x4
 570:	0301                	addi	t1,t1,0
 572:	0902                	slli	s2,s2,0x0
 574:	0004                	0x4
 576:	0301                	addi	t1,t1,0
 578:	0902                	slli	s2,s2,0x0
 57a:	0004                	0x4
 57c:	0901                	addi	s2,s2,0
 57e:	0010                	0x10
 580:	0100                	addi	s0,sp,128
 582:	01              	Address 0x0000000000000582 is out of bounds.


Disassembly of section .debug_str:

00000000 <.debug_str>:
       0:	5f5f 4e47 4355      	0x43554e475f5f
       6:	494c                	lw	a1,20(a0)
       8:	5f5f454b          	fnmsub.q	fa0,ft10,fs5,fa1,rmm
       c:	535f 4345 4954      	0x49544345535f
      12:	31204e4f          	fnmadd.s	ft8,ft0,fs2,ft6,rmm
      16:	5f00                	lw	s0,56(a4)
      18:	4f49                	li	t5,18
      1a:	4246                	lw	tp,80(sp)
      1c:	2046                	fld	ft0,80(sp)
      1e:	0030                	addi	a2,sp,8
      20:	505f 4854 4552      	0x45524854505f
      26:	4441                	li	s0,16
      28:	4f5f 434e 5f45      	0x5f45434e4f5f
      2e:	4e49                	li	t3,18
      30:	5449                	li	s0,-14
      32:	7b20                	flw	fs0,112(a4)
      34:	3120                	fld	fs0,96(a0)
      36:	202c                	fld	fa1,64(s0)
      38:	2030                	fld	fa2,64(s0)
      3a:	007d                	c.addi	zero,31
      3c:	5f5f 5653 4449      	0x444956535f5f
      42:	565f 5349 4249      	0x42495349565f
      48:	454c                	lw	a1,12(a0)
      4a:	3120                	fld	fs0,96(a0)
      4c:	5f00                	lw	s0,56(a4)
      4e:	695f 746e 3032      	0x3032746e695f
      54:	2b20                	fld	fs0,80(a4)
      56:	0032                	0x32
      58:	5f5f 6972 6373      	0x637369725f5f
      5e:	2076                	fld	ft0,344(sp)
      60:	0031                	c.addi	zero,12
      62:	5f5f 4c46 3154      	0x31544c465f5f
      68:	3832                	fld	fa6,296(sp)
      6a:	4d5f 4e49 315f      	0x315f4e494d5f
      70:	5f30                	lw	a2,120(a4)
      72:	5845                	li	a6,-15
      74:	5f50                	lw	a2,60(a4)
      76:	205f 2d28 3934      	0x39342d28205f
      7c:	00293133          	sltu	sp,s2,sp
      80:	5f5f 4544 3143      	0x314345445f5f
      86:	3832                	fld	fa6,296(sp)
      88:	455f 5350 4c49      	0x4c495350455f
      8e:	5f5f4e4f          	fnmadd.q	ft8,ft10,fs5,fa1,rmm
      92:	3120                	fld	fs0,96(a0)
      94:	2d45                	jal	744 <_data-0x1f8bc>
      96:	4c443333          	0x4c443333
      9a:	5f00                	lw	s0,56(a4)
      9c:	685f 6f74 6c6e      	0x6c6e6f74685f
      a2:	5f28                	lw	a0,120(a4)
      a4:	2978                	fld	fa4,208(a0)
      a6:	5f20                	lw	s0,120(a4)
      a8:	625f 7773 7061      	0x70617773625f
      ae:	5f283233          	0x5f283233
      b2:	2978                	fld	fa4,208(a0)
      b4:	5f00                	lw	s0,56(a4)
      b6:	4350                	lw	a2,4(a4)
      b8:	4e5f 5f4f 5254      	0x52545f4f4e5f
      be:	4e55                	li	t3,21
      c0:	00372043          	fmadd.s	ft0,fa4,ft3,ft0,rdn
      c4:	5f5f 4347 5f43      	0x5f4343475f5f
      ca:	5441                	li	s0,-16
      cc:	43494d4f          	fnmadd.d	fs10,fs2,fs4,fs0,rmm
      d0:	575f 4843 5241      	0x52414843575f
      d6:	545f 4c5f 434f      	0x434f4c5f545f
      dc:	52465f4b          	fnmsub.d	ft10,fa2,ft4,fa0,unknown
      e0:	4545                	li	a0,17
      e2:	3220                	fld	fs0,96(a2)
      e4:	5f00                	lw	s0,56(a4)
      e6:	435f 4148 5f52      	0x5f524148435f
      ec:	4e55                	li	t3,21
      ee:	4e474953          	0x4e474953
      f2:	4445                	li	s0,17
      f4:	5f5f 3120 5f00      	0x5f0031205f5f
      fa:	424f4c47          	fmsub.d	fs8,ft10,ft4,fs0,rmm
      fe:	4c41                	li	s8,16
     100:	415f 4554 4958      	0x49584554415f
     106:	2054                	fld	fa3,128(s0)
     108:	5f28                	lw	a0,120(a4)
     10a:	424f4c47          	fmsub.d	fs8,ft10,ft4,fs0,rmm
     10e:	4c41                	li	s8,16
     110:	525f 4545 544e      	0x544e4545525f
     116:	3e2d                	jal	fffffc50 <__EH_FRAME_BEGIN__+0x7fffe9a8>
     118:	615f 6574 6978      	0x69786574615f
     11e:	2974                	fld	fa3,208(a0)
     120:	5f00                	lw	s0,56(a4)
     122:	545f4353          	0x545f4353
     126:	4152                	lw	sp,20(sp)
     128:	455f4543          	0x455f4543
     12c:	4556                	lw	a0,84(sp)
     12e:	544e                	lw	s0,240(sp)
     130:	465f 4c49 4554      	0x45544c49465f
     136:	2052                	fld	ft0,272(sp)
     138:	3438                	fld	fa4,104(s0)
     13a:	5f00                	lw	s0,56(a4)
     13c:	455f 464c 5f5f      	0x5f5f464c455f
     142:	3120                	fld	fs0,96(a0)
     144:	5f00                	lw	s0,56(a4)
     146:	465f 544c 3231      	0x3231544c465f
     14c:	5f38                	lw	a4,120(a4)
     14e:	4544                	lw	s1,12(a0)
     150:	414d4943          	fmadd.s	fs2,fs10,fs4,fs0,rmm
     154:	5f4c                	lw	a1,60(a4)
     156:	4944                	lw	s1,20(a0)
     158:	205f5f47          	fmsub.s	ft10,ft10,ft5,ft4,unknown
     15c:	5f003633          	0x5f003633
     160:	6c5f 636f 6c61      	0x6c61636f6c5f
     166:	5f65                	li	t5,-7
     168:	0074                	addi	a3,sp,12
     16a:	5f5f 4c46 3654      	0x36544c465f5f
     170:	5f34                	lw	a3,120(a4)
     172:	4148                	lw	a0,4(a0)
     174:	4e495f53          	0x4e495f53
     178:	4946                	lw	s2,80(sp)
     17a:	494e                	lw	s2,208(sp)
     17c:	5954                	lw	a3,52(a0)
     17e:	5f5f 3120 5f00      	0x5f0031205f5f
     184:	765f 6c61 6575      	0x65756c61765f
     18a:	4900                	lw	s0,16(a0)
     18c:	544e                	lw	s0,240(sp)
     18e:	3631                	jal	fffffc9a <__EH_FRAME_BEGIN__+0x7fffe9f2>
     190:	4d5f 4e49 2820      	0x28204e494d5f
     196:	5f2d                	li	t5,-21
     198:	495f 544e 3631      	0x3631544e495f
     19e:	4d5f 5841 5f5f      	0x5f5f58414d5f
     1a4:	2d20                	fld	fs0,88(a0)
     1a6:	3120                	fld	fs0,96(a0)
     1a8:	0029                	c.addi	zero,10
     1aa:	435f 4f4c 4b43      	0x4b434f4c435f
     1b0:	545f 445f 4345      	0x4345445f545f
     1b6:	414c                	lw	a1,4(a0)
     1b8:	4552                	lw	a0,20(sp)
     1ba:	2044                	fld	fs1,128(s0)
     1bc:	5f00                	lw	s0,56(a4)
     1be:	735f 0066 6566      	0x65660066735f
     1c4:	755f666f          	jal	a2,f7118 <__global_pointer$+0xd60e8>
     1c8:	6c6e                	flw	fs8,216(sp)
     1ca:	656b636f          	jal	t1,b6820 <__global_pointer$+0x957f0>
     1ce:	2864                	fld	fs1,208(s0)
     1d0:	2970                	fld	fa2,208(a0)
     1d2:	5f20                	lw	s0,120(a4)
     1d4:	735f 6566 666f      	0x666f6566735f
     1da:	7028                	flw	fa0,96(s0)
     1dc:	0029                	c.addi	zero,10
     1de:	5f5f 5450 4452      	0x445254505f5f
     1e4:	4649                	li	a2,18
     1e6:	5f46                	lw	t5,112(sp)
     1e8:	414d                	li	sp,19
     1ea:	5f58                	lw	a4,60(a4)
     1ec:	205f 7830 6637      	0x66377830205f
     1f2:	6666                	flw	fa2,88(sp)
     1f4:	6666                	flw	fa2,88(sp)
     1f6:	6666                	flw	fa2,88(sp)
     1f8:	5f00                	lw	s0,56(a4)
     1fa:	4f4c                	lw	a1,28(a4)
     1fc:	474e                	lw	a4,208(sp)
     1fe:	445f 554f 4c42      	0x4c42554f445f
     204:	2045                	jal	2a4 <_data-0x1fd5c>
     206:	6f6c                	flw	fa1,92(a4)
     208:	676e                	flw	fa4,216(sp)
     20a:	6420                	flw	fs0,72(s0)
     20c:	6c62756f          	jal	a0,278d2 <__global_pointer$+0x68a2>
     210:	0065                	c.addi	zero,25
     212:	5f5f 4e49 4d54      	0x4d544e495f5f
     218:	5841                	li	a6,-16
     21a:	435f 6328 2029      	0x20296328435f
     220:	23232063          	0x23232063
     224:	4c20                	lw	s0,88(s0)
     226:	004c                	addi	a1,sp,4
     228:	5f5f 6273 6675      	0x667562735f5f
     22e:	5f00                	lw	s0,56(a4)
     230:	6572                	flw	fa0,28(sp)
     232:	6461                	lui	s0,0x18
     234:	5f00                	lw	s0,56(a4)
     236:	495f 544e 414d      	0x414d544e495f
     23c:	5f58                	lw	a4,60(a4)
     23e:	414d                	li	sp,19
     240:	5f58                	lw	a4,60(a4)
     242:	205f 7830 6637      	0x66377830205f
     248:	6666                	flw	fa2,88(sp)
     24a:	6666                	flw	fa2,88(sp)
     24c:	6666                	flw	fa2,88(sp)
     24e:	6666                	flw	fa2,88(sp)
     250:	6666                	flw	fa2,88(sp)
     252:	6666                	flw	fa2,88(sp)
     254:	6666                	flw	fa2,88(sp)
     256:	4c4c                	lw	a1,28(s0)
     258:	5f00                	lw	s0,56(a4)
     25a:	5551                	li	a0,-12
     25c:	4441                	li	s0,16
     25e:	4c5f 574f 4f57      	0x4f57574f4c5f
     264:	4452                	lw	s0,20(sp)
     266:	3020                	fld	fs0,96(s0)
     268:	5f00                	lw	s0,56(a4)
     26a:	445f 4345 3233      	0x32334345445f
     270:	535f 4255 4f4e      	0x4f4e4255535f
     276:	4d52                	lw	s10,20(sp)
     278:	4c41                	li	s8,16
     27a:	4d5f 4e49 5f5f      	0x5f5f4e494d5f
     280:	3020                	fld	fs0,96(s0)
     282:	302e                	fld	ft0,232(sp)
     284:	3030                	fld	fa2,96(s0)
     286:	3030                	fld	fa2,96(s0)
     288:	4531                	li	a0,12
     28a:	392d                	jal	fffffec4 <__EH_FRAME_BEGIN__+0x7fffec1c>
     28c:	4435                	li	s0,13
     28e:	0046                	0x46
     290:	735f 6474 7265      	0x72656474735f
     296:	5f72                	lw	t5,60(sp)
     298:	2872                	fld	fa6,280(sp)
     29a:	2978                	fld	fa4,208(a0)
     29c:	2820                	fld	fs0,80(s0)
     29e:	7828                	flw	fa0,112(s0)
     2a0:	2d29                	jal	8ba <_data-0x1f746>
     2a2:	5f3e                	lw	t5,236(sp)
     2a4:	65647473          	csrrci	s0,0x656,8
     2a8:	7272                	flw	ft4,60(sp)
     2aa:	0029                	c.addi	zero,10
     2ac:	4b454553          	0x4b454553
     2b0:	535f 5445 3020      	0x30205445535f
     2b6:	5f00                	lw	s0,56(a4)
     2b8:	465f 544c 3436      	0x3436544c465f
     2be:	445f 4345 4d49      	0x4d494345445f
     2c4:	4c41                	li	s8,16
     2c6:	445f 4749 5f5f      	0x5f5f4749445f
     2cc:	3120                	fld	fs0,96(a0)
     2ce:	525f0037          	lui	zero,0x525f0
     2d2:	4545                	li	a0,17
     2d4:	544e                	lw	s0,240(sp)
     2d6:	535f 4749 414e      	0x414e4749535f
     2dc:	5f4c                	lw	a1,60(a4)
     2de:	455a4953          	0x455a4953
     2e2:	3220                	fld	fs0,96(a2)
     2e4:	0034                	addi	a3,sp,8
     2e6:	5450                	lw	a2,44(s0)
     2e8:	5248                	lw	a0,36(a2)
     2ea:	4145                	li	sp,17
     2ec:	5f44                	lw	s1,60(a4)
     2ee:	4e49                	li	t3,18
     2f0:	4548                	lw	a0,12(a0)
     2f2:	4952                	lw	s2,20(sp)
     2f4:	5f54                	lw	a3,60(a4)
     2f6:	45484353          	0x45484353
     2fa:	2044                	fld	fs1,128(s0)
     2fc:	0031                	c.addi	zero,12
     2fe:	4b5f 616d 2078      	0x2078616d4b5f
     304:	7328                	flw	fa0,96(a4)
     306:	7a69                	lui	s4,0xffffa
     308:	6f65                	lui	t5,0x19
     30a:	2066                	fld	ft0,88(sp)
     30c:	7328                	flw	fa0,96(a4)
     30e:	7a69                	lui	s4,0xffffa
     310:	5f65                	li	t5,-7
     312:	2974                	fld	fa3,208(a0)
     314:	3c20                	fld	fs0,120(s0)
     316:	203c                	fld	fa5,64(s0)
     318:	5f002933          	0x5f002933
     31c:	415f 4f54 494d      	0x494d4f54415f
     322:	4f435f43          	fmadd.q	ft10,ft6,fs4,fs1,unknown
     326:	534e                	lw	t1,240(sp)
     328:	4d55                	li	s10,21
     32a:	2045                	jal	3ca <_data-0x1fc36>
     32c:	0031                	c.addi	zero,12
     32e:	5f5f 454c 5341      	0x5341454c5f5f
     334:	3154                	fld	fa3,160(a0)
     336:	2036                	fld	ft0,328(sp)
     338:	6822                	flw	fa6,8(sp)
     33a:	0022                	0x22
     33c:	5f5f 6972 6373      	0x637369725f5f
     342:	5f76                	lw	t5,124(sp)
     344:	756d                	lui	a0,0xffffb
     346:	646c                	flw	fa1,76(s0)
     348:	7669                	lui	a2,0xffffa
     34a:	3120                	fld	fs0,96(a0)
     34c:	5f00                	lw	s0,56(a4)
     34e:	735f 6567 6374      	0x63746567735f
     354:	725f 5f28 705f      	0x705f5f28725f
     35a:	7274                	flw	fa3,100(a2)
     35c:	5f2c                	lw	a1,120(a4)
     35e:	705f 2029 5f5f      	0x5f5f2029705f
     364:	74656773          	csrrsi	a4,0x746,10
     368:	61725f63          	ble	s7,tp,986 <_data-0x1f67a>
     36c:	28725f77          	0x28725f77
     370:	5f5f 7470 2c72      	0x2c7274705f5f
     376:	5f20                	lw	s0,120(a4)
     378:	705f 0029 5f5f      	0x5f5f0029705f
     37e:	434e4f43          	fmadd.d	ft10,ft8,fs4,fs0,rmm
     382:	5441                	li	s0,-16
     384:	7828                	flw	fa0,112(s0)
     386:	792c                	flw	fa1,112(a0)
     388:	2029                	jal	392 <_data-0x1fc6e>
     38a:	5f5f 4f43 434e      	0x434e4f435f5f
     390:	5441                	li	s0,-16
     392:	2831                	jal	3ae <_data-0x1fc52>
     394:	2c78                	fld	fa4,216(s0)
     396:	2979                	jal	834 <_data-0x1f7cc>
     398:	5f00                	lw	s0,56(a4)
     39a:	74697277          	0x74697277
     39e:	0065                	c.addi	zero,25
     3a0:	535f 5f43 3656      	0x36565f43535f
     3a6:	4c5f 3650 5f34      	0x5f3436504c5f
     3ac:	3646464f          	fnmadd.q	fa2,fa2,ft4,ft6,rmm
     3b0:	2034                	fld	fa3,64(s0)
     3b2:	535f 5f43 3756      	0x37565f43535f
     3b8:	4c5f 3650 5f34      	0x5f3436504c5f
     3be:	3646464f          	fnmadd.q	fa2,fa2,ft4,ft6,rmm
     3c2:	0034                	addi	a3,sp,8
     3c4:	5f5f 4c46 3654      	0x36544c465f5f
     3ca:	5834                	lw	a3,112(s0)
     3cc:	455f 5350 4c49      	0x4c495350455f
     3d2:	5f5f4e4f          	fnmadd.q	ft8,ft10,fs5,fa1,rmm
     3d6:	3120                	fld	fs0,96(a0)
     3d8:	392e                	fld	fs2,232(sp)
     3da:	3532                	fld	fa0,296(sp)
     3dc:	3239                	jal	fffffcea <__EH_FRAME_BEGIN__+0x7fffea42>
     3de:	3939                	jal	fffffffc <__EH_FRAME_BEGIN__+0x7fffed54>
     3e0:	3434                	fld	fa3,104(s0)
     3e2:	32373833          	0x32373833
     3e6:	35383533          	0x35383533
     3ea:	35353033          	0x35353033
     3ee:	3739                	jal	2fc <_data-0x1fd04>
     3f0:	32343937          	lui	s2,0x32343
     3f4:	3835                	jal	fffffc30 <__EH_FRAME_BEGIN__+0x7fffe988>
     3f6:	3934                	fld	fa3,112(a0)
     3f8:	3732                	fld	fa4,296(sp)
     3fa:	2d653233          	0x2d653233
     3fe:	36463433          	0x36463433
     402:	7834                	flw	fa3,112(s0)
     404:	5f00                	lw	s0,56(a4)
     406:	545f4353          	0x545f4353
     40a:	5059                	0x5059
     40c:	4445                	li	s0,17
     40e:	4d5f 4d45 524f      	0x524f4d454d5f
     414:	5f59                	li	t5,-10
     416:	454a424f          	0x454a424f
     41a:	20535443          	fmadd.s	fs0,ft6,ft5,ft4,unknown
     41e:	3139                	jal	2c <_data-0x1ffd4>
     420:	5f00                	lw	s0,56(a4)
     422:	475f 554e 4c43      	0x4c43554e475f
     428:	4b49                	li	s6,18
     42a:	5f45                	li	t5,-15
     42c:	5f5f 5954 4550      	0x455059545f5f
     432:	3120464f          	fnmadd.s	fa2,ft0,fs2,ft6,rmm
     436:	5f00                	lw	s0,56(a4)
     438:	565f4353          	0x565f4353
     43c:	4c495f37          	lui	t5,0x4c495
     440:	3350                	fld	fa2,160(a4)
     442:	5f32                	lw	t5,44(sp)
     444:	3346464f          	fnmadd.d	fa2,fa2,fs4,ft6,rmm
     448:	2032                	fld	ft0,264(sp)
     44a:	3239                	jal	fffffd58 <__EH_FRAME_BEGIN__+0x7fffeab0>
     44c:	5f00                	lw	s0,56(a4)
     44e:	4350                	lw	a2,4(a4)
     450:	565f 4944 4153      	0x41534944565f
     456:	4c42                	lw	s8,16(sp)
     458:	2045                	jal	4f8 <_data-0x1fb08>
     45a:	0038                	addi	a4,sp,8
     45c:	5f5f 4953 455a      	0x455a49535f5f
     462:	4c5f464f          	0x4c5f464f
     466:	5f474e4f          	fnmadd.q	ft8,fa4,fs4,fa1,rmm
     46a:	4f4c                	lw	a1,28(a4)
     46c:	474e                	lw	a4,208(sp)
     46e:	5f5f 3820 5f00      	0x5f0038205f5f
     474:	7361                	lui	t1,0xffff8
     476:	6d697463          	bleu	s6,s2,b3e <_data-0x1f4c2>
     47a:	5f65                	li	t5,-7
     47c:	7562                	flw	fa0,56(sp)
     47e:	0066                	0x66
     480:	5f5f 4244 5f4c      	0x5f4c42445f5f
     486:	414d                	li	sp,19
     488:	5f58                	lw	a4,60(a4)
     48a:	3031                	jal	fffffc96 <__EH_FRAME_BEGIN__+0x7fffe9ee>
     48c:	455f 5058 5f5f      	0x5f5f5058455f
     492:	3320                	fld	fs0,96(a4)
     494:	3830                	fld	fa2,112(s0)
     496:	5f00                	lw	s0,56(a4)
     498:	6c747663          	bleu	t2,s0,b64 <_data-0x1f49c>
     49c:	6e65                	lui	t3,0x19
     49e:	5f00                	lw	s0,56(a4)
     4a0:	525f 5343 4449      	0x44495343525f
     4a6:	535f 554f 4352      	0x4352554f535f
     4ac:	2845                	jal	55c <_data-0x1faa4>
     4ae:	73202973          	csrr	s2,0x732
     4b2:	7274                	flw	fa3,100(a2)
     4b4:	6375                	lui	t1,0x1d
     4b6:	2074                	fld	fa3,192(s0)
     4b8:	5f5f 6168 6b63      	0x6b6361685f5f
     4be:	5300                	lw	s0,32(a4)
     4c0:	5a49                	li	s4,-14
     4c2:	5f45                	li	t5,-15
     4c4:	414d                	li	sp,19
     4c6:	2058                	fld	fa4,128(s0)
     4c8:	5f28                	lw	a0,120(a4)
     4ca:	535f 5a49 5f45      	0x5f455a49535f
     4d0:	414d                	li	sp,19
     4d2:	5f58                	lw	a4,60(a4)
     4d4:	295f 5f00 4353      	0x43535f00295f
     4da:	325f 465f 524f      	0x524f465f325f
     4e0:	5f54                	lw	a3,60(a4)
     4e2:	4544                	lw	s1,12(a0)
     4e4:	2056                	fld	ft0,336(sp)
     4e6:	3131                	jal	f2 <_data-0x1ff0e>
     4e8:	0030                	addi	a2,sp,8
     4ea:	5f5f 4f50 4953      	0x49534f505f5f
     4f0:	5f58                	lw	a4,60(a4)
     4f2:	4956                	lw	s2,84(sp)
     4f4:	4c424953          	0x4c424953
     4f8:	2045                	jal	598 <_data-0x1fa68>
     4fa:	3032                	fld	ft0,296(sp)
     4fc:	3830                	fld	fa2,112(s0)
     4fe:	3930                	fld	fa2,112(a0)
     500:	4900                	lw	s0,16(a0)
     502:	544e                	lw	s0,240(sp)
     504:	3436                	fld	fs0,360(sp)
     506:	435f 7828 2029      	0x20297828435f
     50c:	5f5f 4e49 3654      	0x36544e495f5f
     512:	5f34                	lw	a3,120(a4)
     514:	29782843          	fmadd.s	fa6,fa6,fs7,ft5,rdn
     518:	5f00                	lw	s0,56(a4)
     51a:	735f 7274 6e6f      	0x6e6f7274735f
     520:	65725f67          	0x65725f67
     524:	6566                	flw	fa0,88(sp)
     526:	6572                	flw	fa0,28(sp)
     528:	636e                	flw	ft6,216(sp)
     52a:	2865                	jal	5e2 <_data-0x1fa1e>
     52c:	2c6d7973          	csrrci	s2,0x2c6,26
     530:	6c61                	lui	s8,0x18
     532:	6169                	addi	sp,sp,208
     534:	6d797373          	csrrci	t1,0x6d7,18
     538:	2029                	jal	542 <_data-0x1fabe>
     53a:	7865                	lui	a6,0xffff9
     53c:	6574                	flw	fa3,76(a0)
     53e:	6e72                	flw	ft8,28(sp)
     540:	5f20                	lw	s0,120(a4)
     542:	745f 7079 6f65      	0x6f657079745f
     548:	2066                	fld	ft0,88(sp)
     54a:	7328                	flw	fa0,96(a4)
     54c:	6d79                	lui	s10,0x1e
     54e:	2029                	jal	558 <_data-0x1faa8>
     550:	6c61                	lui	s8,0x18
     552:	6169                	addi	sp,sp,208
     554:	6d797373          	csrrci	t1,0x6d7,18
     558:	5f20                	lw	s0,120(a4)
     55a:	615f 7474 6972      	0x69727474615f
     560:	7562                	flw	fa0,56(sp)
     562:	6574                	flw	fa3,76(a0)
     564:	5f5f 2820 5f28      	0x5f2828205f5f
     56a:	615f 696c 7361      	0x7361696c615f
     570:	5f5f 2820 7323      	0x732328205f5f
     576:	6d79                	lui	s10,0x1e
     578:	2929                	jal	992 <_data-0x1f66e>
     57a:	0029                	c.addi	zero,10
     57c:	5f5f 4544 3343      	0x334345445f5f
     582:	5f32                	lw	t5,44(sp)
     584:	494d                	li	s2,19
     586:	5f4e                	lw	t5,240(sp)
     588:	205f 4531 392d      	0x392d4531205f
     58e:	4435                	li	s0,13
     590:	0046                	0x46
     592:	5f5f 4e49 4d54      	0x4d544e495f5f
     598:	5841                	li	a6,-16
     59a:	575f 4449 4854      	0x48544449575f
     5a0:	5f5f 3620 0034      	0x3436205f5f
     5a6:	695f 636e 5f00      	0x5f00636e695f
     5ac:	4e49                	li	t3,18
     5ae:	505f 524f 5f54      	0x5f54524f505f
     5b4:	5f54                	lw	a3,60(a4)
     5b6:	4544                	lw	s1,12(a0)
     5b8:	52414c43          	fmadd.d	fs8,ft2,ft4,fa0,rmm
     5bc:	4445                	li	s0,17
     5be:	0020                	addi	s0,sp,8
     5c0:	5f5f 524f 4544      	0x4544524f5f5f
     5c6:	5f52                	lw	t5,52(sp)
     5c8:	4450                	lw	a2,12(s0)
     5ca:	5f50                	lw	a2,60(a4)
     5cc:	4e45                	li	t3,17
     5ce:	4944                	lw	s1,20(a0)
     5d0:	4e41                	li	t3,16
     5d2:	5f5f 3320 3134      	0x313433205f5f
     5d8:	0032                	0x32
     5da:	5f5f 4953 455a      	0x455a49535f5f
     5e0:	545f 5059 5f45      	0x5f455059545f
     5e6:	205f 6e75 6973      	0x69736e75205f
     5ec:	64656e67          	0x64656e67
     5f0:	6920                	flw	fs0,80(a0)
     5f2:	746e                	flw	fs0,248(sp)
     5f4:	5f00                	lw	s0,56(a4)
     5f6:	445f 4345 3436      	0x34364345445f
     5fc:	4d5f 5841 455f      	0x455f58414d5f
     602:	5058                	lw	a4,36(s0)
     604:	5f5f 3320 3538      	0x353833205f5f
     60a:	6700                	flw	fs0,8(a4)
     60c:	7465                	lui	s0,0xffff9
     60e:	70662863          	0x70662863
     612:	2029                	jal	61c <_data-0x1f9e4>
     614:	5f5f 6773 7465      	0x746567735f5f
     61a:	28725f63          	ble	t2,tp,8b8 <_data-0x1f748>
     61e:	525f 4545 544e      	0x544e4545525f
     624:	202c                	fld	fa1,64(s0)
     626:	7066                	flw	ft0,120(sp)
     628:	0029                	c.addi	zero,10
     62a:	5f5f 5046 465f      	0x465f50465f5f
     630:	5341                	li	t1,-16
     632:	5f54                	lw	a3,60(a4)
     634:	4d46                	lw	s10,80(sp)
     636:	2041                	jal	6b6 <_data-0x1f94a>
     638:	0031                	c.addi	zero,12
     63a:	5f5f 7270 6465      	0x646572705f5f
     640:	6369                	lui	t1,0x1a
     642:	5f74                	lw	a3,124(a4)
     644:	6166                	flw	ft2,88(sp)
     646:	736c                	flw	fa1,100(a4)
     648:	2865                	jal	700 <_data-0x1f900>
     64a:	7865                	lui	a6,0xffff9
     64c:	2970                	fld	fa2,208(a0)
     64e:	5f20                	lw	s0,120(a4)
     650:	625f 6975 746c      	0x746c6975625f
     656:	6e69                	lui	t3,0x1a
     658:	655f 7078 6365      	0x63657078655f
     65e:	2874                	fld	fa3,208(s0)
     660:	6528                	flw	fa0,72(a0)
     662:	7078                	flw	fa4,100(s0)
     664:	2c29                	jal	87e <_data-0x1f782>
     666:	3020                	fld	fs0,96(s0)
     668:	0029                	c.addi	zero,10
     66a:	5f5f 4e49 3854      	0x38544e495f5f
     670:	545f 5059 5f45      	0x5f455059545f
     676:	205f 6973 6e67      	0x6e676973205f
     67c:	6465                	lui	s0,0x19
     67e:	6320                	flw	fs0,64(a4)
     680:	6168                	flw	fa0,68(a0)
     682:	0072                	0x72
     684:	505f 5f43 5341      	0x53415f43505f
     68a:	4e59                	li	t3,22
     68c:	4f495f43          	fmadd.q	ft10,fs2,fs4,fs1,unknown
     690:	3920                	fld	fs0,112(a0)
     692:	5f00                	lw	s0,56(a4)
     694:	465f 544c 3233      	0x3233544c465f
     69a:	445f 4345 4d49      	0x4d494345445f
     6a0:	4c41                	li	s8,16
     6a2:	445f 4749 5f5f      	0x5f5f4749445f
     6a8:	3920                	fld	fs0,112(a0)
     6aa:	5f00                	lw	s0,56(a4)
     6ac:	585f 4953 565f      	0x565f4953585f
     6b2:	5349                	li	t1,-14
     6b4:	4249                	li	tp,18
     6b6:	454c                	lw	a1,12(a0)
     6b8:	3020                	fld	fs0,96(s0)
     6ba:	5f00                	lw	s0,56(a4)
     6bc:	535f 4454 5f43      	0x5f434454535f
     6c2:	5455                	li	s0,-11
     6c4:	5f46                	lw	t5,112(sp)
     6c6:	3631                	jal	1d2 <_data-0x1fe2e>
     6c8:	5f5f 3120 5f00      	0x5f0031205f5f
     6ce:	745f 006d 775f      	0x775f006d745f
     6d4:	74727363          	bleu	t2,tp,e1a <_data-0x1f1e6>
     6d8:	73626d6f          	jal	s10,26e0e <__global_pointer$+0x5dde>
     6dc:	735f 6174 6574      	0x65746174735f
     6e2:	5f00                	lw	s0,56(a4)
     6e4:	745f 5f6d 6573      	0x65735f6d745f
     6ea:	5f5f0063          	beq	t5,s5,cca <_data-0x1f336>
     6ee:	4955                	li	s2,21
     6f0:	544e                	lw	s0,240(sp)
     6f2:	5f38                	lw	a4,120(a4)
     6f4:	29632843          	fmadd.s	fa6,ft6,fs6,ft5,rdn
     6f8:	6320                	flw	fs0,64(a4)
     6fa:	5f00                	lw	s0,56(a4)
     6fc:	495f 544e 3631      	0x3631544e495f
     702:	545f 5059 5f45      	0x5f455059545f
     708:	205f 6873 726f      	0x726f6873205f
     70e:	2074                	fld	fa3,192(s0)
     710:	6e69                	lui	t3,0x1a
     712:	0074                	addi	a3,sp,12
     714:	5f5f 6c61 6769      	0x67696c615f5f
     71a:	656e                	flw	fa0,216(sp)
     71c:	2864                	fld	fs1,208(s0)
     71e:	2978                	fld	fa4,208(a0)
     720:	5f20                	lw	s0,120(a4)
     722:	615f 7474 6972      	0x69727474615f
     728:	7562                	flw	fa0,56(sp)
     72a:	6574                	flw	fa3,76(a0)
     72c:	5f5f 2828 5f5f      	0x5f5f28285f5f
     732:	6c61                	lui	s8,0x18
     734:	6769                	lui	a4,0x1a
     736:	656e                	flw	fa0,216(sp)
     738:	5f64                	lw	s1,124(a4)
     73a:	285f 2978 2929      	0x29292978285f
     740:	5f00                	lw	s0,56(a4)
     742:	585f4353          	0x585f4353
     746:	4e45504f          	fnmadd.q	ft0,fa0,ft4,fs1,unknown
     74a:	555f 494e 2058      	0x2058494e555f
     750:	3031                	jal	ffffff5c <__EH_FRAME_BEGIN__+0x7fffecb4>
     752:	0035                	c.addi	zero,13
     754:	6c5f 3436 5f61      	0x5f6134366c5f
     75a:	7562                	flw	fa0,56(sp)
     75c:	0066                	0x66
     75e:	505f 5f43 414e      	0x414e5f43505f
     764:	454d                	li	a0,19
     766:	4d5f 5841 3320      	0x332058414d5f
     76c:	5f00                	lw	s0,56(a4)
     76e:	4d5f4353          	0x4d5f4353
     772:	5f51                	li	t5,-12
     774:	5250                	lw	a2,36(a2)
     776:	4f49                	li	t5,18
     778:	4d5f 5841 3120      	0x312058414d5f
     77e:	0034                	addi	a3,sp,8
     780:	69647473          	csrrci	s0,0x696,8
     784:	206e                	fld	ft0,216(sp)
     786:	5f28                	lw	a0,120(a4)
     788:	4552                	lw	a0,20(sp)
     78a:	4e45                	li	t3,17
     78c:	2d54                	fld	fa3,152(a0)
     78e:	5f3e                	lw	t5,236(sp)
     790:	69647473          	csrrci	s0,0x696,8
     794:	296e                	fld	fs2,216(sp)
     796:	7400                	flw	fs0,40(s0)
     798:	6d69                	lui	s10,0x1a
     79a:	7265                	lui	tp,0xffff9
     79c:	6461                	lui	s0,0x18
     79e:	2864                	fld	fs1,208(s0)
     7a0:	7674                	flw	fa3,108(a2)
     7a2:	2c70                	fld	fa2,216(s0)
     7a4:	7675                	lui	a2,0xffffd
     7a6:	2c70                	fld	fa2,216(s0)
     7a8:	7676                	flw	fa2,124(sp)
     7aa:	2970                	fld	fa2,208(a0)
     7ac:	6420                	flw	fs0,72(s0)
     7ae:	207b206f          	j	b31b4 <__global_pointer$+0x92184>
     7b2:	7628                	flw	fa0,104(a2)
     7b4:	7076                	flw	ft0,124(sp)
     7b6:	2d29                	jal	dd0 <_data-0x1f230>
     7b8:	743e                	flw	fs0,236(sp)
     7ba:	5f76                	lw	t5,124(sp)
     7bc:	20636573          	csrrsi	a0,0x206,6
     7c0:	203d                	jal	7ee <_data-0x1f812>
     7c2:	7428                	flw	fa0,104(s0)
     7c4:	7076                	flw	ft0,124(sp)
     7c6:	2d29                	jal	de0 <_data-0x1f220>
     7c8:	743e                	flw	fs0,236(sp)
     7ca:	5f76                	lw	t5,124(sp)
     7cc:	20636573          	csrrsi	a0,0x206,6
     7d0:	7528202b          	0x7528202b
     7d4:	7076                	flw	ft0,124(sp)
     7d6:	2d29                	jal	df0 <_data-0x1f210>
     7d8:	743e                	flw	fs0,236(sp)
     7da:	5f76                	lw	t5,124(sp)
     7dc:	3b636573          	csrrsi	a0,pmpaddr6,6
     7e0:	2820                	fld	fs0,80(s0)
     7e2:	7676                	flw	fa2,124(sp)
     7e4:	2970                	fld	fa2,208(a0)
     7e6:	3e2d                	jal	320 <_data-0x1fce0>
     7e8:	7674                	flw	fa3,108(a2)
     7ea:	755f 6573 2063      	0x20636573755f
     7f0:	203d                	jal	81e <_data-0x1f7e2>
     7f2:	7428                	flw	fa0,104(s0)
     7f4:	7076                	flw	ft0,124(sp)
     7f6:	2d29                	jal	e10 <_data-0x1f1f0>
     7f8:	743e                	flw	fs0,236(sp)
     7fa:	5f76                	lw	t5,124(sp)
     7fc:	7375                	lui	t1,0xffffd
     7fe:	6365                	lui	t1,0x19
     800:	2b20                	fld	fs0,80(a4)
     802:	2820                	fld	fs0,80(s0)
     804:	7675                	lui	a2,0xffffd
     806:	2970                	fld	fa2,208(a0)
     808:	3e2d                	jal	342 <_data-0x1fcbe>
     80a:	7674                	flw	fa3,108(a2)
     80c:	755f 6573 3b63      	0x3b636573755f
     812:	6920                	flw	fs0,80(a0)
     814:	2066                	fld	ft0,88(sp)
     816:	2828                	fld	fa0,80(s0)
     818:	7676                	flw	fa2,124(sp)
     81a:	2970                	fld	fa2,208(a0)
     81c:	3e2d                	jal	356 <_data-0x1fcaa>
     81e:	7674                	flw	fa3,108(a2)
     820:	755f 6573 2063      	0x20636573755f
     826:	3d3e                	fld	fs10,488(sp)
     828:	3120                	fld	fs0,96(a0)
     82a:	3030                	fld	fa2,96(s0)
     82c:	3030                	fld	fa2,96(s0)
     82e:	3030                	fld	fa2,96(s0)
     830:	2029                	jal	83a <_data-0x1f7c6>
     832:	7628207b          	0x7628207b
     836:	7076                	flw	ft0,124(sp)
     838:	2d29                	jal	e52 <_data-0x1f1ae>
     83a:	743e                	flw	fs0,236(sp)
     83c:	5f76                	lw	t5,124(sp)
     83e:	2b636573          	csrrsi	a0,0x2b6,6
     842:	28203b2b          	0x28203b2b
     846:	7676                	flw	fa2,124(sp)
     848:	2970                	fld	fa2,208(a0)
     84a:	3e2d                	jal	384 <_data-0x1fc7c>
     84c:	7674                	flw	fa3,108(a2)
     84e:	755f 6573 2063      	0x20636573755f
     854:	3d2d                	jal	68e <_data-0x1f972>
     856:	3120                	fld	fs0,96(a0)
     858:	3030                	fld	fa2,96(s0)
     85a:	3030                	fld	fa2,96(s0)
     85c:	3030                	fld	fa2,96(s0)
     85e:	207d203b          	0x207d203b
     862:	207d                	jal	910 <_data-0x1f6f0>
     864:	6c696877          	0x6c696877
     868:	2065                	jal	910 <_data-0x1f6f0>
     86a:	3028                	fld	fa0,96(s0)
     86c:	0029                	c.addi	zero,10
     86e:	535f 5f43 5254      	0x52545f43535f
     874:	4341                	li	t1,16
     876:	5f45                	li	t5,-15
     878:	5355                	li	t1,-11
     87a:	5245                	li	tp,-15
     87c:	455f 4556 544e      	0x544e4556455f
     882:	4d5f 5841 3920      	0x392058414d5f
     888:	0030                	addi	a2,sp,8
     88a:	5f5f 6e75 6f62      	0x6f626e755f5f
     890:	6e75                	lui	t3,0x1d
     892:	6564                	flw	fs1,76(a0)
     894:	2064                	fld	fs1,192(s0)
     896:	5f00                	lw	s0,56(a4)
     898:	495f 544e 2038      	0x2038544e495f
     89e:	6822                	flw	fa6,8(sp)
     8a0:	2268                	fld	fa0,192(a2)
     8a2:	5f00                	lw	s0,56(a4)
     8a4:	445f 4345 4d49      	0x4d494345445f
     8aa:	4c41                	li	s8,16
     8ac:	445f 4749 5f5f      	0x5f5f4749445f
     8b2:	3320                	fld	fs0,96(a4)
     8b4:	0036                	0x36
     8b6:	4e49                	li	t3,18
     8b8:	5f54                	lw	a3,60(a4)
     8ba:	454c                	lw	a1,12(a0)
     8bc:	5341                	li	t1,-16
     8be:	3154                	fld	fa3,160(a0)
     8c0:	5f36                	lw	t5,108(sp)
     8c2:	414d                	li	sp,19
     8c4:	2058                	fld	fa4,128(s0)
     8c6:	5f28                	lw	a0,120(a4)
     8c8:	495f 544e 4c5f      	0x4c5f544e495f
     8ce:	4145                	li	sp,17
     8d0:	36315453          	0x36315453
     8d4:	4d5f 5841 5f5f      	0x5f5f58414d5f
     8da:	0029                	c.addi	zero,10
     8dc:	535f 4749 4553      	0x45534749535f
     8e2:	5f54                	lw	a3,60(a4)
     8e4:	5f54                	lw	a3,60(a4)
     8e6:	4544                	lw	s1,12(a0)
     8e8:	52414c43          	fmadd.d	fs8,ft2,ft4,fa0,rmm
     8ec:	4445                	li	s0,17
     8ee:	0020                	addi	s0,sp,8
     8f0:	535f 5f43 4150      	0x41505f43535f
     8f6:	49534547          	fmsub.s	fa0,ft6,fs5,fs1,rmm
     8fa:	455a                	lw	a0,148(sp)
     8fc:	3820                	fld	fs0,112(s0)
     8fe:	5f00                	lw	s0,56(a4)
     900:	535f 4454 5f43      	0x5f434454535f
     906:	4f48                	lw	a0,28(a4)
     908:	44455453          	0x44455453
     90c:	5f5f 3120 5f00      	0x5f0031205f5f
     912:	657a6973          	csrrsi	s2,0x657,20
     916:	4600                	lw	s0,8(a2)
     918:	5f44                	lw	s1,60(a4)
     91a:	5349                	li	t1,-14
     91c:	28544553          	0x28544553
     920:	2c6e                	fld	fs8,216(sp)
     922:	2970                	fld	fa2,208(a0)
     924:	2820                	fld	fs0,80(s0)
     926:	7028                	flw	fa0,96(s0)
     928:	2d29                	jal	f42 <_data-0x1f0be>
     92a:	663e                	flw	fa2,204(sp)
     92c:	7364                	flw	fs1,100(a4)
     92e:	625f 7469 5b73      	0x5b737469625f
     934:	6e28                	flw	fa0,88(a2)
     936:	2f29                	jal	1050 <_data-0x1efb0>
     938:	464e                	lw	a2,208(sp)
     93a:	4244                	lw	s1,4(a2)
     93c:	5449                	li	s0,-14
     93e:	26205d53          	0x26205d53
     942:	2820                	fld	fs0,80(s0)
     944:	4c31                	li	s8,12
     946:	3c20                	fld	fs0,120(s0)
     948:	203c                	fld	fa5,64(s0)
     94a:	2828                	fld	fa0,80(s0)
     94c:	296e                	fld	fs2,216(sp)
     94e:	2520                	fld	fs0,72(a0)
     950:	4e20                	lw	s0,88(a2)
     952:	4446                	lw	s0,80(sp)
     954:	4942                	lw	s2,16(sp)
     956:	5354                	lw	a3,36(a4)
     958:	2929                	jal	d72 <_data-0x1f28e>
     95a:	0029                	c.addi	zero,10
     95c:	505f 5f43 5953      	0x59535f43505f
     962:	434e                	lw	t1,208(sp)
     964:	495f 204f 3131      	0x3131204f495f
     96a:	5f00                	lw	s0,56(a4)
     96c:	4552                	lw	a0,20(sp)
     96e:	4e45                	li	t3,17
     970:	5f54                	lw	a3,60(a4)
     972:	504d                	0x504d
     974:	525f 5345 4c55      	0x4c555345525f
     97a:	2854                	fld	fa3,144(s0)
     97c:	7470                	flw	fa2,108(s0)
     97e:	2972                	fld	fs2,280(sp)
     980:	2820                	fld	fs0,80(s0)
     982:	7028                	flw	fa0,96(s0)
     984:	7274                	flw	fa3,100(a2)
     986:	2d29                	jal	fa0 <_data-0x1f060>
     988:	5f3e                	lw	t5,236(sp)
     98a:	6572                	flw	fa0,28(sp)
     98c:	746c7573          	csrrci	a0,0x746,24
     990:	0029                	c.addi	zero,10
     992:	5f5f 4e49 5f54      	0x5f544e495f5f
     998:	4146                	lw	sp,80(sp)
     99a:	34365453          	0x34365453
     99e:	545f 5059 5f45      	0x5f455059545f
     9a4:	205f 6f6c 676e      	0x676e6f6c205f
     9aa:	6c20                	flw	fs0,88(s0)
     9ac:	20676e6f          	jal	t3,76bb2 <__global_pointer$+0x55b82>
     9b0:	6e69                	lui	t3,0x1a
     9b2:	0074                	addi	a3,sp,12
     9b4:	5f5f 4942 5f54      	0x5f5449425f5f
     9ba:	5954                	lw	a3,52(a0)
     9bc:	4550                	lw	a2,12(a0)
     9be:	45445f53          	0x45445f53
     9c2:	4946                	lw	s2,80(sp)
     9c4:	454e                	lw	a0,208(sp)
     9c6:	5f44                	lw	s1,60(a4)
     9c8:	205f 0031 665f      	0x665f0031205f
     9ce:	616e                	flw	ft2,216(sp)
     9d0:	6772                	flw	fa4,28(sp)
     9d2:	535f0073          	0x535f0073
     9d6:	5f325f43          	fmadd.q	ft10,ft4,fs3,fa1,unknown
     9da:	4f46                	lw	t5,80(sp)
     9dc:	5452                	lw	s0,52(sp)
     9de:	525f 4e55 3120      	0x31204e55525f
     9e4:	3131                	jal	5f0 <_data-0x1fa10>
     9e6:	5f00                	lw	s0,56(a4)
     9e8:	6f6c                	flw	fa1,92(a4)
     9ea:	5f006b63          	bltu	zero,a6,fe0 <_data-0x1f020>
     9ee:	535f 5a49 5f45      	0x5f455a49535f
     9f4:	5f54                	lw	a3,60(a4)
     9f6:	205f 5f00 465f      	0x465f5f00205f
     9fc:	544c                	lw	a1,44(s0)
     9fe:	4d5f3233          	0x4d5f3233
     a02:	4e49                	li	t3,18
     a04:	5f5f 3120 312e      	0x312e31205f5f
     a0a:	39343537          	lui	a0,0x39343
     a0e:	3334                	fld	fa3,96(a4)
     a10:	3035                	jal	23c <_data-0x1fdc4>
     a12:	3238                	fld	fa4,96(a2)
     a14:	3232                	fld	ft4,296(sp)
     a16:	3738                	fld	fa4,104(a4)
     a18:	3035                	jal	244 <_data-0x1fdbc>
     a1a:	38363937          	lui	s2,0x38363
     a1e:	35363337          	lui	t1,0x35363
     a22:	32323733          	0x32323733
     a26:	3232                	fld	ft4,296(sp)
     a28:	3534                	fld	fa3,104(a0)
     a2a:	3836                	fld	fa6,360(sp)
     a2c:	2d65                	jal	10e4 <_data-0x1ef1c>
     a2e:	33463833          	0x33463833
     a32:	0032                	0x32
     a34:	5450                	lw	a2,44(s0)
     a36:	4452                	lw	s0,20(sp)
     a38:	4649                	li	a2,18
     a3a:	5f46                	lw	t5,112(sp)
     a3c:	414d                	li	sp,19
     a3e:	2058                	fld	fa4,128(s0)
     a40:	5f28                	lw	a0,120(a4)
     a42:	505f 5254 4944      	0x49445254505f
     a48:	4646                	lw	a2,80(sp)
     a4a:	4d5f 5841 5f5f      	0x5f5f58414d5f
     a50:	0029                	c.addi	zero,10
     a52:	535f 5f43 454c      	0x454c5f43535f
     a58:	4556                	lw	a0,84(sp)
     a5a:	344c                	fld	fa1,168(s0)
     a5c:	435f 4341 4548      	0x45484341435f
     a62:	415f 5353 434f      	0x434f5353415f
     a68:	3120                	fld	fs0,96(a0)
     a6a:	5f003833          	0x5f003833
     a6e:	6e5f 6565 5f64      	0x5f6465656e5f
     a74:	5f5f 6176 6c5f      	0x6c5f61765f5f
     a7a:	7369                	lui	t1,0xffffa
     a7c:	2074                	fld	fa3,192(s0)
     a7e:	5f00                	lw	s0,56(a4)
     a80:	5f46464f          	fnmadd.q	fa2,fa2,fs4,fa1,rmm
     a84:	5f54                	lw	a3,60(a4)
     a86:	4544                	lw	s1,12(a0)
     a88:	52414c43          	fmadd.d	fs8,ft2,ft4,fa0,rmm
     a8c:	4445                	li	s0,17
     a8e:	0020                	addi	s0,sp,8
     a90:	535f 5f43 4854      	0x48545f43535f
     a96:	4552                	lw	a0,20(sp)
     a98:	4441                	li	s0,16
     a9a:	505f 4952 5f4f      	0x5f4f4952505f
     aa0:	5250                	lw	a2,36(a2)
     aa2:	4345544f          	fnmadd.d	fs0,fa0,fs4,fs0,unknown
     aa6:	2054                	fld	fa3,128(s0)
     aa8:	3734                	fld	fa3,104(a4)
     aaa:	5f00                	lw	s0,56(a4)
     aac:	4c4e                	lw	s8,208(sp)
     aae:	4e49                	li	t3,18
     ab0:	5f545f4b          	fnmsub.q	ft10,fs0,fs5,fa1,unknown
     ab4:	4544                	lw	s1,12(a0)
     ab6:	52414c43          	fmadd.d	fs8,ft2,ft4,fa0,rmm
     aba:	4445                	li	s0,17
     abc:	0020                	addi	s0,sp,8
     abe:	505f 5f43 4552      	0x45525f43505f
     ac4:	46585f43          	fmadd.q	ft10,fa6,ft5,fs0,unknown
     ac8:	5245                	li	tp,-15
     aca:	415f 494c 4e47      	0x4e47494c415f
     ad0:	3120                	fld	fs0,96(a0)
     ad2:	0039                	c.addi	zero,14
     ad4:	5f5f 6164 6464      	0x646461645f5f
     ada:	5f72                	lw	t5,60(sp)
     adc:	5f74                	lw	a3,124(a4)
     ade:	6564                	flw	fs1,76(a0)
     ae0:	6966                	flw	fs2,88(sp)
     ae2:	656e                	flw	fa0,216(sp)
     ae4:	2064                	fld	fs1,192(s0)
     ae6:	5f00                	lw	s0,56(a4)
     ae8:	4552                	lw	a0,20(sp)
     aea:	4e45                	li	t3,17
     aec:	5f54                	lw	a3,60(a4)
     aee:	504d                	0x504d
     af0:	465f 4552 4c45      	0x4c454552465f
     af6:	5349                	li	t1,-14
     af8:	2854                	fld	fa3,144(s0)
     afa:	7470                	flw	fa2,108(s0)
     afc:	2972                	fld	fs2,280(sp)
     afe:	2820                	fld	fs0,80(s0)
     b00:	7028                	flw	fa0,96(s0)
     b02:	7274                	flw	fa3,100(a2)
     b04:	2d29                	jal	111e <_data-0x1eee2>
     b06:	5f3e                	lw	t5,236(sp)
     b08:	7266                	flw	ft4,120(sp)
     b0a:	6565                	lui	a0,0x19
     b0c:	696c                	flw	fa1,84(a0)
     b0e:	00297473          	csrrci	s0,frm,18
     b12:	535f 5f43 454c      	0x454c5f43535f
     b18:	4556                	lw	a0,84(sp)
     b1a:	314c                	fld	fa1,160(a0)
     b1c:	445f 4143 4843      	0x48434143445f
     b22:	5f45                	li	t5,-15
     b24:	494c                	lw	a1,20(a0)
     b26:	454e                	lw	a0,208(sp)
     b28:	455a4953          	0x455a4953
     b2c:	3120                	fld	fs0,96(a0)
     b2e:	64003033          	0x64003033
     b32:	6265                	lui	tp,0x19
     b34:	6775                	lui	a4,0x1d
     b36:	705f 7475 0073      	0x737475705f
     b3c:	65647473          	csrrci	s0,0x656,8
     b40:	7272                	flw	ft4,60(sp)
     b42:	2820                	fld	fs0,80(s0)
     b44:	525f 4545 544e      	0x544e4545525f
     b4a:	3e2d                	jal	684 <_data-0x1f97c>
     b4c:	735f 6474 7265      	0x72656474735f
     b52:	2972                	fld	fs2,280(sp)
     b54:	5f00                	lw	s0,56(a4)
     b56:	6e5f 6565 5f64      	0x5f6465656e5f
     b5c:	61686377          	0x61686377
     b60:	5f72                	lw	t5,60(sp)
     b62:	0074                	addi	a3,sp,12
     b64:	5f5f 4c46 3354      	0x33544c465f5f
     b6a:	5f32                	lw	t5,44(sp)
     b6c:	494d                	li	s2,19
     b6e:	5f4e                	lw	t5,240(sp)
     b70:	5845                	li	a6,-15
     b72:	5f50                	lw	a2,60(a4)
     b74:	205f 2d28 3231      	0x32312d28205f
     b7a:	2935                	jal	fb6 <_data-0x1f04a>
     b7c:	5f00                	lw	s0,56(a4)
     b7e:	6c5f 636f 5f6b      	0x5f6b636f6c5f
     b84:	736f6c63          	bltu	t5,s6,12bc <_data-0x1ed44>
     b88:	5f65                	li	t5,-7
     b8a:	6572                	flw	fa0,28(sp)
     b8c:	73727563          	bleu	s7,tp,12b6 <_data-0x1ed4a>
     b90:	7669                	lui	a2,0xffffa
     b92:	2865                	jal	c4a <_data-0x1f3b6>
     b94:	6f6c                	flw	fa1,92(a4)
     b96:	20296b63          	bltu	s2,sp,dac <_data-0x1f254>
     b9a:	5f28                	lw	a0,120(a4)
     b9c:	54534143          	0x54534143
     ba0:	565f 494f 2044      	0x2044494f565f
     ba6:	2930                	fld	fa2,80(a0)
     ba8:	5f00                	lw	s0,56(a4)
     baa:	64746567          	0x64746567
     bae:	7461                	lui	s0,0xffff8
     bb0:	5f65                	li	t5,-7
     bb2:	7265                	lui	tp,0xffff9
     bb4:	0072                	0x72
     bb6:	425f 4453 505f      	0x505f4453425f
     bbc:	5254                	lw	a3,36(a2)
     bbe:	4944                	lw	s1,20(a0)
     bc0:	4646                	lw	a2,80(sp)
     bc2:	545f 205f 4900      	0x4900205f545f
     bc8:	544e                	lw	s0,240(sp)
     bca:	3631                	jal	6d6 <_data-0x1f92a>
     bcc:	4d5f 5841 2820      	0x282058414d5f
     bd2:	5f5f 4e49 3154      	0x31544e495f5f
     bd8:	5f36                	lw	t5,108(sp)
     bda:	414d                	li	sp,19
     bdc:	5f58                	lw	a4,60(a4)
     bde:	295f 5f00 4f4d      	0x4f4d5f00295f
     be4:	4544                	lw	s1,12(a0)
     be6:	545f 445f 4345      	0x4345445f545f
     bec:	414c                	lw	a1,4(a0)
     bee:	4552                	lw	a0,20(sp)
     bf0:	2044                	fld	fs1,128(s0)
     bf2:	5f00                	lw	s0,56(a4)
     bf4:	545f4353          	0x545f4353
     bf8:	5248                	lw	a0,36(a2)
     bfa:	4145                	li	sp,17
     bfc:	5f44                	lw	s1,60(a4)
     bfe:	4854                	lw	a3,20(s0)
     c00:	4552                	lw	a0,20(sp)
     c02:	4441                	li	s0,16
     c04:	414d5f53          	0x414d5f53
     c08:	2058                	fld	fa4,128(s0)
     c0a:	3034                	fld	fa3,96(s0)
     c0c:	5f00                	lw	s0,56(a4)
     c0e:	465f 544c 3436      	0x3436544c465f
     c14:	4d5f 4e49 315f      	0x315f4e494d5f
     c1a:	5f30                	lw	a2,120(a4)
     c1c:	5845                	li	a6,-15
     c1e:	5f50                	lw	a2,60(a4)
     c20:	205f 2d28 3033      	0x30332d28205f
     c26:	5f002937          	lui	s2,0x5f002
     c2a:	735f 7a69 5f65      	0x5f657a69735f
     c30:	2074                	fld	fa3,192(s0)
     c32:	5f00                	lw	s0,56(a4)
     c34:	625f 756f 646e      	0x646e756f625f
     c3a:	6465                	lui	s0,0x19
     c3c:	0020                	addi	s0,sp,8
     c3e:	5f5f 6e69 5f74      	0x5f746e695f5f
     c44:	6166                	flw	ft2,88(sp)
     c46:	32337473          	csrrci	s0,mhpmevent3,6
     c4a:	745f 645f 6665      	0x6665645f745f
     c50:	6e69                	lui	t3,0x1a
     c52:	6465                	lui	s0,0x19
     c54:	3120                	fld	fs0,96(a0)
     c56:	5f00                	lw	s0,56(a4)
     c58:	495f 544e 465f      	0x465f544e495f
     c5e:	5341                	li	t1,-16
     c60:	3654                	fld	fa3,168(a2)
     c62:	5f34                	lw	a3,120(a4)
     c64:	54444957          	0x54444957
     c68:	5f48                	lw	a0,60(a4)
     c6a:	205f 3436 5f00      	0x5f003436205f
     c70:	5845                	li	a6,-15
     c72:	5546                	lw	a0,112(sp)
     c74:	284e                	fld	fa6,208(sp)
     c76:	616e                	flw	ft2,216(sp)
     c78:	656d                	lui	a0,0x1b
     c7a:	702c                	flw	fa1,96(s0)
     c7c:	6f72                	flw	ft10,28(sp)
     c7e:	6f74                	flw	fa3,92(a4)
     c80:	2029                	jal	c8a <_data-0x1f376>
     c82:	616e                	flw	ft2,216(sp)
     c84:	656d                	lui	a0,0x1b
     c86:	7020                	flw	fs0,96(s0)
     c88:	6f72                	flw	ft10,28(sp)
     c8a:	6f74                	flw	fa3,92(a4)
     c8c:	5f00                	lw	s0,56(a4)
     c8e:	5f5f 6e69 5f74      	0x5f746e695f5f
     c94:	61686377          	0x61686377
     c98:	5f72                	lw	t5,60(sp)
     c9a:	5f74                	lw	a3,124(a4)
     c9c:	2068                	fld	fa0,192(s0)
     c9e:	5f00                	lw	s0,56(a4)
     ca0:	756d                	lui	a0,0xffffb
     ca2:	746c                	flw	fa1,108(s0)
     ca4:	4900                	lw	s0,16(a0)
     ca6:	544e                	lw	s0,240(sp)
     ca8:	3631                	jal	7b4 <_data-0x1f84c>
     caa:	435f 7828 2029      	0x20297828435f
     cb0:	5f5f 4e49 3154      	0x31544e495f5f
     cb6:	5f36                	lw	t5,108(sp)
     cb8:	29782843          	fmadd.s	fa6,fa6,fs7,ft5,rdn
     cbc:	5f00                	lw	s0,56(a4)
     cbe:	435f 4e4f 4143      	0x41434e4f435f
     cc4:	3154                	fld	fa3,160(a0)
     cc6:	7828                	flw	fa0,112(s0)
     cc8:	792c                	flw	fa1,112(a0)
     cca:	2029                	jal	cd4 <_data-0x1f32c>
     ccc:	2078                	fld	fa4,192(s0)
     cce:	79202323          	sw	s2,1926(zero) # 525f0786 <__global_pointer$+0x525cf756>
     cd2:	5f00                	lw	s0,56(a4)
     cd4:	5f54                	lw	a3,60(a4)
     cd6:	455a4953          	0x455a4953
     cda:	0020                	addi	s0,sp,8
     cdc:	5f5f 4244 5f4c      	0x5f4c42445f5f
     ce2:	494d                	li	s2,19
     ce4:	5f4e                	lw	t5,240(sp)
     ce6:	3031                	jal	4f2 <_data-0x1fb0e>
     ce8:	455f 5058 5f5f      	0x5f5f5058455f
     cee:	2820                	fld	fs0,80(s0)
     cf0:	332d                	jal	a1a <_data-0x1f5e6>
     cf2:	3730                	fld	fa2,104(a4)
     cf4:	0029                	c.addi	zero,10
     cf6:	535f 5359 545f      	0x545f5359535f
     cfc:	4d49                	li	s10,18
     cfe:	5345                	li	t1,-15
     d00:	4550                	lw	a2,12(a0)
     d02:	5f485f43          	fmadd.q	ft10,fa6,fs4,fa1,unknown
     d06:	0020                	addi	s0,sp,8
     d08:	5f5f 524f 4544      	0x4544524f5f5f
     d0e:	5f52                	lw	t5,52(sp)
     d10:	4942                	lw	s2,16(sp)
     d12:	4e455f47          	fmsub.q	ft10,fa0,ft4,fs1,unknown
     d16:	4944                	lw	s1,20(a0)
     d18:	4e41                	li	t3,16
     d1a:	5f5f 3420 3233      	0x323334205f5f
     d20:	0031                	c.addi	zero,12
     d22:	535f 5f43 454c      	0x454c5f43535f
     d28:	4556                	lw	a0,84(sp)
     d2a:	324c                	fld	fa1,160(a2)
     d2c:	435f 4341 4548      	0x45484341435f
     d32:	4c5f 4e49 5345      	0x53454e494c5f
     d38:	5a49                	li	s4,-14
     d3a:	2045                	jal	dda <_data-0x1f226>
     d3c:	3331                	jal	a48 <_data-0x1f5b8>
     d3e:	54530033          	0x54530033
     d42:	4944                	lw	s1,20(a0)
     d44:	5f4e                	lw	t5,240(sp)
     d46:	4946                	lw	s2,80(sp)
     d48:	454c                	lw	a1,12(a0)
     d4a:	4f4e                	lw	t5,208(sp)
     d4c:	3020                	fld	fs0,96(s0)
     d4e:	5f00                	lw	s0,56(a4)
     d50:	4c45                	li	s8,17
     d52:	4449                	li	s0,18
     d54:	4241                	li	tp,16
     d56:	454c                	lw	a1,12(a0)
     d58:	495f 4c4e 4e49      	0x4e494c4e495f
     d5e:	2045                	jal	dfe <_data-0x1f202>
     d60:	74617473          	csrrci	s0,0x746,2
     d64:	6369                	lui	t1,0x1a
     d66:	5f20                	lw	s0,120(a4)
     d68:	695f 6c6e 6e69      	0x6e696c6e695f
     d6e:	5f65                	li	t5,-7
     d70:	005f 5f5f 5353      	0x53535f5f005f
     d76:	5254                	lw	a3,36(a2)
     d78:	3020                	fld	fs0,96(s0)
     d7a:	3078                	fld	fa4,224(s0)
     d7c:	3032                	fld	ft0,296(sp)
     d7e:	0030                	addi	a2,sp,8
     d80:	4b5f 5945 545f      	0x545f59454b5f
     d86:	445f 4345 414c      	0x414c4345445f
     d8c:	4552                	lw	a0,20(sp)
     d8e:	2044                	fld	fs1,128(s0)
     d90:	5f00                	lw	s0,56(a4)
     d92:	6e5f 6f74 6c68      	0x6c686f746e5f
     d98:	5f28                	lw	a0,120(a4)
     d9a:	2978                	fld	fa4,208(a0)
     d9c:	5f20                	lw	s0,120(a4)
     d9e:	625f 7773 7061      	0x70617773625f
     da4:	5f283233          	0x5f283233
     da8:	2978                	fld	fa4,208(a0)
     daa:	6400                	flw	fs0,8(s0)
     dac:	6265                	lui	tp,0x19
     dae:	6775                	lui	a4,0x1d
     db0:	705f 6972 746e      	0x746e6972705f
     db6:	5f00                	lw	s0,56(a4)
     db8:	465f 544c 3231      	0x3231544c465f
     dbe:	5f38                	lw	a4,120(a4)
     dc0:	4148                	lw	a0,4(a0)
     dc2:	55515f53          	0x55515f53
     dc6:	4549                	li	a0,18
     dc8:	5f54                	lw	a3,60(a4)
     dca:	414e                	lw	sp,208(sp)
     dcc:	5f4e                	lw	t5,240(sp)
     dce:	205f 0031 535f      	0x535f0031205f
     dd4:	5359                	li	t1,-10
     dd6:	5f5f 5453 4944      	0x494454535f5f
     ddc:	544e                	lw	s0,240(sp)
     dde:	485f 0020 4e49      	0x4e490020485f
     de4:	5f54                	lw	a3,60(a4)
     de6:	454c                	lw	a1,12(a0)
     de8:	5341                	li	t1,-16
     dea:	3654                	fld	fa3,168(a2)
     dec:	5f34                	lw	a3,120(a4)
     dee:	414d                	li	sp,19
     df0:	2058                	fld	fa4,128(s0)
     df2:	5f28                	lw	a0,120(a4)
     df4:	495f 544e 4c5f      	0x4c5f544e495f
     dfa:	4145                	li	sp,17
     dfc:	34365453          	0x34365453
     e00:	4d5f 5841 5f5f      	0x5f5f58414d5f
     e06:	0029                	c.addi	zero,10
     e08:	5f5f 4c46 3654      	0x36544c465f5f
     e0e:	5f34                	lw	a3,120(a4)
     e10:	494d                	li	s2,19
     e12:	5f4e                	lw	t5,240(sp)
     e14:	5845                	li	a6,-15
     e16:	5f50                	lw	a2,60(a4)
     e18:	205f 2d28 3031      	0x30312d28205f
     e1e:	3132                	fld	ft2,296(sp)
     e20:	0029                	c.addi	zero,10
     e22:	515f 4155 5f44      	0x5f444155515f
     e28:	4948                	lw	a0,20(a0)
     e2a:	4f574847          	fmsub.q	fa6,fa4,fs5,fs1,rmm
     e2e:	4452                	lw	s0,20(sp)
     e30:	3120                	fld	fs0,96(a0)
     e32:	5f00                	lw	s0,56(a4)
     e34:	4c5f4353          	0x4c5f4353
     e38:	5645                	li	a2,-15
     e3a:	4c45                	li	s8,17
     e3c:	41435f33          	sra	t5,t1,s4
     e40:	5f454843          	fmadd.q	fa6,fa0,fs4,fa1,rmm
     e44:	5341                	li	t1,-16
     e46:	20434f53          	0x20434f53
     e4a:	3331                	jal	b56 <_data-0x1f4aa>
     e4c:	0035                	c.addi	zero,13
     e4e:	5f5f 5450 4452      	0x445254505f5f
     e54:	4649                	li	a2,18
     e56:	5f46                	lw	t5,112(sp)
     e58:	54444957          	0x54444957
     e5c:	5f48                	lw	a0,60(a4)
     e5e:	205f 3233 5300      	0x53003233205f
     e64:	4454                	lw	a3,12(s0)
     e66:	5f54554f          	fnmadd.q	fa0,fs0,fs5,fa1,unknown
     e6a:	4946                	lw	s2,80(sp)
     e6c:	454c                	lw	a1,12(a0)
     e6e:	4f4e                	lw	t5,208(sp)
     e70:	3120                	fld	fs0,96(a0)
     e72:	5f00                	lw	s0,56(a4)
     e74:	465f 544c 445f      	0x445f544c465f
     e7a:	4e45                	li	t3,17
     e7c:	5f4d524f          	fnmadd.q	ft4,fs10,fs4,fa1,unknown
     e80:	494d                	li	s2,19
     e82:	5f4e                	lw	t5,240(sp)
     e84:	205f 2e31 3034      	0x30342e31205f
     e8a:	3231                	jal	796 <_data-0x1f86a>
     e8c:	3839                	jal	6aa <_data-0x1f956>
     e8e:	3634                	fld	fa3,104(a2)
     e90:	3334                	fld	fa3,96(a4)
     e92:	3432                	fld	fs0,296(sp)
     e94:	3138                	fld	fa4,96(a0)
     e96:	30373037          	lui	zero,0x30373
     e9a:	3239                	jal	7a8 <_data-0x1f858>
     e9c:	39323733          	0x39323733
     ea0:	3835                	jal	6dc <_data-0x1f924>
     ea2:	39383233          	0x39383233
     ea6:	3139                	jal	ab4 <_data-0x1f54c>
     ea8:	3136                	fld	ft2,360(sp)
     eaa:	342d6533          	0x342d6533
     eae:	4635                	li	a2,13
     eb0:	5f00                	lw	s0,56(a4)
     eb2:	465f 544c 3233      	0x3233544c465f
     eb8:	4d5f 5841 315f      	0x315f58414d5f
     ebe:	5f30                	lw	a2,120(a4)
     ec0:	5845                	li	a6,-15
     ec2:	5f50                	lw	a2,60(a4)
     ec4:	205f 3833 5f00      	0x5f003833205f
     eca:	555f 4e49 5f54      	0x5f544e49555f
     ed0:	4146                	lw	sp,80(sp)
     ed2:	5f385453          	0x5f385453
     ed6:	414d                	li	sp,19
     ed8:	5f58                	lw	a4,60(a4)
     eda:	205f 7830 6666      	0x66667830205f
     ee0:	6666                	flw	fa2,88(sp)
     ee2:	6666                	flw	fa2,88(sp)
     ee4:	6666                	flw	fa2,88(sp)
     ee6:	0055                	c.addi	zero,21
     ee8:	4e5f 544f 5248      	0x5248544f4e5f
     eee:	0020574f          	fnmadd.s	fa4,ft0,ft2,ft0,unknown
     ef2:	5f5f 4544 3343      	0x334345445f5f
     ef8:	5f32                	lw	t5,44(sp)
     efa:	5045                	0x5045
     efc:	4f4c4953          	0x4f4c4953
     f00:	5f4e                	lw	t5,240(sp)
     f02:	205f 4531 362d      	0x362d4531205f
     f08:	4644                	lw	s1,12(a2)
     f0a:	5f00                	lw	s0,56(a4)
     f0c:	685f 7361 655f      	0x655f7361685f
     f12:	7478                	flw	fa4,108(s0)
     f14:	6e65                	lui	t3,0x19
     f16:	6e6f6973          	csrrsi	s2,0x6e6,30
     f1a:	5f20                	lw	s0,120(a4)
     f1c:	685f 7361 665f      	0x665f7361685f
     f22:	6165                	addi	sp,sp,112
     f24:	7574                	flw	fa3,108(a0)
     f26:	6572                	flw	fa0,28(sp)
     f28:	5f00                	lw	s0,56(a4)
     f2a:	4552                	lw	a0,20(sp)
     f2c:	4e45                	li	t3,17
     f2e:	5f54                	lw	a3,60(a4)
     f30:	43454843          	fmadd.d	fa6,fa0,fs4,fs0,rmm
     f34:	504d5f4b          	fnmsub.s	ft10,fs10,ft4,fa0,unknown
     f38:	7028                	flw	fa0,96(s0)
     f3a:	7274                	flw	fa3,100(a2)
     f3c:	2029                	jal	f46 <_data-0x1f0ba>
     f3e:	5f00                	lw	s0,56(a4)
     f40:	495f 544e 4c5f      	0x4c5f544e495f
     f46:	4145                	li	sp,17
     f48:	34365453          	0x34365453
     f4c:	545f 5059 5f45      	0x5f455059545f
     f52:	205f 6f6c 676e      	0x676e6f6c205f
     f58:	6c20                	flw	fs0,88(s0)
     f5a:	20676e6f          	jal	t3,77160 <__global_pointer$+0x56130>
     f5e:	6e69                	lui	t3,0x1a
     f60:	0074                	addi	a3,sp,12
     f62:	4e49                	li	t3,18
     f64:	5f54                	lw	a3,60(a4)
     f66:	454c                	lw	a1,12(a0)
     f68:	5341                	li	t1,-16
     f6a:	3854                	fld	fa3,176(s0)
     f6c:	4d5f 5841 2820      	0x282058414d5f
     f72:	5f5f 4e49 5f54      	0x5f544e495f5f
     f78:	454c                	lw	a1,12(a0)
     f7a:	5341                	li	t1,-16
     f7c:	3854                	fld	fa3,176(s0)
     f7e:	4d5f 5841 5f5f      	0x5f5f58414d5f
     f84:	0029                	c.addi	zero,10
     f86:	5f5f 4c46 3654      	0x36544c465f5f
     f8c:	5834                	lw	a3,112(s0)
     f8e:	4d5f 5841 315f      	0x315f58414d5f
     f94:	5f30                	lw	a2,120(a4)
     f96:	5845                	li	a6,-15
     f98:	5f50                	lw	a2,60(a4)
     f9a:	205f 3934 3233      	0x32333934205f
     fa0:	5f00                	lw	s0,56(a4)
     fa2:	535f 4843 5241      	0x52414843535f
     fa8:	575f 4449 4854      	0x48544449575f
     fae:	5f5f 3820 5f00      	0x5f0038205f5f
     fb4:	4e5f 5745 494c      	0x494c57454e5f
     fba:	5f42                	lw	t5,48(sp)
     fbc:	5f48                	lw	a0,60(a4)
     fbe:	205f 0031 5f5f      	0x5f5f0031205f
     fc4:	4e49                	li	t3,18
     fc6:	5f54                	lw	a3,60(a4)
     fc8:	4146                	lw	sp,80(sp)
     fca:	36315453          	0x36315453
     fce:	575f 4449 4854      	0x48544449575f
     fd4:	5f5f 3320 0032      	0x3233205f5f
     fda:	4446                	lw	s0,80(sp)
     fdc:	435f 524c 6e28      	0x6e28524c435f
     fe2:	702c                	flw	fa1,96(s0)
     fe4:	2029                	jal	fee <_data-0x1f012>
     fe6:	2828                	fld	fa0,80(s0)
     fe8:	2970                	fld	fa2,208(a0)
     fea:	3e2d                	jal	b24 <_data-0x1f4dc>
     fec:	6466                	flw	fs0,88(sp)
     fee:	69625f73          	csrrwi	t5,0x696,4
     ff2:	7374                	flw	fa3,100(a4)
     ff4:	296e285b          	0x296e285b
     ff8:	44464e2f          	0x44464e2f
     ffc:	4942                	lw	s2,16(sp)
     ffe:	5354                	lw	a3,36(a4)
    1000:	205d                	jal	10a6 <_data-0x1ef5a>
    1002:	3d26                	fld	fs10,104(sp)
    1004:	7e20                	flw	fs0,120(a2)
    1006:	3128                	fld	fa0,96(a0)
    1008:	204c                	fld	fa1,128(s0)
    100a:	3c3c                	fld	fa5,120(s0)
    100c:	2820                	fld	fs0,80(s0)
    100e:	6e28                	flw	fa0,88(a2)
    1010:	2029                	jal	101a <_data-0x1efe6>
    1012:	2025                	jal	103a <_data-0x1efc6>
    1014:	464e                	lw	a2,208(sp)
    1016:	4244                	lw	s1,4(a2)
    1018:	5449                	li	s0,-14
    101a:	29292953          	0x29292953
    101e:	5f00                	lw	s0,56(a4)
    1020:	4c5f 4145 5453      	0x545341454c5f
    1026:	22203233          	0x22203233
    102a:	226c                	fld	fa1,192(a2)
    102c:	5f00                	lw	s0,56(a4)
    102e:	505f4353          	0x505f4353
    1032:	4952                	lw	s2,20(sp)
    1034:	5449524f          	0x5449524f
    1038:	5a49                	li	s4,-14
    103a:	4445                	li	s0,17
    103c:	495f 204f 3832      	0x3832204f495f
    1042:	5f00                	lw	s0,56(a4)
    1044:	495f 544e 5450      	0x5450544e495f
    104a:	5f52                	lw	t5,52(sp)
    104c:	414d                	li	sp,19
    104e:	5f58                	lw	a4,60(a4)
    1050:	205f 7830 6637      	0x66377830205f
    1056:	6666                	flw	fa2,88(sp)
    1058:	6666                	flw	fa2,88(sp)
    105a:	6666                	flw	fa2,88(sp)
    105c:	5f00                	lw	s0,56(a4)
    105e:	6966                	flw	fs2,88(sp)
    1060:	656c                	flw	fa1,76(a0)
    1062:	5f00                	lw	s0,56(a4)
    1064:	555f 4e49 5f54      	0x5f544e49555f
    106a:	4146                	lw	sp,80(sp)
    106c:	36315453          	0x36315453
    1070:	4d5f 5841 5f5f      	0x5f5f58414d5f
    1076:	3020                	fld	fs0,96(s0)
    1078:	6678                	flw	fa4,76(a2)
    107a:	6666                	flw	fa2,88(sp)
    107c:	6666                	flw	fa2,88(sp)
    107e:	6666                	flw	fa2,88(sp)
    1080:	5566                	lw	a0,120(sp)
    1082:	5f00                	lw	s0,56(a4)
    1084:	425f4353          	0x425f4353
    1088:	5241                	li	tp,-16
    108a:	4952                	lw	s2,20(sp)
    108c:	5245                	li	tp,-15
    108e:	36352053          	0x36352053
    1092:	5f00                	lw	s0,56(a4)
    1094:	655f6e6f          	jal	t3,f7ee8 <__global_pointer$+0xd6eb8>
    1098:	6978                	flw	fa4,84(a0)
    109a:	5f74                	lw	a3,124(a4)
    109c:	7261                	lui	tp,0xffff8
    109e:	70007367          	0x70007367
    10a2:	7475                	lui	s0,0xffffd
    10a4:	72616863          	bltu	sp,t1,17d4 <_data-0x1e82c>
    10a8:	755f 6c6e 636f      	0x636f6c6e755f
    10ae:	2864656b          	0x2864656b
    10b2:	2978                	fld	fa4,208(a0)
    10b4:	7020                	flw	fs0,96(s0)
    10b6:	7475                	lui	s0,0xffffd
    10b8:	6e755f63          	ble	t2,a0,17b6 <_data-0x1e84a>
    10bc:	6f6c                	flw	fa1,92(a4)
    10be:	64656b63          	bltu	a0,t1,1714 <_data-0x1e8ec>
    10c2:	7828                	flw	fa0,112(s0)
    10c4:	202c                	fld	fa1,64(s0)
    10c6:	6f647473          	csrrci	s0,0x6f6,8
    10ca:	7475                	lui	s0,0xffffd
    10cc:	0029                	c.addi	zero,10
    10ce:	6e5f 7562 0066      	0x6675626e5f
    10d4:	535f 5359 555f      	0x555f5359535f
    10da:	494e                	lw	s2,208(sp)
    10dc:	5f445453          	0x5f445453
    10e0:	2048                	fld	fa0,128(s0)
    10e2:	5f00                	lw	s0,56(a4)
    10e4:	4d5f4353          	0x4d5f4353
    10e8:	4d45                	li	s10,17
    10ea:	5f59524f          	fnmadd.q	ft4,fs2,fs5,fa1,unknown
    10ee:	5250                	lw	a2,36(a2)
    10f0:	4345544f          	fnmadd.d	fs0,fa0,fs4,fs0,unknown
    10f4:	4954                	lw	a3,20(a0)
    10f6:	32204e4f          	fnmadd.d	ft8,ft0,ft2,ft6,rmm
    10fa:	0036                	0x36
    10fc:	5f5f 4e47 4355      	0x43554e475f5f
    1102:	494c                	lw	a1,20(a0)
    1104:	425f454b          	fnmsub.d	fa0,ft10,ft5,fs0,rmm
    1108:	4955                	li	s2,21
    110a:	544c                	lw	a1,44(s0)
    110c:	4e49                	li	t3,18
    110e:	435f 4e4f 5453      	0x54534e4f435f
    1114:	4e41                	li	t3,16
    1116:	5f54                	lw	a3,60(a4)
    1118:	2050                	fld	fa2,128(s0)
    111a:	0031                	c.addi	zero,12
    111c:	5f5f 6377 0068      	0x6863775f5f
    1122:	5f5f 4e47 4355      	0x43554e475f5f
    1128:	505f 4552 4552      	0x45524552505f
    112e:	2851                	jal	11c2 <_data-0x1ee3e>
    1130:	616d                	addi	sp,sp,240
    1132:	2c6a                	fld	fs8,152(sp)
    1134:	696d                	lui	s2,0x1b
    1136:	296e                	fld	fs2,216(sp)
    1138:	2820                	fld	fs0,80(s0)
    113a:	5f28                	lw	a0,120(a4)
    113c:	475f 554e 5f43      	0x5f43554e475f
    1142:	205f 3c3c 3120      	0x31203c3c205f
    1148:	2936                	fld	fs2,328(sp)
    114a:	2b20                	fld	fs0,80(a4)
    114c:	5f20                	lw	s0,120(a4)
    114e:	475f 554e 5f43      	0x5f43554e475f
    1154:	494d                	li	s2,19
    1156:	4f4e                	lw	t5,208(sp)
    1158:	5f52                	lw	t5,52(sp)
    115a:	205f 3d3e 2820      	0x28203d3e205f
    1160:	6d28                	flw	fa0,88(a0)
    1162:	6a61                	lui	s4,0x18
    1164:	2029                	jal	116e <_data-0x1ee92>
    1166:	3c3c                	fld	fa5,120(s0)
    1168:	3120                	fld	fs0,96(a0)
    116a:	2936                	fld	fs2,328(sp)
    116c:	2b20                	fld	fs0,80(a4)
    116e:	2820                	fld	fs0,80(s0)
    1170:	696d                	lui	s2,0x1b
    1172:	296e                	fld	fs2,216(sp)
    1174:	0029                	c.addi	zero,10
    1176:	545f 575f 4843      	0x4843575f545f
    117c:	5241                	li	tp,-16
    117e:	0020                	addi	s0,sp,8
    1180:	4e5f 4c5f 5349      	0x53494c5f4e5f
    1186:	5354                	lw	a3,36(a4)
    1188:	3320                	fld	fs0,96(a4)
    118a:	0030                	addi	a2,sp,8
    118c:	495f 544e 5450      	0x5450544e495f
    1192:	5f52                	lw	t5,52(sp)
    1194:	5f54                	lw	a3,60(a4)
    1196:	4544                	lw	s1,12(a0)
    1198:	52414c43          	fmadd.d	fs8,ft2,ft4,fa0,rmm
    119c:	4445                	li	s0,17
    119e:	0020                	addi	s0,sp,8
    11a0:	435f 4e4f 5453      	0x54534e4f435f
    11a6:	6320                	flw	fs0,64(a4)
    11a8:	74736e6f          	jal	t3,380ee <__global_pointer$+0x170be>
    11ac:	5f00                	lw	s0,56(a4)
    11ae:	465f 544c 3233      	0x3233544c465f
    11b4:	5f58                	lw	a4,60(a4)
    11b6:	4148                	lw	a0,4(a0)
    11b8:	4e495f53          	0x4e495f53
    11bc:	4946                	lw	s2,80(sp)
    11be:	494e                	lw	s2,208(sp)
    11c0:	5954                	lw	a3,52(a0)
    11c2:	5f5f 3120 4900      	0x490031205f5f
    11c8:	544e                	lw	s0,240(sp)
    11ca:	465f 5341 3354      	0x33545341465f
    11d0:	5f32                	lw	t5,44(sp)
    11d2:	494d                	li	s2,19
    11d4:	204e                	fld	ft0,208(sp)
    11d6:	2d28                	fld	fa0,88(a0)
    11d8:	5f5f 4e49 5f54      	0x5f544e495f5f
    11de:	4146                	lw	sp,80(sp)
    11e0:	32335453          	0x32335453
    11e4:	4d5f 5841 5f5f      	0x5f5f58414d5f
    11ea:	2d20                	fld	fs0,88(a0)
    11ec:	3120                	fld	fs0,96(a0)
    11ee:	0029                	c.addi	zero,10
    11f0:	535f 5359 535f      	0x535f5359535f
    11f6:	5a49                	li	s4,-14
    11f8:	5f45                	li	t5,-15
    11fa:	5f54                	lw	a3,60(a4)
    11fc:	2048                	fld	fa0,128(s0)
    11fe:	5f00                	lw	s0,56(a4)
    1200:	4350                	lw	a2,4(a4)
    1202:	505f 5049 5f45      	0x5f455049505f
    1208:	5542                	lw	a0,48(sp)
    120a:	2046                	fld	ft0,80(sp)
    120c:	0035                	c.addi	zero,13
    120e:	525f 4545 544e      	0x544e4545525f
    1214:	525f 4e41 3444      	0x34444e41525f
    121a:	5f38                	lw	a4,120(a4)
    121c:	44454553          	0x44454553
    1220:	7028                	flw	fa0,96(s0)
    1222:	7274                	flw	fa3,100(a2)
    1224:	2029                	jal	122e <_data-0x1edd2>
    1226:	2828                	fld	fa0,80(s0)
    1228:	7470                	flw	fa2,108(s0)
    122a:	2972                	fld	fs2,280(sp)
    122c:	3e2d                	jal	d66 <_data-0x1f29a>
    122e:	6e5f 7765 5f2e      	0x5f2e77656e5f
    1234:	6572                	flw	fa0,28(sp)
    1236:	6e65                	lui	t3,0x19
    1238:	2e74                	fld	fa3,216(a2)
    123a:	725f 3834 5f2e      	0x5f2e3834725f
    1240:	64656573          	csrrsi	a0,0x646,10
    1244:	0029                	c.addi	zero,10
    1246:	5f5f 4955 544e      	0x544e49555f5f
    124c:	4c5f 4145 5453      	0x545341454c5f
    1252:	5f38                	lw	a4,120(a4)
    1254:	5954                	lw	a3,52(a0)
    1256:	4550                	lw	a2,12(a0)
    1258:	5f5f 7520 736e      	0x736e75205f5f
    125e:	6769                	lui	a4,0x1a
    1260:	656e                	flw	fa0,216(sp)
    1262:	2064                	fld	fs1,192(s0)
    1264:	72616863          	bltu	sp,t1,1994 <_data-0x1e66c>
    1268:	5f00                	lw	s0,56(a4)
    126a:	545f4353          	0x545f4353
    126e:	4d49                	li	s10,18
    1270:	5245                	li	tp,-15
    1272:	4d5f 5841 3120      	0x312058414d5f
    1278:	0039                	c.addi	zero,14
    127a:	5f5f 6f6c 6b63      	0x6b636f6c5f5f
    1280:	78655f73          	csrrwi	t5,0x786,10
    1284:	73756c63          	bltu	a0,s7,19bc <_data-0x1e644>
    1288:	7669                	lui	a2,0xffffa
    128a:	2865                	jal	1342 <_data-0x1ecbe>
    128c:	2e2e                	fld	ft8,200(sp)
    128e:	292e                	fld	fs2,200(sp)
    1290:	5f20                	lw	s0,120(a4)
    1292:	6c5f 636f 5f6b      	0x5f6b636f6c5f
    1298:	6e61                	lui	t3,0x18
    129a:	6f6e                	flw	ft10,216(sp)
    129c:	6174                	flw	fa3,68(a0)
    129e:	6574                	flw	fa3,76(a0)
    12a0:	6528                	flw	fa0,72(a0)
    12a2:	6378                	flw	fa4,68(a4)
    12a4:	756c                	flw	fa1,108(a0)
    12a6:	65766973          	csrrsi	s2,0x657,12
    12aa:	6c5f 636f 5f6b      	0x5f6b636f6c5f
    12b0:	7566                	flw	fa0,120(sp)
    12b2:	636e                	flw	ft6,216(sp)
    12b4:	6974                	flw	fa3,84(a0)
    12b6:	5f286e6f          	jal	t3,878a8 <__global_pointer$+0x66878>
    12ba:	565f 5f41 5241      	0x52415f41565f
    12c0:	5f5f5347          	fmsub.q	ft6,ft10,fs5,fa1,unknown
    12c4:	2929                	jal	16de <_data-0x1e922>
    12c6:	7000                	flw	fs0,32(s0)
    12c8:	7475                	lui	s0,0xffffd
    12ca:	72616863          	bltu	sp,t1,19fa <_data-0x1e606>
    12ce:	7828                	flw	fa0,112(s0)
    12d0:	2029                	jal	12da <_data-0x1ed26>
    12d2:	7570                	flw	fa2,108(a0)
    12d4:	6374                	flw	fa3,68(a4)
    12d6:	7828                	flw	fa0,112(s0)
    12d8:	202c                	fld	fa1,64(s0)
    12da:	6f647473          	csrrci	s0,0x6f6,8
    12de:	7475                	lui	s0,0xffffd
    12e0:	0029                	c.addi	zero,10
    12e2:	6d5f 7262 656c      	0x656c72626d5f
    12e8:	5f6e                	lw	t5,248(sp)
    12ea:	74617473          	csrrci	s0,0x746,2
    12ee:	0065                	c.addi	zero,25
    12f0:	5f5f 4e49 5f54      	0x5f544e495f5f
    12f6:	4146                	lw	sp,80(sp)
    12f8:	34365453          	0x34365453
    12fc:	4d5f 5841 5f5f      	0x5f5f58414d5f
    1302:	3020                	fld	fs0,96(s0)
    1304:	3778                	fld	fa4,232(a4)
    1306:	6666                	flw	fa2,88(sp)
    1308:	6666                	flw	fa2,88(sp)
    130a:	6666                	flw	fa2,88(sp)
    130c:	6666                	flw	fa2,88(sp)
    130e:	6666                	flw	fa2,88(sp)
    1310:	6666                	flw	fa2,88(sp)
    1312:	6666                	flw	fa2,88(sp)
    1314:	4c66                	lw	s8,88(sp)
    1316:	004c                	addi	a1,sp,4
    1318:	5f5f 4c46 3354      	0x33544c465f5f
    131e:	5832                	lw	a6,44(sp)
    1320:	445f 4345 4d49      	0x4d494345445f
    1326:	4c41                	li	s8,16
    1328:	445f 4749 5f5f      	0x5f5f4749445f
    132e:	3120                	fld	fs0,96(a0)
    1330:	725f0037          	lui	zero,0x725f0
    1334:	7365                	lui	t1,0xffff9
    1336:	6c75                	lui	s8,0x1d
    1338:	5f74                	lw	a3,124(a4)
    133a:	5f5f006b          	0x5f5f006b
    133e:	4c46                	lw	s8,80(sp)
    1340:	3354                	fld	fa3,160(a4)
    1342:	5832                	lw	a6,44(sp)
    1344:	485f 5341 515f      	0x515f5341485f
    134a:	4955                	li	s2,21
    134c:	5445                	li	s0,-15
    134e:	4e5f 4e41 5f5f      	0x5f5f4e414e5f
    1354:	3120                	fld	fs0,96(a0)
    1356:	5f00                	lw	s0,56(a4)
    1358:	5f5f 6e69 5f74      	0x5f746e695f5f
    135e:	656c                	flw	fa1,76(a0)
    1360:	7361                	lui	t1,0xffff8
    1362:	3174                	fld	fa3,224(a0)
    1364:	5f36                	lw	t5,108(sp)
    1366:	5f74                	lw	a3,124(a4)
    1368:	6564                	flw	fs1,76(a0)
    136a:	6966                	flw	fs2,88(sp)
    136c:	656e                	flw	fa0,216(sp)
    136e:	2064                	fld	fs1,192(s0)
    1370:	0031                	c.addi	zero,12
    1372:	535f 5f43 4941      	0x49415f43535f
    1378:	494c5f4f          	fnmadd.s	ft10,fs8,fs4,fs1,unknown
    137c:	4f495453          	0x4f495453
    1380:	4d5f 5841 3320      	0x332058414d5f
    1386:	0034                	addi	a3,sp,8
    1388:	5f5f 4544 3143      	0x314345445f5f
    138e:	3832                	fld	fa6,296(sp)
    1390:	4d5f 4e49 455f      	0x455f4e494d5f
    1396:	5058                	lw	a4,36(s0)
    1398:	5f5f 2820 362d      	0x362d28205f5f
    139e:	3431                	jal	daa <_data-0x1f256>
    13a0:	2932                	fld	fs2,264(sp)
    13a2:	5f00                	lw	s0,56(a4)
    13a4:	495f 544e 465f      	0x465f544e495f
    13aa:	5341                	li	t1,-16
    13ac:	3854                	fld	fa3,176(s0)
    13ae:	545f 5059 5f45      	0x5f455059545f
    13b4:	205f 6e69 0074      	0x746e69205f
    13ba:	4e5f 494f 4c4e      	0x4c4e494f4e5f
    13c0:	4e49                	li	t3,18
    13c2:	2045                	jal	1462 <_data-0x1eb9e>
    13c4:	5f5f 7461 7274      	0x727474615f5f
    13ca:	6269                	lui	tp,0x1a
    13cc:	7475                	lui	s0,0xffffd
    13ce:	5f65                	li	t5,-7
    13d0:	205f 2828 5f5f      	0x5f5f2828205f
    13d6:	6f6e                	flw	ft10,216(sp)
    13d8:	6e69                	lui	t3,0x1a
    13da:	696c                	flw	fa1,84(a0)
    13dc:	656e                	flw	fa0,216(sp)
    13de:	5f5f 2929 5f00      	0x5f0029295f5f
    13e4:	7066                	flw	ft0,120(sp)
    13e6:	745f736f          	jal	t1,f932a <__global_pointer$+0xd82fa>
    13ea:	5f00                	lw	s0,56(a4)
    13ec:	465f 544c 3231      	0x3231544c465f
    13f2:	5f38                	lw	a4,120(a4)
    13f4:	494d                	li	s2,19
    13f6:	5f4e                	lw	t5,240(sp)
    13f8:	5845                	li	a6,-15
    13fa:	5f50                	lw	a2,60(a4)
    13fc:	205f 2d28 3631      	0x36312d28205f
    1402:	29313833          	0x29313833
    1406:	5f00                	lw	s0,56(a4)
    1408:	4552                	lw	a0,20(sp)
    140a:	4e45                	li	t3,17
    140c:	5f54                	lw	a3,60(a4)
    140e:	4152                	lw	sp,20(sp)
    1410:	444e                	lw	s0,208(sp)
    1412:	4e5f 5845 2854      	0x285458454e5f
    1418:	7470                	flw	fa2,108(s0)
    141a:	2972                	fld	fs2,280(sp)
    141c:	2820                	fld	fs0,80(s0)
    141e:	7028                	flw	fa0,96(s0)
    1420:	7274                	flw	fa3,100(a2)
    1422:	2d29                	jal	1a3c <_data-0x1e5c4>
    1424:	5f3e                	lw	t5,236(sp)
    1426:	656e                	flw	fa0,216(sp)
    1428:	725f2e77          	0x725f2e77
    142c:	6565                	lui	a0,0x19
    142e:	746e                	flw	fs0,248(sp)
    1430:	5f2e                	lw	t5,232(sp)
    1432:	6172                	flw	ft2,28(sp)
    1434:	646e                	flw	fs0,216(sp)
    1436:	6e5f 7865 2974      	0x297478656e5f
    143c:	5f00                	lw	s0,56(a4)
    143e:	555f 4e49 4d54      	0x4d544e49555f
    1444:	5841                	li	a6,-16
    1446:	435f 6328 2029      	0x20296328435f
    144c:	23232063          	0x23232063
    1450:	5520                	lw	s0,104(a0)
    1452:	4c4c                	lw	a1,28(s0)
    1454:	5f00                	lw	s0,56(a4)
    1456:	535f 5a49 4f45      	0x4f455a49535f
    145c:	5f46                	lw	t5,112(sp)
    145e:	4f50                	lw	a2,28(a4)
    1460:	4e49                	li	t3,18
    1462:	4554                	lw	a3,12(a0)
    1464:	5f52                	lw	t5,52(sp)
    1466:	205f 0034 5f5f      	0x5f5f0034205f
    146c:	4e49                	li	t3,18
    146e:	5f54                	lw	a3,60(a4)
    1470:	454c                	lw	a1,12(a0)
    1472:	5341                	li	t1,-16
    1474:	3854                	fld	fa3,176(s0)
    1476:	545f 5059 5f45      	0x5f455059545f
    147c:	205f 6973 6e67      	0x6e676973205f
    1482:	6465                	lui	s0,0x19
    1484:	6320                	flw	fs0,64(a4)
    1486:	6168                	flw	fa0,68(a0)
    1488:	0072                	0x72
    148a:	6c5f 636f 6c61      	0x6c61636f6c5f
    1490:	6974                	flw	fa3,84(a0)
    1492:	656d                	lui	a0,0x1b
    1494:	625f 6675 5f00      	0x5f006675625f
    149a:	415f4353          	0x415f4353
    149e:	5056                	0x5056
    14a0:	5948                	lw	a0,52(a0)
    14a2:	41505f53          	0x41505f53
    14a6:	20534547          	fmsub.s	fa0,ft6,ft5,ft4,rmm
    14aa:	3231                	jal	db6 <_data-0x1f24a>
    14ac:	5f00                	lw	s0,56(a4)
    14ae:	475f 4343 415f      	0x415f4343475f
    14b4:	4f54                	lw	a3,28(a4)
    14b6:	494d                	li	s2,19
    14b8:	4f425f43          	fmadd.q	ft10,ft4,fs4,fs1,unknown
    14bc:	4c5f4c4f          	0x4c5f4c4f
    14c0:	5f4b434f          	fnmadd.q	ft6,fs6,fs4,fa1,rmm
    14c4:	5246                	lw	tp,112(sp)
    14c6:	4545                	li	a0,17
    14c8:	3120                	fld	fs0,96(a0)
    14ca:	5f00                	lw	s0,56(a4)
    14cc:	4c5f 434f 5f4b      	0x5f4b434f4c5f
    14d2:	4e49                	li	t3,18
    14d4:	5449                	li	s0,-14
    14d6:	525f 4345 5255      	0x52554345525f
    14dc:	45564953          	0x45564953
    14e0:	6328                	flw	fa0,64(a4)
    14e2:	616c                	flw	fa1,68(a0)
    14e4:	6c2c7373          	csrrci	t1,0x6c2,24
    14e8:	296b636f          	jal	t1,b777e <__global_pointer$+0x9674e>
    14ec:	7320                	flw	fs0,96(a4)
    14ee:	6174                	flw	fa3,68(a0)
    14f0:	6974                	flw	fa3,84(a0)
    14f2:	6e692063          	0x6e692063
    14f6:	2074                	fld	fa3,192(s0)
    14f8:	6f6c                	flw	fa1,92(a4)
    14fa:	3d206b63          	bltu	zero,s2,18d0 <_data-0x1e730>
    14fe:	3020                	fld	fs0,96(s0)
    1500:	5f5f003b          	0x5f5f003b
    1504:	695f 746e 3436      	0x3436746e695f
    150a:	745f 645f 6665      	0x6665645f745f
    1510:	6e69                	lui	t3,0x1a
    1512:	6465                	lui	s0,0x19
    1514:	3120                	fld	fs0,96(a0)
    1516:	5f00                	lw	s0,56(a4)
    1518:	465f 544c 3436      	0x3436544c465f
    151e:	5f58                	lw	a4,60(a4)
    1520:	4148                	lw	a0,4(a0)
    1522:	45445f53          	0x45445f53
    1526:	4f4e                	lw	t5,208(sp)
    1528:	4d52                	lw	s10,20(sp)
    152a:	5f5f 3120 5f00      	0x5f0031205f5f
    1530:	535f 424c 2046      	0x2046424c535f
    1536:	7830                	flw	fa2,112(s0)
    1538:	3030                	fld	fa2,96(s0)
    153a:	3130                	fld	fa2,96(a0)
    153c:	5500                	lw	s0,40(a0)
    153e:	4e49                	li	t3,18
    1540:	5054                	lw	a3,36(s0)
    1542:	5254                	lw	a3,36(a2)
    1544:	4d5f 5841 2820      	0x282058414d5f
    154a:	5f5f 4955 544e      	0x544e49555f5f
    1550:	5450                	lw	a2,44(s0)
    1552:	5f52                	lw	t5,52(sp)
    1554:	414d                	li	sp,19
    1556:	5f58                	lw	a4,60(a4)
    1558:	295f 5f00 465f      	0x465f5f00295f
    155e:	544c                	lw	a1,44(s0)
    1560:	4d5f3233          	0x4d5f3233
    1564:	5841                	li	a6,-16
    1566:	455f 5058 5f5f      	0x5f5f5058455f
    156c:	3120                	fld	fs0,96(a0)
    156e:	3832                	fld	fa6,296(sp)
    1570:	4200                	lw	s0,0(a2)
    1572:	4749                	li	a4,18
    1574:	455f 444e 4149      	0x4149444e455f
    157a:	204e                	fld	ft0,208(sp)
    157c:	425f 4749 455f      	0x455f4749425f
    1582:	444e                	lw	s0,208(sp)
    1584:	4149                	li	sp,18
    1586:	004e                	0x4e
    1588:	535f 5359 5f5f      	0x5f5f5359535f
    158e:	4f4c                	lw	a1,28(a4)
    1590:	454c4143          	0x454c4143
    1594:	485f 0020 5f5f      	0x5f5f0020485f
    159a:	4955                	li	s2,21
    159c:	544e                	lw	s0,240(sp)
    159e:	414d                	li	sp,19
    15a0:	5f58                	lw	a4,60(a4)
    15a2:	5954                	lw	a3,52(a0)
    15a4:	4550                	lw	a2,12(a0)
    15a6:	5f5f 6c20 6e6f      	0x6e6f6c205f5f
    15ac:	6f6c2067          	0x6f6c2067
    15b0:	676e                	flw	fa4,216(sp)
    15b2:	7520                	flw	fs0,104(a0)
    15b4:	736e                	flw	ft6,248(sp)
    15b6:	6769                	lui	a4,0x1a
    15b8:	656e                	flw	fa0,216(sp)
    15ba:	2064                	fld	fs1,192(s0)
    15bc:	6e69                	lui	t3,0x1a
    15be:	0074                	addi	a3,sp,12
    15c0:	665f 746e 7079      	0x7079746e665f
    15c6:	7365                	lui	t1,0xffff9
    15c8:	5f00                	lw	s0,56(a4)
    15ca:	4c5f 4244 5f4c      	0x5f4c42444c5f
    15d0:	4544                	lw	s1,12(a0)
    15d2:	4f4e                	lw	t5,208(sp)
    15d4:	4d52                	lw	s10,20(sp)
    15d6:	4d5f 4e49 5f5f      	0x5f5f4e494d5f
    15dc:	3620                	fld	fs0,104(a2)
    15de:	342e                	fld	fs0,232(sp)
    15e0:	37313537          	lui	a0,0x37313
    15e4:	3135                	jal	1210 <_data-0x1edf0>
    15e6:	3931                	jal	1202 <_data-0x1edfe>
    15e8:	3334                	fld	fa3,96(a4)
    15ea:	3038                	fld	fa4,96(s0)
    15ec:	3532                	fld	fa0,296(sp)
    15ee:	3131                	jal	11fa <_data-0x1ee06>
    15f0:	3930                	fld	fa2,112(a0)
    15f2:	3432                	fld	fs0,296(sp)
    15f4:	3334                	fld	fa3,96(a4)
    15f6:	3938                	fld	fa4,112(a0)
    15f8:	3835                	jal	e34 <_data-0x1f1cc>
    15fa:	3232                	fld	ft4,296(sp)
    15fc:	36343637          	lui	a2,0x36343
    1600:	3535                	jal	142c <_data-0x1ebd4>
    1602:	2d65                	jal	1cba <_data-0x1e346>
    1604:	3934                	fld	fa3,112(a0)
    1606:	3636                	fld	fa2,360(sp)
    1608:	004c                	addi	a1,sp,4
    160a:	5f5f 6f63 736e      	0x736e6f635f5f
    1610:	2074                	fld	fa3,192(s0)
    1612:	736e6f63          	bltu	t3,s6,1d50 <_data-0x1e2b0>
    1616:	0074                	addi	a3,sp,12
    1618:	535f 5a49 5f45      	0x5f455a49535f
    161e:	5f54                	lw	a3,60(a4)
    1620:	4544                	lw	s1,12(a0)
    1622:	52414c43          	fmadd.d	fs8,ft2,ft4,fa0,rmm
    1626:	4445                	li	s0,17
    1628:	0020                	addi	s0,sp,8
    162a:	5f5f 4843 5241      	0x524148435f5f
    1630:	545f3233          	0x545f3233
    1634:	5059                	0x5059
    1636:	5f45                	li	t5,-15
    1638:	205f 6f6c 676e      	0x676e6f6c205f
    163e:	7520                	flw	fs0,104(a0)
    1640:	736e                	flw	ft6,248(sp)
    1642:	6769                	lui	a4,0x1a
    1644:	656e                	flw	fa0,216(sp)
    1646:	2064                	fld	fs1,192(s0)
    1648:	6e69                	lui	t3,0x1a
    164a:	0074                	addi	a3,sp,12
    164c:	4e49                	li	t3,18
    164e:	5f54                	lw	a3,60(a4)
    1650:	454c                	lw	a1,12(a0)
    1652:	5341                	li	t1,-16
    1654:	3654                	fld	fa3,168(a2)
    1656:	5f34                	lw	a3,120(a4)
    1658:	494d                	li	s2,19
    165a:	204e                	fld	ft0,208(sp)
    165c:	2d28                	fld	fa0,88(a0)
    165e:	5f5f 4e49 5f54      	0x5f544e495f5f
    1664:	454c                	lw	a1,12(a0)
    1666:	5341                	li	t1,-16
    1668:	3654                	fld	fa3,168(a2)
    166a:	5f34                	lw	a3,120(a4)
    166c:	414d                	li	sp,19
    166e:	5f58                	lw	a4,60(a4)
    1670:	205f 202d 2931      	0x2931202d205f
    1676:	5f00                	lw	s0,56(a4)
    1678:	4f50                	lw	a2,28(a4)
    167a:	5f584953          	0x5f584953
    167e:	4f535f43          	fmadd.q	ft10,ft6,fs5,fs1,unknown
    1682:	5255                	li	tp,-11
    1684:	32204543          	fmadd.d	fa0,ft0,ft2,ft6,rmm
    1688:	3030                	fld	fa2,96(s0)
    168a:	3038                	fld	fa4,96(s0)
    168c:	4c39                	li	s8,14
    168e:	5f00                	lw	s0,56(a4)
    1690:	435f 5f43 5553      	0x55535f43435f
    1696:	5050                	lw	a2,36(s0)
    1698:	5354524f          	fnmadd.d	ft4,fs0,fs5,fa0,unknown
    169c:	445f 4e59 4d41      	0x4d414e59445f
    16a2:	4349                	li	t1,18
    16a4:	415f 5252 5941      	0x59415252415f
    16aa:	495f 494e 2054      	0x2054494e495f
    16b0:	0031                	c.addi	zero,12
    16b2:	5f5f 4955 544e      	0x544e49555f5f
    16b8:	465f 5341 3354      	0x33545341465f
    16be:	5f32                	lw	t5,44(sp)
    16c0:	414d                	li	sp,19
    16c2:	5f58                	lw	a4,60(a4)
    16c4:	205f 7830 6666      	0x66667830205f
    16ca:	6666                	flw	fa2,88(sp)
    16cc:	6666                	flw	fa2,88(sp)
    16ce:	6666                	flw	fa2,88(sp)
    16d0:	0055                	c.addi	zero,21
    16d2:	5f5f 6d74 6d5f      	0x6d5f6d745f5f
    16d8:	5f006e6f          	jal	t3,7cc8 <_data-0x18338>
    16dc:	465f 544c 4d5f      	0x4d5f544c465f
    16e2:	5841                	li	a6,-16
    16e4:	455f 5058 5f5f      	0x5f5f5058455f
    16ea:	3120                	fld	fs0,96(a0)
    16ec:	3832                	fld	fa6,296(sp)
    16ee:	5f00                	lw	s0,56(a4)
    16f0:	4552                	lw	a0,20(sp)
    16f2:	4e45                	li	t3,17
    16f4:	5f54                	lw	a3,60(a4)
    16f6:	4d45                	li	s10,17
    16f8:	5245                	li	tp,-15
    16fa:	434e4547          	fmsub.d	fa0,ft8,fs4,fs0,rmm
    16fe:	5f59                	li	t5,-10
    1700:	455a4953          	0x455a4953
    1704:	3220                	fld	fs0,96(a2)
    1706:	0035                	c.addi	zero,13
    1708:	505f 5241 4d41      	0x4d415241505f
    170e:	61702853          	0x61702853
    1712:	6172                	flw	ft2,28(sp)
    1714:	6c6d                	lui	s8,0x1b
    1716:	7369                	lui	t1,0xffffa
    1718:	2974                	fld	fa3,208(a0)
    171a:	7020                	flw	fs0,96(s0)
    171c:	7261                	lui	tp,0xffff8
    171e:	6d61                	lui	s10,0x18
    1720:	696c                	flw	fa1,84(a0)
    1722:	53007473          	csrrci	s0,0x530,0
    1726:	4545                	li	a0,17
    1728:	55435f4b          	0x55435f4b
    172c:	2052                	fld	ft0,272(sp)
    172e:	0031                	c.addi	zero,12
    1730:	535f 5f43 5f32      	0x5f325f43535f
    1736:	4250                	lw	a2,4(a2)
    1738:	48435f53          	0x48435f53
    173c:	4345                	li	t1,17
    173e:	494f504b          	fnmsub.s	ft0,ft10,fs4,fs1,unknown
    1742:	544e                	lw	s0,240(sp)
    1744:	3120                	fld	fs0,96(a0)
    1746:	3531                	jal	1552 <_data-0x1eaae>
    1748:	5f00                	lw	s0,56(a4)
    174a:	4552                	lw	a0,20(sp)
    174c:	4441                	li	s0,16
    174e:	575f 4952 4554      	0x45544952575f
    1754:	425f 4655 4953      	0x49534655425f
    175a:	455a                	lw	a0,148(sp)
    175c:	545f 5059 2045      	0x20455059545f
    1762:	6e69                	lui	t3,0x1a
    1764:	0074                	addi	a3,sp,12
    1766:	5f5f 4953 455a      	0x455a49535f5f
    176c:	445f464f          	0x445f464f
    1770:	4c42554f          	0x4c42554f
    1774:	5f45                	li	t5,-15
    1776:	205f 0038 5f5f      	0x5f5f0038205f
    177c:	4e49                	li	t3,18
    177e:	5f54                	lw	a3,60(a4)
    1780:	454c                	lw	a1,12(a0)
    1782:	5341                	li	t1,-16
    1784:	3354                	fld	fa3,160(a4)
    1786:	5f32                	lw	t5,44(sp)
    1788:	54444957          	0x54444957
    178c:	5f48                	lw	a0,60(a4)
    178e:	205f 3233 5f00      	0x5f003233205f
    1794:	4e5f 5745 494c      	0x494c57454e5f
    179a:	5f42                	lw	t5,48(sp)
    179c:	494d                	li	s2,19
    179e:	4f4e                	lw	t5,208(sp)
    17a0:	5f52                	lw	t5,52(sp)
    17a2:	205f 0035 5f5f      	0x5f5f0035205f
    17a8:	444c                	lw	a1,12(s0)
    17aa:	4c42                	lw	s8,16(sp)
    17ac:	4d5f 5841 315f      	0x315f58414d5f
    17b2:	5f30                	lw	a2,120(a4)
    17b4:	5845                	li	a6,-15
    17b6:	5f50                	lw	a2,60(a4)
    17b8:	205f 3934 3233      	0x32333934205f
    17be:	6400                	flw	fs0,8(s0)
    17c0:	6265                	lui	tp,0x19
    17c2:	6775                	lui	a4,0x1d
    17c4:	705f 6972 746e      	0x746e6972705f
    17ca:	6e6c                	flw	fa1,92(a2)
    17cc:	5f00                	lw	s0,56(a4)
    17ce:	545f4353          	0x545f4353
    17d2:	5248                	lw	a0,36(a2)
    17d4:	4145                	li	sp,17
    17d6:	5f44                	lw	s1,60(a4)
    17d8:	4544                	lw	s1,12(a0)
    17da:	55525453          	0x55525453
    17de:	524f5443          	fmadd.d	fs0,ft10,ft4,fa0,unknown
    17e2:	495f 4554 4152      	0x41524554495f
    17e8:	4954                	lw	a3,20(a0)
    17ea:	20534e4f          	fnmadd.s	ft8,ft6,ft5,ft4,rmm
    17ee:	3335                	jal	151a <_data-0x1eae6>
    17f0:	5f00                	lw	s0,56(a4)
    17f2:	545f4353          	0x545f4353
    17f6:	5248                	lw	a0,36(a2)
    17f8:	4145                	li	sp,17
    17fa:	5344                	lw	s1,36(a4)
    17fc:	3420                	fld	fs0,104(s0)
    17fe:	0032                	0x32
    1800:	5f5f 4146 5453      	0x545341465f5f
    1806:	3631                	jal	1312 <_data-0x1ecee>
    1808:	0020                	addi	s0,sp,8
    180a:	535f 5f43 4954      	0x49545f43535f
    1810:	454d                	li	a0,19
    1812:	5352                	lw	t1,52(sp)
    1814:	3320                	fld	fs0,96(a4)
    1816:	49550033          	0x49550033
    181a:	544e                	lw	s0,240(sp)
    181c:	3436                	fld	fs0,360(sp)
    181e:	4d5f 5841 2820      	0x282058414d5f
    1824:	5f5f 4955 544e      	0x544e49555f5f
    182a:	3436                	fld	fs0,360(sp)
    182c:	4d5f 5841 5f5f      	0x5f5f58414d5f
    1832:	0029                	c.addi	zero,10
    1834:	5f5f 414c 4752      	0x4752414c5f5f
    183a:	4645                	li	a2,17
    183c:	4c49                	li	s8,18
    183e:	5f45                	li	t5,-15
    1840:	4956                	lw	s2,84(sp)
    1842:	4c424953          	0x4c424953
    1846:	2045                	jal	18e6 <_data-0x1e71a>
    1848:	0030                	addi	a2,sp,8
    184a:	5f5f 4544 3643      	0x364345445f5f
    1850:	5f34                	lw	a3,120(a4)
    1852:	414d                	li	sp,19
    1854:	5f58                	lw	a4,60(a4)
    1856:	205f 2e39 3939      	0x39392e39205f
    185c:	3939                	jal	147a <_data-0x1eb86>
    185e:	3939                	jal	147c <_data-0x1eb84>
    1860:	3939                	jal	147e <_data-0x1eb82>
    1862:	3939                	jal	1480 <_data-0x1eb80>
    1864:	3939                	jal	1482 <_data-0x1eb7e>
    1866:	3939                	jal	1484 <_data-0x1eb7c>
    1868:	4539                	li	a0,14
    186a:	44343833          	0x44343833
    186e:	0044                	addi	s1,sp,4
    1870:	5f5f 454e 4c57      	0x4c57454e5f5f
    1876:	4249                	li	tp,18
    1878:	5f5f 3220 5f00      	0x5f0032205f5f
    187e:	725f 7369 7663      	0x76637369725f
    1884:	645f 7669 3120      	0x31207669645f
    188a:	4500                	lw	s0,8(a0)
    188c:	4958                	lw	a4,20(a0)
    188e:	5f54                	lw	a3,60(a4)
    1890:	43435553          	0x43435553
    1894:	5345                	li	t1,-15
    1896:	00302053          	fadd.s	ft0,ft0,ft3,rdn
    189a:	5f5f 4c46 5f54      	0x5f544c465f5f
    18a0:	494d                	li	s2,19
    18a2:	5f4e                	lw	t5,240(sp)
    18a4:	3031                	jal	10b0 <_data-0x1ef50>
    18a6:	455f 5058 5f5f      	0x5f5f5058455f
    18ac:	2820                	fld	fs0,80(s0)
    18ae:	332d                	jal	15d8 <_data-0x1ea28>
    18b0:	5f002937          	lui	s2,0x5f002
    18b4:	415f 4d53 414e      	0x414e4d53415f
    18ba:	454d                	li	a0,19
    18bc:	6328                	flw	fa0,64(a4)
    18be:	616e                	flw	ft2,216(sp)
    18c0:	656d                	lui	a0,0x1b
    18c2:	2029                	jal	18cc <_data-0x1e734>
    18c4:	5f5f 5358 5254      	0x525453585f5f
    18ca:	4e49                	li	t3,18
    18cc:	5f282047          	fmsub.q	ft0,fa6,fs2,fa1,rdn
    18d0:	555f 4553 5f52      	0x5f524553555f
    18d6:	414c                	lw	a1,4(a0)
    18d8:	4542                	lw	a0,16(sp)
    18da:	5f4c                	lw	a1,60(a4)
    18dc:	5250                	lw	a2,36(a2)
    18de:	4645                	li	a2,17
    18e0:	5849                	li	a6,-14
    18e2:	5f5f 2029 6e63      	0x6e6320295f5f
    18e8:	6d61                	lui	s10,0x18
    18ea:	0065                	c.addi	zero,25
    18ec:	5f5f 4c46 5f54      	0x5f544c465f5f
    18f2:	4544                	lw	s1,12(a0)
    18f4:	414d4943          	fmadd.s	fs2,fs10,fs4,fs0,rmm
    18f8:	5f4c                	lw	a1,60(a4)
    18fa:	4944                	lw	s1,20(a0)
    18fc:	205f5f47          	fmsub.s	ft10,ft10,ft5,ft4,unknown
    1900:	0039                	c.addi	zero,14
    1902:	755f 756e 6573      	0x6573756e755f
    1908:	5f64                	lw	s1,124(a4)
    190a:	6172                	flw	ft2,28(sp)
    190c:	646e                	flw	fs0,216(sp)
    190e:	5f00                	lw	s0,56(a4)
    1910:	495f 544e 4c5f      	0x4c5f544e495f
    1916:	4145                	li	sp,17
    1918:	32335453          	0x32335453
    191c:	4d5f 5841 5f5f      	0x5f5f58414d5f
    1922:	3020                	fld	fs0,96(s0)
    1924:	3778                	fld	fa4,232(a4)
    1926:	6666                	flw	fa2,88(sp)
    1928:	6666                	flw	fa2,88(sp)
    192a:	6666                	flw	fa2,88(sp)
    192c:	4c66                	lw	s8,88(sp)
    192e:	6700                	flw	fs0,8(a4)
    1930:	7465                	lui	s0,0xffff9
    1932:	72616863          	bltu	sp,t1,2062 <_data-0x1df9e>
    1936:	2928                	fld	fa0,80(a0)
    1938:	6720                	flw	fs0,72(a4)
    193a:	7465                	lui	s0,0xffff9
    193c:	74732863          	0x74732863
    1940:	6964                	flw	fs1,84(a0)
    1942:	296e                	fld	fs2,216(sp)
    1944:	5f00                	lw	s0,56(a4)
    1946:	615f 7373 7265      	0x72657373615f
    194c:	7374                	flw	fa3,100(a4)
    194e:	655f 6378 756c      	0x756c6378655f
    1954:	65766973          	csrrsi	s2,0x657,12
    1958:	2e28                	fld	fa0,88(a2)
    195a:	2e2e                	fld	ft8,200(sp)
    195c:	2029                	jal	1966 <_data-0x1e69a>
    195e:	5f5f 6f6c 6b63      	0x6b636f6c5f5f
    1964:	615f 6e6e 746f      	0x746f6e6e615f
    196a:	7461                	lui	s0,0xffff8
    196c:	2865                	jal	1a24 <_data-0x1e5dc>
    196e:	7361                	lui	t1,0xffff8
    1970:	74726573          	csrrsi	a0,0x747,4
    1974:	655f 6378 756c      	0x756c6378655f
    197a:	65766973          	csrrsi	s2,0x657,12
    197e:	6c5f 636f 286b      	0x286b636f6c5f
    1984:	5f5f 4156 415f      	0x415f41565f5f
    198a:	4752                	lw	a4,20(sp)
    198c:	295f5f53          	0x295f5f53
    1990:	0029                	c.addi	zero,10
    1992:	4e49                	li	t3,18
    1994:	4d54                	lw	a3,28(a0)
    1996:	5841                	li	a6,-16
    1998:	4d5f 4e49 2820      	0x28204e494d5f
    199e:	492d                	li	s2,11
    19a0:	544e                	lw	s0,240(sp)
    19a2:	414d                	li	sp,19
    19a4:	5f58                	lw	a4,60(a4)
    19a6:	414d                	li	sp,19
    19a8:	2058                	fld	fa4,128(s0)
    19aa:	202d                	jal	19d4 <_data-0x1e62c>
    19ac:	2931                	jal	1dc8 <_data-0x1e238>
    19ae:	5000                	lw	s0,32(s0)
    19b0:	4854                	lw	a3,20(s0)
    19b2:	4552                	lw	a0,20(sp)
    19b4:	4441                	li	s0,16
    19b6:	455f 5058 494c      	0x494c5058455f
    19bc:	5f544943          	fmadd.q	fs2,fs0,fs5,fa1,rmm
    19c0:	45484353          	0x45484353
    19c4:	2044                	fld	fs1,128(s0)
    19c6:	0032                	0x32
    19c8:	5f5f 4c46 3354      	0x33544c465f5f
    19ce:	5f32                	lw	t5,44(sp)
    19d0:	4544                	lw	s1,12(a0)
    19d2:	4f4e                	lw	t5,208(sp)
    19d4:	4d52                	lw	s10,20(sp)
    19d6:	4d5f 4e49 5f5f      	0x5f5f4e494d5f
    19dc:	3120                	fld	fs0,96(a0)
    19de:	342e                	fld	fs0,232(sp)
    19e0:	3130                	fld	fa2,96(a0)
    19e2:	3932                	fld	fs2,296(sp)
    19e4:	3438                	fld	fa4,104(s0)
    19e6:	3436                	fld	fs0,360(sp)
    19e8:	38343233          	0x38343233
    19ec:	3731                	jal	18f8 <_data-0x1e708>
    19ee:	3730                	fld	fa2,104(a4)
    19f0:	3930                	fld	fa2,112(a0)
    19f2:	3332                	fld	ft6,296(sp)
    19f4:	35393237          	lui	tp,0x35393
    19f8:	3338                	fld	fa4,96(a4)
    19fa:	3832                	fld	fa6,296(sp)
    19fc:	3939                	jal	161a <_data-0x1e9e6>
    19fe:	3631                	jal	150a <_data-0x1eaf6>
    1a00:	3331                	jal	170c <_data-0x1e8f4>
    1a02:	2d65                	jal	20ba <_data-0x1df46>
    1a04:	3534                	fld	fa3,104(a0)
    1a06:	3346                	fld	ft6,112(sp)
    1a08:	0032                	0x32
    1a0a:	5f5f 7470 5f72      	0x5f7274705f5f
    1a10:	2074                	fld	fa3,192(s0)
    1a12:	6f76                	flw	ft10,92(sp)
    1a14:	6469                	lui	s0,0x1a
    1a16:	2a20                	fld	fs0,80(a2)
    1a18:	5f00                	lw	s0,56(a4)
    1a1a:	4148                	lw	a0,4(a0)
    1a1c:	4556                	lw	a0,84(sp)
    1a1e:	4c5f 4e4f 5f47      	0x5f474e4f4c5f
    1a24:	4f44                	lw	s1,28(a4)
    1a26:	4255                	li	tp,21
    1a28:	454c                	lw	a1,12(a0)
    1a2a:	3120                	fld	fs0,96(a0)
    1a2c:	5f00                	lw	s0,56(a4)
    1a2e:	4552                	lw	a0,20(sp)
    1a30:	4e45                	li	t3,17
    1a32:	5f54                	lw	a3,60(a4)
    1a34:	4152                	lw	sp,20(sp)
    1a36:	444e                	lw	s0,208(sp)
    1a38:	3834                	fld	fa3,112(s0)
    1a3a:	415f 4444 7028      	0x70284444415f
    1a40:	7274                	flw	fa3,100(a2)
    1a42:	2029                	jal	1a4c <_data-0x1e5b4>
    1a44:	2828                	fld	fa0,80(s0)
    1a46:	7470                	flw	fa2,108(s0)
    1a48:	2972                	fld	fs2,280(sp)
    1a4a:	3e2d                	jal	1584 <_data-0x1ea7c>
    1a4c:	6e5f 7765 5f2e      	0x5f2e77656e5f
    1a52:	6572                	flw	fa0,28(sp)
    1a54:	6e65                	lui	t3,0x19
    1a56:	2e74                	fld	fa3,216(a2)
    1a58:	725f 3834 5f2e      	0x5f2e3834725f
    1a5e:	6461                	lui	s0,0x18
    1a60:	2964                	fld	fs1,208(a0)
    1a62:	5f00                	lw	s0,56(a4)
    1a64:	615f 776c 7961      	0x7961776c615f
    1a6a:	6e695f73          	csrrwi	t5,0x6e6,18
    1a6e:	696c                	flw	fa1,84(a0)
    1a70:	656e                	flw	fa0,216(sp)
    1a72:	5f20                	lw	s0,120(a4)
    1a74:	615f 7474 6972      	0x69727474615f
    1a7a:	7562                	flw	fa0,56(sp)
    1a7c:	6574                	flw	fa3,76(a0)
    1a7e:	5f5f 2828 5f5f      	0x5f5f28285f5f
    1a84:	6c61                	lui	s8,0x18
    1a86:	73796177          	0x73796177
    1a8a:	695f 6c6e 6e69      	0x6e696c6e695f
    1a90:	5f65                	li	t5,-7
    1a92:	295f 0029 5f5f      	0x5f5f0029295f
    1a98:	6f6e                	flw	ft10,216(sp)
    1a9a:	6c5f 636f 5f6b      	0x5f6b636f6c5f
    1aa0:	6e61                	lui	t3,0x18
    1aa2:	6c61                	lui	s8,0x18
    1aa4:	7379                	lui	t1,0xffffe
    1aa6:	7369                	lui	t1,0xffffa
    1aa8:	5f20                	lw	s0,120(a4)
    1aaa:	6c5f 636f 5f6b      	0x5f6b636f6c5f
    1ab0:	6e61                	lui	t3,0x18
    1ab2:	6f6e                	flw	ft10,216(sp)
    1ab4:	6174                	flw	fa3,68(a0)
    1ab6:	6574                	flw	fa3,76(a0)
    1ab8:	6e28                	flw	fa0,88(a2)
    1aba:	68745f6f          	jal	t5,47940 <__global_pointer$+0x26910>
    1abe:	6572                	flw	fa0,28(sp)
    1ac0:	6461                	lui	s0,0x18
    1ac2:	735f 6661 7465      	0x74656661735f
    1ac8:	5f79                	li	t5,-2
    1aca:	6e61                	lui	t3,0x18
    1acc:	6c61                	lui	s8,0x18
    1ace:	7379                	lui	t1,0xffffe
    1ad0:	7369                	lui	t1,0xffffa
    1ad2:	0029                	c.addi	zero,10
    1ad4:	535f 5f43 4152      	0x41525f43535f
    1ada:	4f535f57          	0x4f535f57
    1ade:	54454b43          	0x54454b43
    1ae2:	30372053          	0x30372053
    1ae6:	5f00                	lw	s0,56(a4)
    1ae8:	465f 544c 485f      	0x485f544c465f
    1aee:	5341                	li	t1,-16
    1af0:	515f 4955 5445      	0x54454955515f
    1af6:	4e5f 4e41 5f5f      	0x5f5f4e414e5f
    1afc:	3120                	fld	fs0,96(a0)
    1afe:	5f00                	lw	s0,56(a4)
    1b00:	475f 554e 5f43      	0x5f43554e475f
    1b06:	4150                	lw	a2,4(a0)
    1b08:	4354                	lw	a3,4(a4)
    1b0a:	4c48                	lw	a0,28(s0)
    1b0c:	5645                	li	a2,-15
    1b0e:	4c45                	li	s8,17
    1b10:	5f5f 3020 5f00      	0x5f0030205f5f
    1b16:	475f 4343 415f      	0x415f4343475f
    1b1c:	4f54                	lw	a3,28(a4)
    1b1e:	494d                	li	s2,19
    1b20:	48435f43          	fmadd.s	ft10,ft6,ft4,fs1,unknown
    1b24:	5241                	li	tp,-16
    1b26:	545f3233          	0x545f3233
    1b2a:	4c5f 434f 5f4b      	0x5f4b434f4c5f
    1b30:	5246                	lw	tp,112(sp)
    1b32:	4545                	li	a0,17
    1b34:	3220                	fld	fs0,96(a2)
    1b36:	5f00                	lw	s0,56(a4)
    1b38:	6c66                	flw	fs8,88(sp)
    1b3a:	666b636f          	jal	t1,b81a0 <__global_pointer$+0x97170>
    1b3e:	6c69                	lui	s8,0x1a
    1b40:	2865                	jal	1bf8 <_data-0x1e408>
    1b42:	7066                	flw	ft0,120(sp)
    1b44:	2029                	jal	1b4e <_data-0x1e4b2>
    1b46:	2828                	fld	fa0,80(s0)
    1b48:	6628                	flw	fa0,72(a2)
    1b4a:	2970                	fld	fa2,208(a0)
    1b4c:	3e2d                	jal	1686 <_data-0x1e97a>
    1b4e:	665f 616c 7367      	0x7367616c665f
    1b54:	2620                	fld	fs0,72(a2)
    1b56:	5f20                	lw	s0,120(a4)
    1b58:	535f 5453 2952      	0x29525453535f
    1b5e:	3f20                	fld	fs0,120(a4)
    1b60:	3020                	fld	fs0,96(s0)
    1b62:	3a20                	fld	fs0,112(a2)
    1b64:	5f20                	lw	s0,120(a4)
    1b66:	6c5f 636f 5f6b      	0x5f6b636f6c5f
    1b6c:	6361                	lui	t1,0x18
    1b6e:	7571                	lui	a0,0xffffc
    1b70:	7269                	lui	tp,0xffffa
    1b72:	5f65                	li	t5,-7
    1b74:	6572                	flw	fa0,28(sp)
    1b76:	73727563          	bleu	s7,tp,22a0 <_data-0x1dd60>
    1b7a:	7669                	lui	a2,0xffffa
    1b7c:	2865                	jal	1c34 <_data-0x1e3cc>
    1b7e:	6628                	flw	fa0,72(a2)
    1b80:	2970                	fld	fa2,208(a0)
    1b82:	3e2d                	jal	16bc <_data-0x1e944>
    1b84:	6c5f 636f 296b      	0x296b636f6c5f
    1b8a:	0029                	c.addi	zero,10
    1b8c:	5f5f 6c61 6f6c      	0x6f6c6c615f5f
    1b92:	6c615f63          	ble	t1,sp,2270 <_data-0x1dd90>
    1b96:	6769                	lui	a4,0x1a
    1b98:	286e                	fld	fa6,216(sp)
    1b9a:	2978                	fld	fa4,208(a0)
    1b9c:	5f20                	lw	s0,120(a4)
    1b9e:	615f 7474 6972      	0x69727474615f
    1ba4:	7562                	flw	fa0,56(sp)
    1ba6:	6574                	flw	fa3,76(a0)
    1ba8:	5f5f 2828 5f5f      	0x5f5f28285f5f
    1bae:	6c61                	lui	s8,0x18
    1bb0:	6f6c                	flw	fa1,92(a4)
    1bb2:	6c615f63          	ble	t1,sp,2290 <_data-0x1dd70>
    1bb6:	6769                	lui	a4,0x1a
    1bb8:	5f6e                	lw	t5,248(sp)
    1bba:	285f 2978 2929      	0x29292978285f
    1bc0:	5f00                	lw	s0,56(a4)
    1bc2:	725f 7369 7663      	0x76637369725f
    1bc8:	6d5f 6c75 3120      	0x31206c756d5f
    1bce:	5f00                	lw	s0,56(a4)
    1bd0:	555f 4e49 5f54      	0x5f544e49555f
    1bd6:	454c                	lw	a1,12(a0)
    1bd8:	5341                	li	t1,-16
    1bda:	3154                	fld	fa3,160(a0)
    1bdc:	5f36                	lw	t5,108(sp)
    1bde:	414d                	li	sp,19
    1be0:	5f58                	lw	a4,60(a4)
    1be2:	205f 7830 6666      	0x66667830205f
    1be8:	6666                	flw	fa2,88(sp)
    1bea:	5f00                	lw	s0,56(a4)
    1bec:	6f647473          	csrrci	s0,0x6f6,8
    1bf0:	7475                	lui	s0,0xffffd
    1bf2:	5f00                	lw	s0,56(a4)
    1bf4:	755f 6c6e 636f      	0x636f6c6e755f
    1bfa:	2e28736b          	0x2e28736b
    1bfe:	2e2e                	fld	ft8,200(sp)
    1c00:	2029                	jal	1c0a <_data-0x1e3f6>
    1c02:	5f5f 6f6c 6b63      	0x6b636f6c5f5f
    1c08:	615f 6e6e 746f      	0x746f6e6e615f
    1c0e:	7461                	lui	s0,0xffff8
    1c10:	2865                	jal	1cc8 <_data-0x1e338>
    1c12:	6e75                	lui	t3,0x1d
    1c14:	6f6c                	flw	fa1,92(a4)
    1c16:	665f6b63          	bltu	t5,t0,228c <_data-0x1dd74>
    1c1a:	6e75                	lui	t3,0x1d
    1c1c:	6f697463          	bleu	s6,s2,2304 <_data-0x1dcfc>
    1c20:	286e                	fld	fa6,216(sp)
    1c22:	5f5f 4156 415f      	0x415f41565f5f
    1c28:	4752                	lw	a4,20(sp)
    1c2a:	295f5f53          	0x295f5f53
    1c2e:	0029                	c.addi	zero,10
    1c30:	525f 4545 544e      	0x544e4545525f
    1c36:	4d5f 5f50 4552      	0x45525f504d5f
    1c3c:	544c5553          	0x544c5553
    1c40:	4b5f 7028 7274      	0x727470284b5f
    1c46:	2029                	jal	1c50 <_data-0x1e3b0>
    1c48:	2828                	fld	fa0,80(s0)
    1c4a:	7470                	flw	fa2,108(s0)
    1c4c:	2972                	fld	fs2,280(sp)
    1c4e:	3e2d                	jal	1788 <_data-0x1e878>
    1c50:	725f 7365 6c75      	0x6c757365725f
    1c56:	5f74                	lw	a3,124(a4)
    1c58:	5f00296b          	0x5f00296b
    1c5c:	4544                	lw	s1,12(a0)
    1c5e:	5546                	lw	a0,112(sp)
    1c60:	284e                	fld	fa6,208(sp)
    1c62:	616e                	flw	ft2,216(sp)
    1c64:	656d                	lui	a0,0x1b
    1c66:	612c                	flw	fa1,64(a0)
    1c68:	6772                	flw	fa4,28(sp)
    1c6a:	696c                	flw	fa1,84(a0)
    1c6c:	612c7473          	csrrci	s0,0x612,24
    1c70:	6772                	flw	fa4,28(sp)
    1c72:	6e202973          	csrr	s2,0x6e2
    1c76:	6d61                	lui	s10,0x18
    1c78:	2865                	jal	1d30 <_data-0x1e2d0>
    1c7a:	7261                	lui	tp,0xffff8
    1c7c:	00297367          	0x297367
    1c80:	5f5f 7270 6465      	0x646572705f5f
    1c86:	6369                	lui	t1,0x1a
    1c88:	5f74                	lw	a3,124(a4)
    1c8a:	7274                	flw	fa3,100(a2)
    1c8c:	6575                	lui	a0,0x1d
    1c8e:	6528                	flw	fa0,72(a0)
    1c90:	7078                	flw	fa4,100(s0)
    1c92:	2029                	jal	1c9c <_data-0x1e364>
    1c94:	5f5f 7562 6c69      	0x6c6975625f5f
    1c9a:	6974                	flw	fa3,84(a0)
    1c9c:	5f6e                	lw	t5,248(sp)
    1c9e:	7865                	lui	a6,0xffff9
    1ca0:	6570                	flw	fa2,76(a0)
    1ca2:	28287463          	bleu	sp,a6,1f2a <_data-0x1e0d6>
    1ca6:	7865                	lui	a6,0xffff9
    1ca8:	2970                	fld	fa2,208(a0)
    1caa:	202c                	fld	fa1,64(s0)
    1cac:	2931                	jal	20c8 <_data-0x1df38>
    1cae:	5f00                	lw	s0,56(a4)
    1cb0:	325f4353          	0x325f4353
    1cb4:	535f 5f57 4544      	0x45445f57535f
    1cba:	2056                	fld	ft0,336(sp)
    1cbc:	3131                	jal	18c8 <_data-0x1e738>
    1cbe:	0039                	c.addi	zero,14
    1cc0:	5f5f 4c46 3354      	0x33544c465f5f
    1cc6:	5832                	lw	a6,44(sp)
    1cc8:	445f 4e45 524f      	0x524f4e45445f
    1cce:	5f4d                	li	t5,-13
    1cd0:	494d                	li	s2,19
    1cd2:	5f4e                	lw	t5,240(sp)
    1cd4:	205f 2e34 3439      	0x34392e34205f
    1cda:	3630                	fld	fa2,104(a2)
    1cdc:	3635                	jal	1808 <_data-0x1e7f8>
    1cde:	3534                	fld	fa3,104(a0)
    1ce0:	3438                	fld	fa4,104(s0)
    1ce2:	3231                	jal	15ee <_data-0x1ea12>
    1ce4:	3634                	fld	fa3,104(a2)
    1ce6:	3435                	jal	1712 <_data-0x1e8ee>
    1ce8:	3134                	fld	fa3,96(a0)
    1cea:	36353637          	lui	a2,0x36353
    1cee:	3738                	fld	fa4,104(a4)
    1cf0:	3239                	jal	15fe <_data-0x1ea02>
    1cf2:	3638                	fld	fa4,104(a2)
    1cf4:	3238                	fld	fa4,96(a2)
    1cf6:	3132                	fld	ft2,296(sp)
    1cf8:	65323733          	0x65323733
    1cfc:	332d                	jal	1a26 <_data-0x1e5da>
    1cfe:	3432                	fld	fs0,296(sp)
    1d00:	3346                	fld	ft6,112(sp)
    1d02:	7832                	flw	fa6,44(sp)
    1d04:	5f00                	lw	s0,56(a4)
    1d06:	465f 544c 3436      	0x3436544c465f
    1d0c:	4d5f 5841 315f      	0x315f58414d5f
    1d12:	5f30                	lw	a2,120(a4)
    1d14:	5845                	li	a6,-15
    1d16:	5f50                	lw	a2,60(a4)
    1d18:	205f 3033 0038      	0x383033205f
    1d1e:	5f5f 4953 455a      	0x455a49535f5f
    1d24:	4c5f464f          	0x4c5f464f
    1d28:	5f474e4f          	fnmadd.q	ft8,fa4,fs4,fa1,rmm
    1d2c:	205f 0034 5f5f      	0x5f5f0034205f
    1d32:	7461                	lui	s0,0xffff8
    1d34:	7274                	flw	fa3,100(a2)
    1d36:	6269                	lui	tp,0x1a
    1d38:	7475                	lui	s0,0xffffd
    1d3a:	5f65                	li	t5,-7
    1d3c:	6f66                	flw	ft10,88(sp)
    1d3e:	6d72                	flw	fs10,28(sp)
    1d40:	7461                	lui	s0,0xffff8
    1d42:	735f 7274 6d66      	0x6d667274735f
    1d48:	5f5f6e6f          	jal	t3,f8b3c <__global_pointer$+0xd7b0c>
    1d4c:	6128                	flw	fa0,64(a0)
    1d4e:	622c                	flw	fa1,64(a2)
    1d50:	2029                	jal	1d5a <_data-0x1e2a6>
    1d52:	5f00                	lw	s0,56(a4)
    1d54:	5342                	lw	t1,48(sp)
    1d56:	5f44                	lw	s1,60(a4)
    1d58:	455a4953          	0x455a4953
    1d5c:	545f 445f 4645      	0x4645445f545f
    1d62:	4e49                	li	t3,18
    1d64:	4445                	li	s0,17
    1d66:	205f 6500 766e      	0x766e6500205f
    1d6c:	7269                	lui	tp,0xffffa
    1d6e:	5f006e6f          	jal	t3,835e <_data-0x17ca2>
    1d72:	555f 4e49 5f54      	0x5f544e49555f
    1d78:	4146                	lw	sp,80(sp)
    1d7a:	32335453          	0x32335453
    1d7e:	545f 5059 5f45      	0x5f455059545f
    1d84:	205f 6e75 6973      	0x69736e75205f
    1d8a:	64656e67          	0x64656e67
    1d8e:	6920                	flw	fs0,80(a0)
    1d90:	746e                	flw	fs0,248(sp)
    1d92:	5f00                	lw	s0,56(a4)
    1d94:	5f5f 6e69 5f74      	0x5f746e695f5f
    1d9a:	657a6973          	csrrsi	s2,0x657,20
    1d9e:	745f 685f 0020      	0x20685f745f
    1da4:	5f5f 5453 4344      	0x434454535f5f
    1daa:	555f 4654 335f      	0x335f4654555f
    1db0:	5f32                	lw	t5,44(sp)
    1db2:	205f 0031 5f5f      	0x5f5f0031205f
    1db8:	4c46                	lw	s8,80(sp)
    1dba:	3354                	fld	fa3,160(a4)
    1dbc:	5f32                	lw	t5,44(sp)
    1dbe:	5045                	0x5045
    1dc0:	4f4c4953          	0x4f4c4953
    1dc4:	5f4e                	lw	t5,240(sp)
    1dc6:	205f 2e31 3931      	0x39312e31205f
    1dcc:	3032                	fld	ft0,296(sp)
    1dce:	3239                	jal	16dc <_data-0x1e924>
    1dd0:	3938                	fld	fa4,112(a0)
    1dd2:	3535                	jal	1bfe <_data-0x1e402>
    1dd4:	3730                	fld	fa2,104(a4)
    1dd6:	3138                	fld	fa4,96(a0)
    1dd8:	3532                	fld	fa0,296(sp)
    1dda:	3030                	fld	fa2,96(s0)
    1ddc:	3030                	fld	fa2,96(s0)
    1dde:	3030                	fld	fa2,96(s0)
    1de0:	3030                	fld	fa2,96(s0)
    1de2:	3030                	fld	fa2,96(s0)
    1de4:	3030                	fld	fa2,96(s0)
    1de6:	3030                	fld	fa2,96(s0)
    1de8:	3030                	fld	fa2,96(s0)
    1dea:	3030                	fld	fa2,96(s0)
    1dec:	6530                	flw	fa2,72(a0)
    1dee:	372d                	jal	1d18 <_data-0x1e2e8>
    1df0:	3346                	fld	ft6,112(sp)
    1df2:	0032                	0x32
    1df4:	5f5f 4e47 4355      	0x43554e475f5f
    1dfa:	494c                	lw	a1,20(a0)
    1dfc:	4d5f454b          	0x4d5f454b
    1e00:	5441                	li	s0,-16
    1e02:	5f48                	lw	a0,60(a4)
    1e04:	5542                	lw	a0,48(sp)
    1e06:	4c49                	li	s8,18
    1e08:	4954                	lw	a3,20(a0)
    1e0a:	5f4e                	lw	t5,240(sp)
    1e0c:	4552                	lw	a0,20(sp)
    1e0e:	4f4c                	lw	a1,28(a4)
    1e10:	5350                	lw	a2,36(a4)
    1e12:	0020                	addi	s0,sp,8
    1e14:	5f5f 4c46 5f54      	0x5f544c465f5f
    1e1a:	414d                	li	sp,19
    1e1c:	5f58                	lw	a4,60(a4)
    1e1e:	3031                	jal	162a <_data-0x1e9d6>
    1e20:	455f 5058 5f5f      	0x5f5f5058455f
    1e26:	3320                	fld	fs0,96(a4)
    1e28:	0038                	addi	a4,sp,8
    1e2a:	5f5f 4d50 2854      	0x28544d505f5f
    1e30:	7261                	lui	tp,0xffff8
    1e32:	20297367          	0x20297367
    1e36:	7261                	lui	tp,0xffff8
    1e38:	5f007367          	0x5f007367
    1e3c:	445f 4345 3231      	0x32314345445f
    1e42:	5f38                	lw	a4,120(a4)
    1e44:	414d                	li	sp,19
    1e46:	5f58                	lw	a4,60(a4)
    1e48:	205f 2e39 3939      	0x39392e39205f
    1e4e:	3939                	jal	1a6c <_data-0x1e594>
    1e50:	3939                	jal	1a6e <_data-0x1e592>
    1e52:	3939                	jal	1a70 <_data-0x1e590>
    1e54:	3939                	jal	1a72 <_data-0x1e58e>
    1e56:	3939                	jal	1a74 <_data-0x1e58c>
    1e58:	3939                	jal	1a76 <_data-0x1e58a>
    1e5a:	3939                	jal	1a78 <_data-0x1e588>
    1e5c:	3939                	jal	1a7a <_data-0x1e586>
    1e5e:	3939                	jal	1a7c <_data-0x1e584>
    1e60:	3939                	jal	1a7e <_data-0x1e582>
    1e62:	3939                	jal	1a80 <_data-0x1e580>
    1e64:	3939                	jal	1a82 <_data-0x1e57e>
    1e66:	3939                	jal	1a84 <_data-0x1e57c>
    1e68:	3939                	jal	1a86 <_data-0x1e57a>
    1e6a:	3939                	jal	1a88 <_data-0x1e578>
    1e6c:	4539                	li	a0,14
    1e6e:	3136                	fld	ft2,360(sp)
    1e70:	3434                	fld	fa3,104(s0)
    1e72:	4c44                	lw	s1,28(s0)
    1e74:	5f00                	lw	s0,56(a4)
    1e76:	445f 4345 3231      	0x32314345445f
    1e7c:	5f38                	lw	a4,120(a4)
    1e7e:	414d                	li	sp,19
    1e80:	5f58                	lw	a4,60(a4)
    1e82:	5845                	li	a6,-15
    1e84:	5f50                	lw	a2,60(a4)
    1e86:	205f 3136 3534      	0x35343136205f
    1e8c:	5f00                	lw	s0,56(a4)
    1e8e:	4c5f4353          	0x4c5f4353
    1e92:	4e49                	li	t3,18
    1e94:	5f45                	li	t5,-15
    1e96:	414d                	li	sp,19
    1e98:	2058                	fld	fa4,128(s0)
    1e9a:	3836                	fld	fa6,360(sp)
    1e9c:	5f00                	lw	s0,56(a4)
    1e9e:	665f 726f 616d      	0x616d726f665f
    1ea4:	5f74                	lw	a3,124(a4)
    1ea6:	7261                	lui	tp,0xffff8
    1ea8:	6d662867          	0x6d662867
    1eac:	6174                	flw	fa3,68(a0)
    1eae:	6772                	flw	fa4,28(sp)
    1eb0:	2029                	jal	1eba <_data-0x1e146>
    1eb2:	5f5f 7461 7274      	0x727474615f5f
    1eb8:	6269                	lui	tp,0x1a
    1eba:	7475                	lui	s0,0xffffd
    1ebc:	5f65                	li	t5,-7
    1ebe:	285f 5f28 665f      	0x665f5f28285f
    1ec4:	616d726f          	jal	tp,d94da <__global_pointer$+0xb84aa>
    1ec8:	5f74                	lw	a3,124(a4)
    1eca:	7261                	lui	tp,0xffff8
    1ecc:	205f5f67          	0x205f5f67
    1ed0:	6628                	flw	fa0,72(a2)
    1ed2:	746d                	lui	s0,0xffffb
    1ed4:	7261                	lui	tp,0xffff8
    1ed6:	29292967          	0x29292967
    1eda:	5f00                	lw	s0,56(a4)
    1edc:	495f 544e 465f      	0x465f544e495f
    1ee2:	5341                	li	t1,-16
    1ee4:	3354                	fld	fa3,160(a4)
    1ee6:	5f32                	lw	t5,44(sp)
    1ee8:	414d                	li	sp,19
    1eea:	5f58                	lw	a4,60(a4)
    1eec:	205f 7830 6637      	0x66377830205f
    1ef2:	6666                	flw	fa2,88(sp)
    1ef4:	6666                	flw	fa2,88(sp)
    1ef6:	6666                	flw	fa2,88(sp)
    1ef8:	5f00                	lw	s0,56(a4)
    1efa:	415f 4f54 494d      	0x494d4f54415f
    1f00:	45535f43          	0x45535f43
    1f04:	5f51                	li	t5,-12
    1f06:	20545343          	fmadd.s	ft6,fs0,ft5,ft4,unknown
    1f0a:	0035                	c.addi	zero,13
    1f0c:	5f5f 6773 7465      	0x746567735f5f
    1f12:	61725f63          	ble	s7,tp,2530 <_data-0x1dad0>
    1f16:	28725f77          	0x28725f77
    1f1a:	5f5f 7470 2c72      	0x2c7274705f5f
    1f20:	5f5f 2966 2820      	0x282029665f5f
    1f26:	2d2d                	jal	2560 <_data-0x1daa0>
    1f28:	5f28                	lw	a0,120(a4)
    1f2a:	665f 2d29 5f3e      	0x5f3e2d29665f
    1f30:	2072                	fld	ft0,280(sp)
    1f32:	203c                	fld	fa5,64(s0)
    1f34:	2030                	fld	fa2,64(s0)
    1f36:	5f5f203f 65677273 	0x656772735f5f203f
    1f3e:	5f74                	lw	a3,124(a4)
    1f40:	2872                	fld	fa6,280(sp)
    1f42:	5f5f 7470 2c72      	0x2c7274705f5f
    1f48:	5f20                	lw	s0,120(a4)
    1f4a:	665f 2029 203a      	0x203a2029665f
    1f50:	6928                	flw	fa0,80(a0)
    1f52:	746e                	flw	fs0,248(sp)
    1f54:	2829                	jal	1f6e <_data-0x1e092>
    1f56:	282a                	fld	fa6,136(sp)
    1f58:	5f5f 2966 3e2d      	0x3e2d29665f5f
    1f5e:	705f 2b2b 2929      	0x29292b2b705f
    1f64:	5f00                	lw	s0,56(a4)
    1f66:	4c5f4353          	0x4c5f4353
    1f6a:	5645                	li	a2,-15
    1f6c:	4c45                	li	s8,17
    1f6e:	41435f33          	sra	t5,t1,s4
    1f72:	5f454843          	fmadd.q	fa6,fa0,fs4,fa1,rmm
    1f76:	494c                	lw	a1,20(a0)
    1f78:	454e                	lw	a0,208(sp)
    1f7a:	455a4953          	0x455a4953
    1f7e:	3120                	fld	fs0,96(a0)
    1f80:	5f003633          	0x5f003633
    1f84:	4544                	lw	s1,12(a0)
    1f86:	5f56                	lw	t5,116(sp)
    1f88:	5f54                	lw	a3,60(a4)
    1f8a:	4544                	lw	s1,12(a0)
    1f8c:	52414c43          	fmadd.d	fs8,ft2,ft4,fa0,rmm
    1f90:	4445                	li	s0,17
    1f92:	0020                	addi	s0,sp,8
    1f94:	755f 736e 6570      	0x6570736e755f
    1f9a:	69666963          	bltu	a2,s6,262c <_data-0x1d9d4>
    1f9e:	6465                	lui	s0,0x19
    1fa0:	6c5f 636f 6c61      	0x6c61636f6c5f
    1fa6:	5f65                	li	t5,-7
    1fa8:	6e69                	lui	t3,0x1a
    1faa:	6f66                	flw	ft10,88(sp)
    1fac:	5f00                	lw	s0,56(a4)
    1fae:	6e5f 6565 5f64      	0x5f6465656e5f
    1fb4:	746e6977          	0x746e6977
    1fb8:	745f 5f00 4c5f      	0x4c5f5f00745f
    1fbe:	4244                	lw	s1,4(a2)
    1fc0:	5f4c                	lw	a1,60(a4)
    1fc2:	494d                	li	s2,19
    1fc4:	5f4e                	lw	t5,240(sp)
    1fc6:	5845                	li	a6,-15
    1fc8:	5f50                	lw	a2,60(a4)
    1fca:	205f 2d28 3631      	0x36312d28205f
    1fd0:	29313833          	0x29313833
    1fd4:	5f00                	lw	s0,56(a4)
    1fd6:	735f 6d79 645f      	0x645f6d79735f
    1fdc:	6665                	lui	a2,0x19
    1fde:	7561                	lui	a0,0xffff8
    1fe0:	746c                	flw	fa1,108(s0)
    1fe2:	7328                	flw	fa0,96(a4)
    1fe4:	6d79                	lui	s10,0x1e
    1fe6:	692c                	flw	fa1,80(a0)
    1fe8:	706d                	0x706d
    1fea:	2c6c                	fld	fa1,216(s0)
    1fec:	6576                	flw	fa0,92(sp)
    1fee:	6972                	flw	fs2,28(sp)
    1ff0:	2964                	fld	fs1,208(a0)
    1ff2:	5f20                	lw	s0,120(a4)
    1ff4:	615f 6d73 5f5f      	0x5f5f6d73615f
    1ffa:	2228                	fld	fa0,64(a2)
    1ffc:	732e                	flw	ft6,232(sp)
    1ffe:	6d79                	lui	s10,0x1e
    2000:	6576                	flw	fa0,92(sp)
    2002:	2072                	fld	ft0,280(sp)
    2004:	2022                	fld	ft0,8(sp)
    2006:	706d6923          	0x706d6923
    200a:	206c                	fld	fa1,192(s0)
    200c:	2c22                	fld	fs8,8(sp)
    200e:	2220                	fld	fs0,64(a2)
    2010:	2320                	fld	fs0,64(a4)
    2012:	206d7973          	csrrci	s2,0x206,26
    2016:	4022                	0x4022
    2018:	2240                	fld	fs0,128(a2)
    201a:	2320                	fld	fs0,64(a4)
    201c:	6576                	flw	fa0,92(sp)
    201e:	6972                	flw	fs2,28(sp)
    2020:	2964                	fld	fs1,208(a0)
    2022:	4900                	lw	s0,16(a0)
    2024:	544e                	lw	s0,240(sp)
    2026:	465f 5341 3854      	0x38545341465f
    202c:	4d5f 5841 2820      	0x282058414d5f
    2032:	5f5f 4e49 5f54      	0x5f544e495f5f
    2038:	4146                	lw	sp,80(sp)
    203a:	5f385453          	0x5f385453
    203e:	414d                	li	sp,19
    2040:	5f58                	lw	a4,60(a4)
    2042:	295f 6600 6f77      	0x6f776600295f
    2048:	6570                	flw	fa2,76(a0)
    204a:	286e                	fld	fa6,216(sp)
    204c:	5f5f 6f63 6b6f      	0x6b6f6f635f5f
    2052:	6569                	lui	a0,0x1a
    2054:	5f2c                	lw	a1,120(a4)
    2056:	665f 296e 6620      	0x6620296e665f
    205c:	6e75                	lui	t3,0x1d
    205e:	6e65706f          	j	59744 <__global_pointer$+0x38714>
    2062:	5f28                	lw	a0,120(a4)
    2064:	635f 6f6f 696b      	0x696b6f6f635f
    206a:	2c65                	jal	2322 <_data-0x1dcde>
    206c:	2820                	fld	fs0,80(s0)
    206e:	6e69                	lui	t3,0x1a
    2070:	2074                	fld	fa3,192(s0)
    2072:	2a28                	fld	fa0,80(a2)
    2074:	2829                	jal	208e <_data-0x1df72>
    2076:	2929                	jal	2490 <_data-0x1db70>
    2078:	2c30                	fld	fa2,88(s0)
    207a:	5f20                	lw	s0,120(a4)
    207c:	665f 2c6e 2820      	0x28202c6e665f
    2082:	7066                	flw	ft0,120(sp)
    2084:	745f736f          	jal	t1,f9fc8 <__global_pointer$+0xd8f98>
    2088:	2820                	fld	fs0,80(s0)
    208a:	292a                	fld	fs2,136(sp)
    208c:	2928                	fld	fa0,80(a0)
    208e:	3029                	jal	1898 <_data-0x1e768>
    2090:	202c                	fld	fa1,64(s0)
    2092:	6928                	flw	fa0,80(a0)
    2094:	746e                	flw	fs0,248(sp)
    2096:	2820                	fld	fs0,80(s0)
    2098:	292a                	fld	fs2,136(sp)
    209a:	2928                	fld	fa0,80(a0)
    209c:	3029                	jal	18a6 <_data-0x1e75a>
    209e:	0029                	c.addi	zero,10
    20a0:	725f 6565 746e      	0x746e6565725f
    20a6:	5f00                	lw	s0,56(a4)
    20a8:	555f 4e49 3154      	0x31544e49555f
    20ae:	5f36                	lw	t5,108(sp)
    20b0:	414d                	li	sp,19
    20b2:	5f58                	lw	a4,60(a4)
    20b4:	205f 7830 6666      	0x66667830205f
    20ba:	6666                	flw	fa2,88(sp)
    20bc:	5f00                	lw	s0,56(a4)
    20be:	7566                	flw	fa0,120(sp)
    20c0:	6c6e                	flw	fs8,216(sp)
    20c2:	666b636f          	jal	t1,b8728 <__global_pointer$+0x976f8>
    20c6:	6c69                	lui	s8,0x1a
    20c8:	2865                	jal	2180 <_data-0x1de80>
    20ca:	7066                	flw	ft0,120(sp)
    20cc:	2029                	jal	20d6 <_data-0x1df2a>
    20ce:	2828                	fld	fa0,80(s0)
    20d0:	6628                	flw	fa0,72(a2)
    20d2:	2970                	fld	fa2,208(a0)
    20d4:	3e2d                	jal	1c0e <_data-0x1e3f2>
    20d6:	665f 616c 7367      	0x7367616c665f
    20dc:	2620                	fld	fs0,72(a2)
    20de:	5f20                	lw	s0,120(a4)
    20e0:	535f 5453 2952      	0x29525453535f
    20e6:	3f20                	fld	fs0,120(a4)
    20e8:	3020                	fld	fs0,96(s0)
    20ea:	3a20                	fld	fs0,112(a2)
    20ec:	5f20                	lw	s0,120(a4)
    20ee:	6c5f 636f 5f6b      	0x5f6b636f6c5f
    20f4:	6572                	flw	fa0,28(sp)
    20f6:	656c                	flw	fa1,76(a0)
    20f8:	7361                	lui	t1,0xffff8
    20fa:	5f65                	li	t5,-7
    20fc:	6572                	flw	fa0,28(sp)
    20fe:	73727563          	bleu	s7,tp,2828 <_data-0x1d7d8>
    2102:	7669                	lui	a2,0xffffa
    2104:	2865                	jal	21bc <_data-0x1de44>
    2106:	6628                	flw	fa0,72(a2)
    2108:	2970                	fld	fa2,208(a0)
    210a:	3e2d                	jal	1c44 <_data-0x1e3bc>
    210c:	6c5f 636f 296b      	0x296b636f6c5f
    2112:	0029                	c.addi	zero,10
    2114:	505f 5f43 4c41      	0x4c415f43505f
    211a:	4f4c                	lw	a1,28(a4)
    211c:	49535f43          	fmadd.s	ft10,ft6,fs5,fs1,unknown
    2120:	455a                	lw	a0,148(sp)
    2122:	4d5f 4e49 3120      	0x31204e494d5f
    2128:	0035                	c.addi	zero,13
    212a:	7570                	flw	fa2,108(a0)
    212c:	6374                	flw	fa3,68(a4)
    212e:	7828                	flw	fa0,112(s0)
    2130:	662c                	flw	fa1,72(a2)
    2132:	2970                	fld	fa2,208(a0)
    2134:	5f20                	lw	s0,120(a4)
    2136:	735f 7570 6374      	0x63747570735f
    213c:	725f 5f28 4552      	0x45525f28725f
    2142:	4e45                	li	t3,17
    2144:	2c54                	fld	fa3,152(s0)
    2146:	7820                	flw	fs0,112(s0)
    2148:	202c                	fld	fa1,64(s0)
    214a:	7066                	flw	ft0,120(sp)
    214c:	0029                	c.addi	zero,10
    214e:	535f 5f43 454c      	0x454c5f43535f
    2154:	4556                	lw	a0,84(sp)
    2156:	314c                	fld	fa1,160(a0)
    2158:	445f 4143 4843      	0x48434143445f
    215e:	5f45                	li	t5,-15
    2160:	455a4953          	0x455a4953
    2164:	3120                	fld	fs0,96(a0)
    2166:	3832                	fld	fa6,296(sp)
    2168:	2f00                	fld	fs0,24(a4)
    216a:	6f68                	flw	fa0,92(a4)
    216c:	656d                	lui	a0,0x1b
    216e:	7568732f          	0x7568732f
    2172:	6862                	flw	fa6,24(sp)
    2174:	7365442f          	0x7365442f
    2178:	706f746b          	0x706f746b
    217c:	6d65742f          	0x6d65742f
    2180:	0070                	addi	a2,sp,12
    2182:	5f5f 6e69 5f74      	0x5f746e695f5f
    2188:	6166                	flw	ft2,88(sp)
    218a:	34367473          	csrrci	s0,mbadaddr,12
    218e:	745f 645f 6665      	0x6665645f745f
    2194:	6e69                	lui	t3,0x1a
    2196:	6465                	lui	s0,0x19
    2198:	3120                	fld	fs0,96(a0)
    219a:	7100                	flw	fs0,32(a0)
    219c:	6175                	addi	sp,sp,368
    219e:	2064                	fld	fs1,192(s0)
    21a0:	7571                	lui	a0,0xffffc
    21a2:	6461                	lui	s0,0x18
    21a4:	745f 5f00 4c5f      	0x4c5f5f00745f
    21aa:	4244                	lw	s1,4(a2)
    21ac:	5f4c                	lw	a1,60(a4)
    21ae:	414d                	li	sp,19
    21b0:	5f58                	lw	a4,60(a4)
    21b2:	5845                	li	a6,-15
    21b4:	5f50                	lw	a2,60(a4)
    21b6:	205f 3631 3833      	0x38333631205f
    21bc:	0034                	addi	a3,sp,8
    21be:	5f5f 4946 454c      	0x454c49465f5f
    21c4:	645f 6665 6e69      	0x6e696665645f
    21ca:	6465                	lui	s0,0x19
    21cc:	0020                	addi	s0,sp,8
    21ce:	565f 4c4f 5441      	0x54414c4f565f
    21d4:	4c49                	li	s8,18
    21d6:	2045                	jal	2276 <_data-0x1dd8a>
    21d8:	6f76                	flw	ft10,92(sp)
    21da:	616c                	flw	fa1,68(a0)
    21dc:	6974                	flw	fa3,84(a0)
    21de:	656c                	flw	fa1,76(a0)
    21e0:	5f00                	lw	s0,56(a4)
    21e2:	535f 5a49 4f45      	0x4f455a49535f
    21e8:	5f46                	lw	t5,112(sp)
    21ea:	524f4853          	0x524f4853
    21ee:	5f54                	lw	a3,60(a4)
    21f0:	205f 0032 5f5f      	0x5f5f0032205f
    21f6:	2850                	fld	fa2,144(s0)
    21f8:	7270                	flw	fa2,100(a2)
    21fa:	736f746f          	jal	s0,f9930 <__global_pointer$+0xd8900>
    21fe:	2029                	jal	2208 <_data-0x1ddf8>
    2200:	7270                	flw	fa2,100(a2)
    2202:	736f746f          	jal	s0,f9938 <__global_pointer$+0xd8908>
    2206:	5f00                	lw	s0,56(a4)
    2208:	6e75                	lui	t3,0x1d
    220a:	7375                	lui	t1,0xffffd
    220c:	6465                	lui	s0,0x19
    220e:	5f00                	lw	s0,56(a4)
    2210:	5845                	li	a6,-15
    2212:	4e46                	lw	t3,80(sp)
    2214:	5450                	lw	a2,44(s0)
    2216:	2852                	fld	fa6,272(sp)
    2218:	616e                	flw	ft2,216(sp)
    221a:	656d                	lui	a0,0x1b
    221c:	702c                	flw	fa1,96(s0)
    221e:	6f72                	flw	ft10,28(sp)
    2220:	6f74                	flw	fa3,92(a4)
    2222:	2029                	jal	222c <_data-0x1ddd4>
    2224:	2a28                	fld	fa0,80(a2)
    2226:	6e20                	flw	fs0,88(a2)
    2228:	6d61                	lui	s10,0x18
    222a:	2965                	jal	26e2 <_data-0x1d91e>
    222c:	7020                	flw	fs0,96(s0)
    222e:	6f72                	flw	ft10,28(sp)
    2230:	6f74                	flw	fa3,92(a4)
    2232:	4600                	lw	s0,8(a2)
    2234:	4f5f 204b 0030      	0x30204b4f5f
    223a:	435f 4f4c 4b43      	0x4b434f4c435f
    2240:	545f 205f 6e75      	0x6e75205f545f
    2246:	6e676973          	csrrsi	s2,0x6e6,14
    224a:	6465                	lui	s0,0x19
    224c:	6c20                	flw	fs0,88(s0)
    224e:	00676e6f          	jal	t3,78254 <__global_pointer$+0x57224>
    2252:	535f 5f43 4854      	0x48545f43535f
    2258:	4552                	lw	a0,20(sp)
    225a:	4441                	li	s0,16
    225c:	505f 4952 524f      	0x524f4952505f
    2262:	5449                	li	s0,-14
    2264:	5f59                	li	t5,-10
    2266:	45484353          	0x45484353
    226a:	5544                	lw	s1,44(a0)
    226c:	494c                	lw	a1,20(a0)
    226e:	474e                	lw	a4,208(sp)
    2270:	3420                	fld	fs0,104(s0)
    2272:	0035                	c.addi	zero,13
    2274:	535f 5359 465f      	0x465f5359535f
    227a:	4145                	li	sp,17
    227c:	5554                	lw	a3,44(a0)
    227e:	4552                	lw	a0,20(sp)
    2280:	20485f53          	0x20485f53
    2284:	5f00                	lw	s0,56(a4)
    2286:	6e5f 696f 6c6e      	0x6c6e696f6e5f
    228c:	6e69                	lui	t3,0x1a
    228e:	2065                	jal	2336 <_data-0x1dcca>
    2290:	5f5f 7461 7274      	0x727474615f5f
    2296:	6269                	lui	tp,0x1a
    2298:	7475                	lui	s0,0xffffd
    229a:	5f65                	li	t5,-7
    229c:	205f 2828 5f5f      	0x5f5f2828205f
    22a2:	6f6e                	flw	ft10,216(sp)
    22a4:	6e69                	lui	t3,0x1a
    22a6:	696c                	flw	fa1,84(a0)
    22a8:	656e                	flw	fa0,216(sp)
    22aa:	5f5f 2929 5f00      	0x5f0029295f5f
    22b0:	414d                	li	sp,19
    22b2:	54534843          	0x54534843
    22b6:	4c44                	lw	s1,28(s0)
    22b8:	4249                	li	tp,18
    22ba:	485f 205f 5f00      	0x5f00205f485f
    22c0:	525f4353          	0x525f4353
    22c4:	4145                	li	sp,17
    22c6:	4544                	lw	s1,12(a0)
    22c8:	5f52                	lw	t5,52(sp)
    22ca:	54495257          	0x54495257
    22ce:	5245                	li	tp,-15
    22d0:	4c5f 434f 534b      	0x534b434f4c5f
    22d6:	3720                	fld	fs0,104(a4)
    22d8:	0031                	c.addi	zero,12
    22da:	5f5f 4e47 4355      	0x43554e475f5f
    22e0:	494c                	lw	a1,20(a0)
    22e2:	425f454b          	fnmsub.d	fa0,ft10,ft5,fs0,rmm
    22e6:	4955                	li	s2,21
    22e8:	544c                	lw	a1,44(s0)
    22ea:	4e49                	li	t3,18
    22ec:	4e5f 5845 5f54      	0x5f5458454e5f
    22f2:	5241                	li	tp,-16
    22f4:	00312047          	fmsub.s	ft0,ft2,ft3,ft0,rdn
    22f8:	5f5f 6c63 636f      	0x636f6c635f5f
    22fe:	5f64696b          	0x5f64696b
    2302:	5f74                	lw	a3,124(a4)
    2304:	6564                	flw	fs1,76(a0)
    2306:	6966                	flw	fs2,88(sp)
    2308:	656e                	flw	fa0,216(sp)
    230a:	2064                	fld	fs1,192(s0)
    230c:	5f00                	lw	s0,56(a4)
    230e:	465f 544c 3231      	0x3231544c465f
    2314:	5f38                	lw	a4,120(a4)
    2316:	494d                	li	s2,19
    2318:	5f4e                	lw	t5,240(sp)
    231a:	205f 2e33 3633      	0x36332e33205f
    2320:	3132                	fld	ft2,296(sp)
    2322:	3330                	fld	fa2,96(a4)
    2324:	3431                	jal	1d30 <_data-0x1e2d0>
    2326:	32313133          	0x32313133
    232a:	3930                	fld	fa2,112(a0)
    232c:	36303533          	0x36303533
    2330:	3632                	fld	fa2,296(sp)
    2332:	3632                	fld	fa2,296(sp)
    2334:	31383737          	lui	a4,0x31383
    2338:	31323337          	lui	t1,0x31323
    233c:	36323537          	lui	a0,0x36323
    2340:	6530                	flw	fa2,72(a0)
    2342:	342d                	jal	1d6c <_data-0x1e294>
    2344:	3339                	jal	2052 <_data-0x1dfae>
    2346:	4632                	lw	a2,12(sp)
    2348:	3231                	jal	1c54 <_data-0x1e3ac>
    234a:	0038                	addi	a4,sp,8
    234c:	5f5f 5250 4741      	0x474152505f5f
    2352:	414d                	li	sp,19
    2354:	525f 4445 4645      	0x46454445525f
    235a:	4e49                	li	t3,18
    235c:	5f45                	li	t5,-15
    235e:	5845                	li	a6,-15
    2360:	4e54                	lw	a3,28(a2)
    2362:	4d41                	li	s10,16
    2364:	2045                	jal	2404 <_data-0x1dbfc>
    2366:	0031                	c.addi	zero,12
    2368:	5f4c                	lw	a1,60(a4)
    236a:	6d74                	flw	fa3,92(a0)
    236c:	6e70                	flw	fa2,92(a2)
    236e:	6d61                	lui	s10,0x18
    2370:	4620                	lw	s0,72(a2)
    2372:	4c49                	li	s8,18
    2374:	4e45                	li	t3,17
    2376:	4d41                	li	s10,16
    2378:	5f45                	li	t5,-15
    237a:	414d                	li	sp,19
    237c:	0058                	addi	a4,sp,4
    237e:	505f 5f43 4552      	0x45525f43505f
    2384:	4e495f43          	fmadd.q	ft10,fs2,ft4,fs1,unknown
    2388:	585f5243          	fmadd.s	ft4,ft10,ft5,fa1,unknown
    238c:	4546                	lw	a0,80(sp)
    238e:	5f52                	lw	t5,52(sp)
    2390:	455a4953          	0x455a4953
    2394:	3120                	fld	fs0,96(a0)
    2396:	0036                	0x36
    2398:	535f 5f43 4553      	0x45535f43535f
    239e:	5f4d                	li	t5,-13
    23a0:	4156                	lw	sp,84(sp)
    23a2:	554c                	lw	a1,44(a0)
    23a4:	5f45                	li	t5,-15
    23a6:	414d                	li	sp,19
    23a8:	2058                	fld	fa4,128(s0)
    23aa:	3731                	jal	22b6 <_data-0x1dd4a>
    23ac:	5f00                	lw	s0,56(a4)
    23ae:	525f4353          	0x525f4353
    23b2:	4745                	li	a4,17
    23b4:	5845                	li	a6,-15
    23b6:	2050                	fld	fa2,128(s0)
    23b8:	5f003237          	lui	tp,0x5f003
    23bc:	6e5f 6565 5f64      	0x5f6465656e5f
    23c2:	61686377          	0x61686377
    23c6:	5f72                	lw	t5,60(sp)
    23c8:	2074                	fld	fa3,192(s0)
    23ca:	5f00                	lw	s0,56(a4)
    23cc:	685f 6469 6564      	0x65646469685f
    23d2:	206e                	fld	ft0,216(sp)
    23d4:	5f5f 7461 7274      	0x727474615f5f
    23da:	6269                	lui	tp,0x1a
    23dc:	7475                	lui	s0,0xffffd
    23de:	5f65                	li	t5,-7
    23e0:	285f 5f28 765f      	0x765f5f28285f
    23e6:	7369                	lui	t1,0xffffa
    23e8:	6269                	lui	tp,0x1a
    23ea:	6c69                	lui	s8,0x1a
    23ec:	7469                	lui	s0,0xffffa
    23ee:	5f79                	li	t5,-2
    23f0:	285f 6822 6469      	0x64696822285f
    23f6:	6564                	flw	fs1,76(a0)
    23f8:	226e                	fld	ft4,216(sp)
    23fa:	2929                	jal	2814 <_data-0x1d7ec>
    23fc:	0029                	c.addi	zero,10
    23fe:	535f 5f43 4853      	0x48535f43535f
    2404:	5241                	li	tp,-16
    2406:	4445                	li	s0,17
    2408:	4d5f 4d45 524f      	0x524f4d454d5f
    240e:	5f59                	li	t5,-10
    2410:	454a424f          	0x454a424f
    2414:	20535443          	fmadd.s	fs0,ft6,ft5,ft4,unknown
    2418:	5f003133          	0x5f003133
    241c:	6e66                	flw	ft8,88(sp)
    241e:	5f5f0073          	0x5f5f0073
    2422:	46464f53          	0x46464f53
    2426:	3020                	fld	fs0,96(s0)
    2428:	3178                	fld	fa4,224(a0)
    242a:	3030                	fld	fa2,96(s0)
    242c:	0030                	addi	a2,sp,8
    242e:	5f5f 4955 544e      	0x544e49555f5f
    2434:	465f 5341 3654      	0x36545341465f
    243a:	5f34                	lw	a3,120(a4)
    243c:	5954                	lw	a3,52(a0)
    243e:	4550                	lw	a2,12(a0)
    2440:	5f5f 6c20 6e6f      	0x6e6f6c205f5f
    2446:	6f6c2067          	0x6f6c2067
    244a:	676e                	flw	fa4,216(sp)
    244c:	7520                	flw	fs0,104(a0)
    244e:	736e                	flw	ft6,248(sp)
    2450:	6769                	lui	a4,0x1a
    2452:	656e                	flw	fa0,216(sp)
    2454:	2064                	fld	fs1,192(s0)
    2456:	6e69                	lui	t3,0x1a
    2458:	0074                	addi	a3,sp,12
    245a:	535f 5f43 4553      	0x45535f43535f
    2460:	414d                	li	sp,19
    2462:	4850                	lw	a2,20(s0)
    2464:	5345524f          	fnmadd.d	ft4,fa0,fs4,fa0,unknown
    2468:	3320                	fld	fs0,96(a4)
    246a:	0030                	addi	a2,sp,8
    246c:	45484353          	0x45484353
    2470:	5f44                	lw	s1,60(a4)
    2472:	4548544f          	0x4548544f
    2476:	2052                	fld	ft0,272(sp)
    2478:	0030                	addi	a2,sp,8
    247a:	525f 4545 544e      	0x544e4545525f
    2480:	4d5f 5242 4f54      	0x4f5452424d5f
    2486:	535f4357          	0x535f4357
    248a:	4154                	lw	a3,4(a0)
    248c:	4554                	lw	a3,12(a0)
    248e:	7028                	flw	fa0,96(s0)
    2490:	7274                	flw	fa3,100(a2)
    2492:	2029                	jal	249c <_data-0x1db64>
    2494:	2828                	fld	fa0,80(s0)
    2496:	7470                	flw	fa2,108(s0)
    2498:	2972                	fld	fs2,280(sp)
    249a:	3e2d                	jal	1fd4 <_data-0x1e02c>
    249c:	6e5f 7765 5f2e      	0x5f2e77656e5f
    24a2:	6572                	flw	fa0,28(sp)
    24a4:	6e65                	lui	t3,0x19
    24a6:	2e74                	fld	fa3,216(a2)
    24a8:	6d5f 7262 6f74      	0x6f7472626d5f
    24ae:	735f6377          	0x735f6377
    24b2:	6174                	flw	fa3,68(a0)
    24b4:	6574                	flw	fa3,76(a0)
    24b6:	0029                	c.addi	zero,10
    24b8:	575f 4e49 5f54      	0x5f544e49575f
    24be:	2054                	fld	fa3,128(s0)
    24c0:	5f00                	lw	s0,56(a4)
    24c2:	736f6c63          	bltu	t5,s6,2bfa <_data-0x1d406>
    24c6:	0065                	c.addi	zero,25
    24c8:	5f5f 656e 6465      	0x6465656e5f5f
    24ce:	735f 7a69 5f65      	0x5f657a69735f
    24d4:	2074                	fld	fa3,192(s0)
    24d6:	5f00                	lw	s0,56(a4)
    24d8:	565f4353          	0x565f4353
    24dc:	5245                	li	tp,-15
    24de:	4e4f4953          	0x4e4f4953
    24e2:	3720                	fld	fs0,104(a4)
    24e4:	5800                	lw	s0,48(s0)
    24e6:	4f5f 204b 0031      	0x31204b4f5f
    24ec:	5f5f 4347 5f43      	0x5f4343475f5f
    24f2:	5441                	li	s0,-16
    24f4:	43494d4f          	fnmadd.d	fs10,fs2,fs4,fs0,rmm
    24f8:	4c5f 4f4c 474e      	0x474e4f4c4c5f
    24fe:	4c5f 434f 5f4b      	0x5f4b434f4c5f
    2504:	5246                	lw	tp,112(sp)
    2506:	4545                	li	a0,17
    2508:	3120                	fld	fs0,96(a0)
    250a:	5f00                	lw	s0,56(a4)
    250c:	5450                	lw	a2,44(s0)
    250e:	5248                	lw	a0,36(a2)
    2510:	4145                	li	sp,17
    2512:	5f44                	lw	s1,60(a4)
    2514:	444e4f43          	0x444e4f43
    2518:	495f 494e 4954      	0x4954494e495f
    251e:	4c41                	li	s8,16
    2520:	5a49                	li	s4,-14
    2522:	5245                	li	tp,-15
    2524:	2820                	fld	fs0,80(s0)
    2526:	7028                	flw	fa0,96(s0)
    2528:	6874                	flw	fa3,84(s0)
    252a:	6572                	flw	fa0,28(sp)
    252c:	6461                	lui	s0,0x18
    252e:	635f 6e6f 5f64      	0x5f646e6f635f
    2534:	2974                	fld	fa3,208(a0)
    2536:	3020                	fld	fs0,96(s0)
    2538:	4678                	lw	a4,76(a2)
    253a:	4646                	lw	a2,80(sp)
    253c:	4646                	lw	a2,80(sp)
    253e:	4646                	lw	a2,80(sp)
    2540:	2946                	fld	fs2,80(sp)
    2542:	5f00                	lw	s0,56(a4)
    2544:	5355                	li	t1,-11
    2546:	4345                	li	t1,17
    2548:	53444e4f          	fnmadd.d	ft8,fs0,fs4,fa0,rmm
    254c:	545f 445f 4345      	0x4345445f545f
    2552:	414c                	lw	a1,4(a0)
    2554:	4552                	lw	a0,20(sp)
    2556:	2044                	fld	fs1,128(s0)
    2558:	5f00                	lw	s0,56(a4)
    255a:	725f 7369 7663      	0x76637369725f
    2560:	665f 6964 2076      	0x20766964665f
    2566:	0031                	c.addi	zero,12
    2568:	4955                	li	s2,21
    256a:	544e                	lw	s0,240(sp)
    256c:	465f 5341 3354      	0x33545341465f
    2572:	5f32                	lw	t5,44(sp)
    2574:	414d                	li	sp,19
    2576:	2058                	fld	fa4,128(s0)
    2578:	5f28                	lw	a0,120(a4)
    257a:	555f 4e49 5f54      	0x5f544e49555f
    2580:	4146                	lw	sp,80(sp)
    2582:	32335453          	0x32335453
    2586:	4d5f 5841 5f5f      	0x5f5f58414d5f
    258c:	0029                	c.addi	zero,10
    258e:	5f5f 6f6c 6b63      	0x6b636f6c5f5f
    2594:	745f 7972 615f      	0x615f7972745f
    259a:	69757163          	bleu	s7,a0,2c1c <_data-0x1d3e4>
    259e:	6572                	flw	fa0,28(sp)
    25a0:	6c28                	flw	fa0,88(s0)
    25a2:	296b636f          	jal	t1,b8838 <__global_pointer$+0x97808>
    25a6:	2820                	fld	fs0,80(s0)
    25a8:	435f 5341 5f54      	0x5f545341435f
    25ae:	4f56                	lw	t5,84(sp)
    25b0:	4449                	li	s0,18
    25b2:	3020                	fld	fs0,96(s0)
    25b4:	0029                	c.addi	zero,10
    25b6:	535f 5f43 5f32      	0x5f325f43535f
    25bc:	49425f43          	fmadd.s	ft10,ft4,fs4,fs1,unknown
    25c0:	444e                	lw	s0,208(sp)
    25c2:	3120                	fld	fs0,96(a0)
    25c4:	3830                	fld	fa2,112(s0)
    25c6:	5f00                	lw	s0,56(a4)
    25c8:	5f434347          	fmsub.q	ft6,ft6,fs4,fa1,rmm
    25cc:	50415257          	0x50415257
    25d0:	535f 4454 4e49      	0x4e494454535f
    25d6:	5f54                	lw	a3,60(a4)
    25d8:	2048                	fld	fa0,128(s0)
    25da:	5f00                	lw	s0,56(a4)
    25dc:	495f 544e 3233      	0x3233544e495f
    25e2:	435f 6328 2029      	0x20296328435f
    25e8:	23232063          	0x23232063
    25ec:	4c20                	lw	s0,88(s0)
    25ee:	5500                	lw	s0,40(a0)
    25f0:	4e49                	li	t3,18
    25f2:	3154                	fld	fa3,160(a0)
    25f4:	5f36                	lw	t5,108(sp)
    25f6:	29782843          	fmadd.s	fa6,fa6,fs7,ft5,rdn
    25fa:	5f20                	lw	s0,120(a4)
    25fc:	555f 4e49 3154      	0x31544e49555f
    2602:	5f36                	lw	t5,108(sp)
    2604:	29782843          	fmadd.s	fa6,fa6,fs7,ft5,rdn
    2608:	5f00                	lw	s0,56(a4)
    260a:	535f4353          	0x535f4353
    260e:	5254                	lw	a3,36(a2)
    2610:	4145                	li	sp,17
    2612:	5f4d                	li	t5,-13
    2614:	414d                	li	sp,19
    2616:	2058                	fld	fa4,128(s0)
    2618:	3031                	jal	1e24 <_data-0x1e1dc>
    261a:	0030                	addi	a2,sp,8
    261c:	5f5f 6577 6b61      	0x6b6165775f5f
    2622:	735f 6d79 6f62      	0x6f626d79735f
    2628:	206c                	fld	fa1,192(s0)
    262a:	5f5f 7461 7274      	0x727474615f5f
    2630:	6269                	lui	tp,0x1a
    2632:	7475                	lui	s0,0xffffd
    2634:	5f65                	li	t5,-7
    2636:	285f 5f28 775f      	0x775f5f28285f
    263c:	6165                	addi	sp,sp,112
    263e:	295f5f6b          	0x295f5f6b
    2642:	0029                	c.addi	zero,10
    2644:	5f5f 7375 6465      	0x646573755f5f
    264a:	5f20                	lw	s0,120(a4)
    264c:	615f 7474 6972      	0x69727474615f
    2652:	7562                	flw	fa0,56(sp)
    2654:	6574                	flw	fa3,76(a0)
    2656:	5f5f 2828 5f5f      	0x5f5f28285f5f
    265c:	7375                	lui	t1,0xffffd
    265e:	6465                	lui	s0,0x19
    2660:	5f5f 2929 5f00      	0x5f0029295f5f
    2666:	4c5f4353          	0x4c5f4353
    266a:	5645                	li	a2,-15
    266c:	4c45                	li	s8,17
    266e:	41435f33          	sra	t5,t1,s4
    2672:	5f454843          	fmadd.q	fa6,fa0,fs4,fa1,rmm
    2676:	455a4953          	0x455a4953
    267a:	3120                	fld	fs0,96(a0)
    267c:	5f003433          	0x5f003433
    2680:	4552                	lw	a0,20(sp)
    2682:	4e45                	li	t3,17
    2684:	5f54                	lw	a3,60(a4)
    2686:	4d45                	li	s10,17
    2688:	5245                	li	tp,-15
    268a:	434e4547          	fmsub.d	fa0,ft8,fs4,fs0,rmm
    268e:	2859                	jal	2724 <_data-0x1d8dc>
    2690:	7470                	flw	fa2,108(s0)
    2692:	2972                	fld	fs2,280(sp)
    2694:	2820                	fld	fs0,80(s0)
    2696:	7028                	flw	fa0,96(s0)
    2698:	7274                	flw	fa3,100(a2)
    269a:	2d29                	jal	2cb4 <_data-0x1d34c>
    269c:	5f3e                	lw	t5,236(sp)
    269e:	6d65                	lui	s10,0x19
    26a0:	7265                	lui	tp,0xffff9
    26a2:	636e6567          	0x636e6567
    26a6:	2979                	jal	2b44 <_data-0x1d4bc>
    26a8:	5f00                	lw	s0,56(a4)
    26aa:	475f 554e 4c43      	0x4c43554e475f
    26b0:	4b49                	li	s6,18
    26b2:	5f45                	li	t5,-15
    26b4:	524f5443          	fmadd.d	fs0,ft10,ft4,fa0,unknown
    26b8:	535f 4345 4954      	0x49544345535f
    26be:	485f4e4f          	fnmadd.s	ft8,ft10,ft5,fs1,rmm
    26c2:	4e41                	li	t3,16
    26c4:	4c44                	lw	s1,28(s0)
    26c6:	4e49                	li	t3,18
    26c8:	00312047          	fmsub.s	ft0,ft2,ft3,ft0,rdn
    26cc:	5f5f 4955 544e      	0x544e49555f5f
    26d2:	5f38                	lw	a4,120(a4)
    26d4:	414d                	li	sp,19
    26d6:	5f58                	lw	a4,60(a4)
    26d8:	205f 7830 6666      	0x66667830205f
    26de:	5f00                	lw	s0,56(a4)
    26e0:	5f5f 6e69 3174      	0x31746e695f5f
    26e6:	5f36                	lw	t5,108(sp)
    26e8:	5f74                	lw	a3,124(a4)
    26ea:	6564                	flw	fs1,76(a0)
    26ec:	6966                	flw	fs2,88(sp)
    26ee:	656e                	flw	fa0,216(sp)
    26f0:	2064                	fld	fs1,192(s0)
    26f2:	0031                	c.addi	zero,12
    26f4:	5f5f 4c46 5f54      	0x5f544c465f5f
    26fa:	5045                	0x5045
    26fc:	4f4c4953          	0x4f4c4953
    2700:	5f4e                	lw	t5,240(sp)
    2702:	205f 2e31 3931      	0x39312e31205f
    2708:	3032                	fld	ft0,296(sp)
    270a:	3239                	jal	2018 <_data-0x1dfe8>
    270c:	3938                	fld	fa4,112(a0)
    270e:	3535                	jal	253a <_data-0x1dac6>
    2710:	3730                	fld	fa2,104(a4)
    2712:	3138                	fld	fa4,96(a0)
    2714:	3532                	fld	fa0,296(sp)
    2716:	3030                	fld	fa2,96(s0)
    2718:	3030                	fld	fa2,96(s0)
    271a:	3030                	fld	fa2,96(s0)
    271c:	3030                	fld	fa2,96(s0)
    271e:	3030                	fld	fa2,96(s0)
    2720:	3030                	fld	fa2,96(s0)
    2722:	3030                	fld	fa2,96(s0)
    2724:	3030                	fld	fa2,96(s0)
    2726:	3030                	fld	fa2,96(s0)
    2728:	6530                	flw	fa2,72(a0)
    272a:	372d                	jal	2654 <_data-0x1d9ac>
    272c:	0046                	0x46
    272e:	525f 4545 544e      	0x544e4545525f
    2734:	5f20                	lw	s0,120(a4)
    2736:	6d69                	lui	s10,0x1a
    2738:	7570                	flw	fa2,108(a0)
    273a:	6572                	flw	fa0,28(sp)
    273c:	705f 7274 5f00      	0x5f007274705f
    2742:	685f 7361 665f      	0x665f7361685f
    2748:	6165                	addi	sp,sp,112
    274a:	7574                	flw	fa3,108(a0)
    274c:	6572                	flw	fa0,28(sp)
    274e:	7828                	flw	fa0,112(s0)
    2750:	2029                	jal	275a <_data-0x1d8a6>
    2752:	0030                	addi	a2,sp,8
    2754:	535f 5f43 4153      	0x41535f43535f
    275a:	4556                	lw	a0,84(sp)
    275c:	5f44                	lw	s1,60(a4)
    275e:	4449                	li	s0,18
    2760:	00362053          	fadd.s	ft0,fa2,ft3,rdn
    2764:	735f 6474 6e69      	0x6e696474735f
    276a:	5f00                	lw	s0,56(a4)
    276c:	655f 7078 726f      	0x726f7078655f
    2772:	6574                	flw	fa3,76(a0)
    2774:	2064                	fld	fs1,192(s0)
    2776:	5f5f 7461 7274      	0x727474615f5f
    277c:	6269                	lui	tp,0x1a
    277e:	7475                	lui	s0,0xffffd
    2780:	5f65                	li	t5,-7
    2782:	285f 5f28 765f      	0x765f5f28285f
    2788:	7369                	lui	t1,0xffffa
    278a:	6269                	lui	tp,0x1a
    278c:	6c69                	lui	s8,0x1a
    278e:	7469                	lui	s0,0xffffa
    2790:	5f79                	li	t5,-2
    2792:	285f 6422 6665      	0x66656422285f
    2798:	7561                	lui	a0,0xffff8
    279a:	746c                	flw	fa1,108(s0)
    279c:	2922                	fld	fs2,8(sp)
    279e:	2929                	jal	2bb8 <_data-0x1d448>
    27a0:	5f00                	lw	s0,56(a4)
    27a2:	535f 4343 4953      	0x49534343535f
    27a8:	2844                	fld	fs1,144(s0)
    27aa:	73202973          	csrr	s2,0x732
    27ae:	7274                	flw	fa3,100(a2)
    27b0:	6375                	lui	t1,0x1d
    27b2:	2074                	fld	fa3,192(s0)
    27b4:	5f5f 6168 6b63      	0x6b6361685f5f
    27ba:	5f00                	lw	s0,56(a4)
    27bc:	445f 4c42 485f      	0x485f4c42445f
    27c2:	5341                	li	t1,-16
    27c4:	445f 4e45 524f      	0x524f4e45445f
    27ca:	5f4d                	li	t5,-13
    27cc:	205f 0031 5f5f      	0x5f5f0031205f
    27d2:	657a6973          	csrrsi	s2,0x657,20
    27d6:	745f 5f5f 0020      	0x205f5f745f
    27dc:	4e49                	li	t3,18
    27de:	3654                	fld	fa3,168(a2)
    27e0:	5f34                	lw	a3,120(a4)
    27e2:	494d                	li	s2,19
    27e4:	204e                	fld	ft0,208(sp)
    27e6:	2d28                	fld	fa0,88(a0)
    27e8:	5f5f 4e49 3654      	0x36544e495f5f
    27ee:	5f34                	lw	a3,120(a4)
    27f0:	414d                	li	sp,19
    27f2:	5f58                	lw	a4,60(a4)
    27f4:	205f 202d 2931      	0x2931202d205f
    27fa:	5f00                	lw	s0,56(a4)
    27fc:	424d                	li	tp,19
    27fe:	4c5f 4e45 4d5f      	0x4d5f4e454c5f
    2804:	5841                	li	a6,-16
    2806:	3120                	fld	fs0,96(a0)
    2808:	5f00                	lw	s0,56(a4)
    280a:	696e                	flw	fs2,216(sp)
    280c:	0073626f          	jal	tp,39012 <__global_pointer$+0x17fe2>
    2810:	4e49                	li	t3,18
    2812:	3354                	fld	fa3,160(a4)
    2814:	5f32                	lw	t5,44(sp)
    2816:	414d                	li	sp,19
    2818:	2058                	fld	fa4,128(s0)
    281a:	5f28                	lw	a0,120(a4)
    281c:	495f 544e 3233      	0x3233544e495f
    2822:	4d5f 5841 5f5f      	0x5f5f58414d5f
    2828:	0029                	c.addi	zero,10
    282a:	5f5f 5847 5f58      	0x5f5858475f5f
    2830:	4241                	li	tp,16
    2832:	5f49                	li	t5,-14
    2834:	4556                	lw	a0,84(sp)
    2836:	5352                	lw	t1,52(sp)
    2838:	4f49                	li	t5,18
    283a:	204e                	fld	ft0,208(sp)
    283c:	3031                	jal	2048 <_data-0x1dfb8>
    283e:	3131                	jal	244a <_data-0x1dbb6>
    2840:	5f00                	lw	s0,56(a4)
    2842:	495f 544e 4c5f      	0x4c5f544e495f
    2848:	4145                	li	sp,17
    284a:	36315453          	0x36315453
    284e:	4d5f 5841 5f5f      	0x5f5f58414d5f
    2854:	3020                	fld	fs0,96(s0)
    2856:	3778                	fld	fa4,232(a4)
    2858:	6666                	flw	fa2,88(sp)
    285a:	0066                	0x66
    285c:	535f 4749 454e      	0x454e4749535f
    2862:	2044                	fld	fs1,128(s0)
    2864:	6e676973          	csrrsi	s2,0x6e6,14
    2868:	6465                	lui	s0,0x19
    286a:	4600                	lw	s0,8(a2)
    286c:	5f44                	lw	s1,60(a4)
    286e:	28544553          	0x28544553
    2872:	2c6e                	fld	fs8,216(sp)
    2874:	2970                	fld	fa2,208(a0)
    2876:	2820                	fld	fs0,80(s0)
    2878:	7028                	flw	fa0,96(s0)
    287a:	2d29                	jal	2e94 <_data-0x1d16c>
    287c:	663e                	flw	fa2,204(sp)
    287e:	7364                	flw	fs1,100(a4)
    2880:	625f 7469 5b73      	0x5b737469625f
    2886:	6e28                	flw	fa0,88(a2)
    2888:	2f29                	jal	2fa2 <_data-0x1d05e>
    288a:	464e                	lw	a2,208(sp)
    288c:	4244                	lw	s1,4(a2)
    288e:	5449                	li	s0,-14
    2890:	7c205d53          	0x7c205d53
    2894:	203d                	jal	28c2 <_data-0x1d73e>
    2896:	3128                	fld	fa0,96(a0)
    2898:	204c                	fld	fa1,128(s0)
    289a:	3c3c                	fld	fa5,120(s0)
    289c:	2820                	fld	fs0,80(s0)
    289e:	6e28                	flw	fa0,88(a2)
    28a0:	2029                	jal	28aa <_data-0x1d756>
    28a2:	2025                	jal	28ca <_data-0x1d736>
    28a4:	464e                	lw	a2,208(sp)
    28a6:	4244                	lw	s1,4(a2)
    28a8:	5449                	li	s0,-14
    28aa:	29292953          	0x29292953
    28ae:	5f00                	lw	s0,56(a4)
    28b0:	465f 544c 3231      	0x3231544c465f
    28b6:	5f38                	lw	a4,120(a4)
    28b8:	414d                	li	sp,19
    28ba:	5f58                	lw	a4,60(a4)
    28bc:	5845                	li	a6,-15
    28be:	5f50                	lw	a2,60(a4)
    28c0:	205f 3631 3833      	0x38333631205f
    28c6:	0034                	addi	a3,sp,8
    28c8:	5f5f 454c 5341      	0x5341454c5f5f
    28ce:	3854                	fld	fa3,176(s0)
    28d0:	2220                	fld	fs0,64(a2)
    28d2:	6868                	flw	fa0,84(s0)
    28d4:	0022                	0x22
    28d6:	4955                	li	s2,21
    28d8:	544e                	lw	s0,240(sp)
    28da:	465f 5341 3154      	0x31545341465f
    28e0:	5f36                	lw	t5,108(sp)
    28e2:	414d                	li	sp,19
    28e4:	2058                	fld	fa4,128(s0)
    28e6:	5f28                	lw	a0,120(a4)
    28e8:	555f 4e49 5f54      	0x5f544e49555f
    28ee:	4146                	lw	sp,80(sp)
    28f0:	36315453          	0x36315453
    28f4:	4d5f 5841 5f5f      	0x5f5f58414d5f
    28fa:	0029                	c.addi	zero,10
    28fc:	5f46                	lw	t5,112(sp)
    28fe:	4c54                	lw	a3,28(s0)
    2900:	204b434f          	fnmadd.s	ft6,fs6,ft4,ft4,rmm
    2904:	0032                	0x32
    2906:	5f5f 6572 7574      	0x757465725f5f
    290c:	6e72                	flw	ft8,28(sp)
    290e:	77745f73          	csrrwi	t5,0x777,8
    2912:	6369                	lui	t1,0x1a
    2914:	2065                	jal	29bc <_data-0x1d644>
    2916:	5f5f 7461 7274      	0x727474615f5f
    291c:	6269                	lui	tp,0x1a
    291e:	7475                	lui	s0,0xffffd
    2920:	5f65                	li	t5,-7
    2922:	285f 5f28 725f      	0x725f5f28285f
    2928:	7465                	lui	s0,0xffff9
    292a:	7275                	lui	tp,0xffffd
    292c:	736e                	flw	ft6,248(sp)
    292e:	745f 6977 6563      	0x65636977745f
    2934:	5f5f 2929 5f00      	0x5f0029295f5f
    293a:	625f 7773 7061      	0x70617773625f
    2940:	5f283233          	0x5f283233
    2944:	2978                	fld	fa4,208(a0)
    2946:	5f20                	lw	s0,120(a4)
    2948:	625f 6975 746c      	0x746c6975625f
    294e:	6e69                	lui	t3,0x1a
    2950:	625f 7773 7061      	0x70617773625f
    2956:	5f283233          	0x5f283233
    295a:	2978                	fld	fa4,208(a0)
    295c:	5f00                	lw	s0,56(a4)
    295e:	725f 7165 6975      	0x69757165725f
    2964:	6572                	flw	fa0,28(sp)
    2966:	68735f73          	csrrwi	t5,0x687,6
    296a:	7261                	lui	tp,0xffff8
    296c:	6465                	lui	s0,0x19
    296e:	2e28                	fld	fa0,88(a2)
    2970:	2e2e                	fld	ft8,200(sp)
    2972:	2029                	jal	297c <_data-0x1d684>
    2974:	5f5f 6f6c 6b63      	0x6b636f6c5f5f
    297a:	615f 6e6e 746f      	0x746f6e6e615f
    2980:	7461                	lui	s0,0xffff8
    2982:	2865                	jal	2a3a <_data-0x1d5c6>
    2984:	72616873          	csrrsi	a6,0x726,2
    2988:	6465                	lui	s0,0x19
    298a:	6c5f 636f 736b      	0x736b636f6c5f
    2990:	725f 7165 6975      	0x69757165725f
    2996:	6572                	flw	fa0,28(sp)
    2998:	2864                	fld	fs1,208(s0)
    299a:	5f5f 4156 415f      	0x415f41565f5f
    29a0:	4752                	lw	a4,20(sp)
    29a2:	295f5f53          	0x295f5f53
    29a6:	0029                	c.addi	zero,10
    29a8:	455f 444e 535f      	0x535f444e455f
    29ae:	4454                	lw	a3,12(s0)
    29b0:	435f 0020 5f5f      	0x5f5f0020435f
    29b6:	34364c53          	0x34364c53
    29ba:	3020                	fld	fs0,96(s0)
    29bc:	3878                	fld	fa4,240(s0)
    29be:	3030                	fld	fa2,96(s0)
    29c0:	0030                	addi	a2,sp,8
    29c2:	5f5f 6168 5f73      	0x5f7361685f5f
    29c8:	6e69                	lui	t3,0x1a
    29ca:	64756c63          	bltu	a0,t2,3022 <_data-0x1cfde>
    29ce:	5f65                	li	t5,-7
    29d0:	656e                	flw	fa0,216(sp)
    29d2:	7478                	flw	fa4,108(s0)
    29d4:	5328                	lw	a0,96(a4)
    29d6:	5254                	lw	a3,36(a2)
    29d8:	2029                	jal	29e2 <_data-0x1d61e>
    29da:	5f5f 6168 5f73      	0x5f7361685f5f
    29e0:	6e69                	lui	t3,0x1a
    29e2:	64756c63          	bltu	a0,t2,303a <_data-0x1cfc6>
    29e6:	5f65                	li	t5,-7
    29e8:	656e                	flw	fa0,216(sp)
    29ea:	7478                	flw	fa4,108(s0)
    29ec:	5f5f 5328 5254      	0x525453285f5f
    29f2:	0029                	c.addi	zero,10
    29f4:	535f 5359 545f      	0x545f5359535f
    29fa:	5059                	0x5059
    29fc:	5345                	li	t1,-15
    29fe:	485f 0020 4955      	0x49550020485f
    2a04:	544e                	lw	s0,240(sp)
    2a06:	4c5f 4145 5453      	0x545341454c5f
    2a0c:	3631                	jal	2518 <_data-0x1dae8>
    2a0e:	4d5f 5841 2820      	0x282058414d5f
    2a14:	5f5f 4955 544e      	0x544e49555f5f
    2a1a:	4c5f 4145 5453      	0x545341454c5f
    2a20:	3631                	jal	252c <_data-0x1dad4>
    2a22:	4d5f 5841 5f5f      	0x5f5f58414d5f
    2a28:	0029                	c.addi	zero,10
    2a2a:	5f5f 4955 544e      	0x544e49555f5f
    2a30:	435f3233          	0x435f3233
    2a34:	6328                	flw	fa0,64(a4)
    2a36:	2029                	jal	2a40 <_data-0x1d5c0>
    2a38:	23232063          	0x23232063
    2a3c:	5520                	lw	s0,104(a0)
    2a3e:	004c                	addi	a1,sp,4
    2a40:	5f5f 5253 2057      	0x205752535f5f
    2a46:	7830                	flw	fa2,112(s0)
    2a48:	3030                	fld	fa2,96(s0)
    2a4a:	3031                	jal	2256 <_data-0x1ddaa>
    2a4c:	5f00                	lw	s0,56(a4)
    2a4e:	455f4353          	0x455f4353
    2a52:	5058                	lw	a4,36(s0)
    2a54:	5f52                	lw	t5,52(sp)
    2a56:	454e                	lw	a0,208(sp)
    2a58:	4d5f5453          	0x4d5f5453
    2a5c:	5841                	li	a6,-16
    2a5e:	3620                	fld	fs0,104(a2)
    2a60:	0034                	addi	a3,sp,8
    2a62:	4955                	li	s2,21
    2a64:	544e                	lw	s0,240(sp)
    2a66:	5f38                	lw	a4,120(a4)
    2a68:	29782843          	fmadd.s	fa6,fa6,fs7,ft5,rdn
    2a6c:	5f20                	lw	s0,120(a4)
    2a6e:	555f 4e49 3854      	0x38544e49555f
    2a74:	435f 7828 0029      	0x297828435f
    2a7a:	7274706f          	j	4a9a0 <__global_pointer$+0x29970>
    2a7e:	7365                	lui	t1,0xffff9
    2a80:	7465                	lui	s0,0xffff9
    2a82:	5f00                	lw	s0,56(a4)
    2a84:	4954                	lw	a3,20(a0)
    2a86:	454d                	li	a0,19
    2a88:	4156                	lw	sp,84(sp)
    2a8a:	5f4c                	lw	a1,60(a4)
    2a8c:	4544                	lw	s1,12(a0)
    2a8e:	4946                	lw	s2,80(sp)
    2a90:	454e                	lw	a0,208(sp)
    2a92:	2044                	fld	fs1,128(s0)
    2a94:	5f00                	lw	s0,56(a4)
    2a96:	545f4353          	0x545f4353
    2a9a:	4152                	lw	sp,20(sp)
    2a9c:	455f4543          	0x455f4543
    2aa0:	4556                	lw	a0,84(sp)
    2aa2:	544e                	lw	s0,240(sp)
    2aa4:	4e5f 4d41 5f45      	0x5f454d414e5f
    2aaa:	414d                	li	sp,19
    2aac:	2058                	fld	fa4,128(s0)
    2aae:	3538                	fld	fa4,104(a0)
    2ab0:	5f00                	lw	s0,56(a4)
    2ab2:	615f 7474 6972      	0x69727474615f
    2ab8:	7562                	flw	fa0,56(sp)
    2aba:	6574                	flw	fa3,76(a0)
    2abc:	705f 7275 5f65      	0x5f657275705f
    2ac2:	205f 5f00 4957      	0x49575f00205f
    2ac8:	4544                	lw	s1,12(a0)
    2aca:	4f5f 4952 4e45      	0x4e4549524f5f
    2ad0:	2054                	fld	fa3,128(s0)
    2ad2:	0031                	c.addi	zero,12
    2ad4:	6566                	flw	fa0,88(sp)
    2ad6:	7028666f          	jal	a2,891d8 <__global_pointer$+0x681a8>
    2ada:	2029                	jal	2ae4 <_data-0x1d51c>
    2adc:	5f5f 6673 6f65      	0x6f6566735f5f
    2ae2:	2866                	fld	fa6,88(sp)
    2ae4:	2970                	fld	fa2,208(a0)
    2ae6:	5f00                	lw	s0,56(a4)
    2ae8:	4c5f4353          	0x4c5f4353
    2aec:	5645                	li	a2,-15
    2aee:	4c45                	li	s8,17
    2af0:	5f32                	lw	t5,44(sp)
    2af2:	48434143          	fmadd.s	ft2,ft6,ft4,fs1,rmm
    2af6:	5f45                	li	t5,-15
    2af8:	455a4953          	0x455a4953
    2afc:	3120                	fld	fs0,96(a0)
    2afe:	5f003133          	0x5f003133
    2b02:	6c5f 636f 5f6b      	0x5f6b636f6c5f
    2b08:	736f6c63          	bltu	t5,s6,3240 <_data-0x1cdc0>
    2b0c:	2865                	jal	2bc4 <_data-0x1d43c>
    2b0e:	6f6c                	flw	fa1,92(a4)
    2b10:	20296b63          	bltu	s2,sp,2d26 <_data-0x1d2da>
    2b14:	5f28                	lw	a0,120(a4)
    2b16:	54534143          	0x54534143
    2b1a:	565f 494f 2044      	0x2044494f565f
    2b20:	2930                	fld	fa2,80(a0)
    2b22:	5f00                	lw	s0,56(a4)
    2b24:	475f 554e 4c43      	0x4c43554e475f
    2b2a:	4b49                	li	s6,18
    2b2c:	5f45                	li	t5,-15
    2b2e:	5542                	lw	a0,48(sp)
    2b30:	4c49                	li	s8,18
    2b32:	4954                	lw	a3,20(a0)
    2b34:	5f4e                	lw	t5,240(sp)
    2b36:	4156                	lw	sp,84(sp)
    2b38:	4152                	lw	sp,20(sp)
    2b3a:	4752                	lw	a4,20(sp)
    2b3c:	00312053          	fadd.s	ft0,ft2,ft3,rdn
    2b40:	4e49                	li	t3,18
    2b42:	5f54                	lw	a3,60(a4)
    2b44:	454c                	lw	a1,12(a0)
    2b46:	5341                	li	t1,-16
    2b48:	3354                	fld	fa3,160(a4)
    2b4a:	5f32                	lw	t5,44(sp)
    2b4c:	414d                	li	sp,19
    2b4e:	2058                	fld	fa4,128(s0)
    2b50:	5f28                	lw	a0,120(a4)
    2b52:	495f 544e 4c5f      	0x4c5f544e495f
    2b58:	4145                	li	sp,17
    2b5a:	32335453          	0x32335453
    2b5e:	4d5f 5841 5f5f      	0x5f5f58414d5f
    2b64:	0029                	c.addi	zero,10
    2b66:	525f 4545 544e      	0x544e4545525f
    2b6c:	535f 4749 474e      	0x474e4749535f
    2b72:	4d41                	li	s10,16
    2b74:	7028                	flw	fa0,96(s0)
    2b76:	7274                	flw	fa3,100(a2)
    2b78:	2029                	jal	2b82 <_data-0x1d47e>
    2b7a:	2828                	fld	fa0,80(s0)
    2b7c:	7470                	flw	fa2,108(s0)
    2b7e:	2972                	fld	fs2,280(sp)
    2b80:	3e2d                	jal	26ba <_data-0x1d946>
    2b82:	6e5f 7765 5f2e      	0x5f2e77656e5f
    2b88:	6572                	flw	fa0,28(sp)
    2b8a:	6e65                	lui	t3,0x19
    2b8c:	2e74                	fld	fa3,216(a2)
    2b8e:	675f 6d61 616d      	0x616d6d61675f
    2b94:	735f 6769 676e      	0x676e6769735f
    2b9a:	6d61                	lui	s10,0x18
    2b9c:	0029                	c.addi	zero,10
    2b9e:	5f5f 4347 5f43      	0x5f4343475f5f
    2ba4:	5441                	li	s0,-16
    2ba6:	43494d4f          	fnmadd.d	fs10,fs2,fs4,fs0,rmm
    2baa:	535f 4f48 5452      	0x54524f48535f
    2bb0:	4c5f 434f 5f4b      	0x5f4b434f4c5f
    2bb6:	5246                	lw	tp,112(sp)
    2bb8:	4545                	li	a0,17
    2bba:	3120                	fld	fs0,96(a0)
    2bbc:	5f00                	lw	s0,56(a4)
    2bbe:	325f4353          	0x325f4353
    2bc2:	505f 5342 545f      	0x545f5342505f
    2bc8:	4152                	lw	sp,20(sp)
    2bca:	31204b43          	fmadd.s	fs6,ft0,fs2,ft6,rmm
    2bce:	3831                	jal	23ea <_data-0x1dc16>
    2bd0:	5f00                	lw	s0,56(a4)
    2bd2:	5f535953          	0x5f535953
    2bd6:	545f 4d49 5645      	0x56454d49545f
    2bdc:	4c41                	li	s8,16
    2bde:	485f 205f 4900      	0x4900205f485f
    2be4:	544e                	lw	s0,240(sp)
    2be6:	4c5f 4145 5453      	0x545341454c5f
    2bec:	3631                	jal	26f8 <_data-0x1d908>
    2bee:	4d5f 4e49 2820      	0x28204e494d5f
    2bf4:	5f2d                	li	t5,-21
    2bf6:	495f 544e 4c5f      	0x4c5f544e495f
    2bfc:	4145                	li	sp,17
    2bfe:	36315453          	0x36315453
    2c02:	4d5f 5841 5f5f      	0x5f5f58414d5f
    2c08:	2d20                	fld	fs0,88(a0)
    2c0a:	3120                	fld	fs0,96(a0)
    2c0c:	0029                	c.addi	zero,10
    2c0e:	5f5f 4347 5f43      	0x5f4343475f5f
    2c14:	5441                	li	s0,-16
    2c16:	43494d4f          	fnmadd.d	fs10,fs2,fs4,fs0,rmm
    2c1a:	545f 5345 5f54      	0x5f545345545f
    2c20:	4e41                	li	t3,16
    2c22:	5f44                	lw	s1,60(a4)
    2c24:	5f544553          	0x5f544553
    2c28:	5254                	lw	a3,36(a2)
    2c2a:	4555                	li	a0,21
    2c2c:	4156                	lw	sp,84(sp)
    2c2e:	204c                	fld	fa1,128(s0)
    2c30:	0031                	c.addi	zero,12
    2c32:	535f 5f43 454c      	0x454c5f43535f
    2c38:	4556                	lw	a0,84(sp)
    2c3a:	314c                	fld	fa1,160(a0)
    2c3c:	495f 4143 4843      	0x48434143495f
    2c42:	5f45                	li	t5,-15
    2c44:	455a4953          	0x455a4953
    2c48:	3120                	fld	fs0,96(a0)
    2c4a:	3532                	fld	fa0,296(sp)
    2c4c:	5f00                	lw	s0,56(a4)
    2c4e:	635f 6461 7264      	0x72646461635f
    2c54:	745f 645f 6665      	0x6665645f745f
    2c5a:	6e69                	lui	t3,0x1a
    2c5c:	6465                	lui	s0,0x19
    2c5e:	0020                	addi	s0,sp,8
    2c60:	535f 5359 5f5f      	0x5f5f5359535f
    2c66:	5954                	lw	a3,52(a0)
    2c68:	4550                	lw	a2,12(a0)
    2c6a:	20485f53          	0x20485f53
    2c6e:	5f00                	lw	s0,56(a4)
    2c70:	4156                	lw	sp,84(sp)
    2c72:	4c5f 5349 5f54      	0x5f5453494c5f
    2c78:	4544                	lw	s1,12(a0)
    2c7a:	4946                	lw	s2,80(sp)
    2c7c:	454e                	lw	a0,208(sp)
    2c7e:	2044                	fld	fs1,128(s0)
    2c80:	5f00                	lw	s0,56(a4)
    2c82:	545f4353          	0x545f4353
    2c86:	5248                	lw	a0,36(a2)
    2c88:	4145                	li	sp,17
    2c8a:	5f44                	lw	s1,60(a4)
    2c8c:	43415453          	0x43415453
    2c90:	494d5f4b          	fnmsub.s	ft10,fs10,fs4,fs1,unknown
    2c94:	204e                	fld	ft0,208(sp)
    2c96:	5f003933          	0x5f003933
    2c9a:	575f 4843 5241      	0x52414843575f
    2ca0:	4d5f 4e49 5f5f      	0x5f5f4e494d5f
    2ca6:	2820                	fld	fs0,80(s0)
    2ca8:	5f2d                	li	t5,-21
    2caa:	575f 4843 5241      	0x52414843575f
    2cb0:	4d5f 5841 5f5f      	0x5f5f58414d5f
    2cb6:	2d20                	fld	fs0,88(a0)
    2cb8:	3120                	fld	fs0,96(a0)
    2cba:	0029                	c.addi	zero,10
    2cbc:	5f5f 4c46 3354      	0x33544c465f5f
    2cc2:	5f32                	lw	t5,44(sp)
    2cc4:	4148                	lw	a0,4(a0)
    2cc6:	55515f53          	0x55515f53
    2cca:	4549                	li	a0,18
    2ccc:	5f54                	lw	a3,60(a4)
    2cce:	414e                	lw	sp,208(sp)
    2cd0:	5f4e                	lw	t5,240(sp)
    2cd2:	205f 0031 535f      	0x535f0031205f
    2cd8:	48435f43          	fmadd.s	ft10,ft6,ft4,fs1,unknown
    2cdc:	4c49                	li	s8,18
    2cde:	5f44                	lw	s1,60(a4)
    2ce0:	414d                	li	sp,19
    2ce2:	2058                	fld	fa4,128(s0)
    2ce4:	0031                	c.addi	zero,12
    2ce6:	4e5f 5745 494c      	0x494c57454e5f
    2cec:	5f42                	lw	t5,48(sp)
    2cee:	4c41                	li	s8,16
    2cf0:	4f4c                	lw	a1,28(a4)
    2cf2:	485f4143          	fmadd.s	ft2,ft10,ft5,fs1,rmm
    2cf6:	0020                	addi	s0,sp,8
    2cf8:	5f5f 444c 4c42      	0x4c42444c5f5f
    2cfe:	485f 5341 495f      	0x495f5341485f
    2d04:	464e                	lw	a2,208(sp)
    2d06:	4e49                	li	t3,18
    2d08:	5449                	li	s0,-14
    2d0a:	5f59                	li	t5,-10
    2d0c:	205f 0031 535f      	0x535f0031205f
    2d12:	49535f43          	fmadd.s	ft10,ft6,fs5,fs1,unknown
    2d16:	45555147          	0x45555147
    2d1a:	4555                	li	a0,21
    2d1c:	4d5f 5841 3120      	0x312058414d5f
    2d22:	0038                	addi	a4,sp,8
    2d24:	4955                	li	s2,21
    2d26:	544e                	lw	s0,240(sp)
    2d28:	465f 5341 3654      	0x36545341465f
    2d2e:	5f34                	lw	a3,120(a4)
    2d30:	414d                	li	sp,19
    2d32:	2058                	fld	fa4,128(s0)
    2d34:	5f28                	lw	a0,120(a4)
    2d36:	555f 4e49 5f54      	0x5f544e49555f
    2d3c:	4146                	lw	sp,80(sp)
    2d3e:	34365453          	0x34365453
    2d42:	4d5f 5841 5f5f      	0x5f5f58414d5f
    2d48:	0029                	c.addi	zero,10
    2d4a:	5f5f 4544 3343      	0x334345445f5f
    2d50:	5f32                	lw	t5,44(sp)
    2d52:	414d                	li	sp,19
    2d54:	5f58                	lw	a4,60(a4)
    2d56:	205f 2e39 3939      	0x39392e39205f
    2d5c:	3939                	jal	297a <_data-0x1d686>
    2d5e:	3939                	jal	297c <_data-0x1d684>
    2d60:	3945                	jal	2a10 <_data-0x1d5f0>
    2d62:	4436                	lw	s0,76(sp)
    2d64:	0046                	0x46
    2d66:	5f5f 4c46 3354      	0x33544c465f5f
    2d6c:	5832                	lw	a6,44(sp)
    2d6e:	4d5f 5841 315f      	0x315f58414d5f
    2d74:	5f30                	lw	a2,120(a4)
    2d76:	5845                	li	a6,-15
    2d78:	5f50                	lw	a2,60(a4)
    2d7a:	205f 3033 0038      	0x383033205f
    2d80:	5f5f 4e47 4355      	0x43554e475f5f
    2d86:	565f 5f41 494c      	0x494c5f41565f
    2d8c:	00205453          	fadd.s	fs0,ft0,ft2,unknown
    2d90:	505f 5f43 4843      	0x48435f43505f
    2d96:	5f4e574f          	fnmadd.q	fa4,ft8,fs4,fa1,unknown
    2d9a:	4552                	lw	a0,20(sp)
    2d9c:	49525453          	0x49525453
    2da0:	44455443          	0x44455443
    2da4:	3620                	fld	fs0,104(a2)
    2da6:	5f00                	lw	s0,56(a4)
    2da8:	565f4353          	0x565f4353
    2dac:	504c5f37          	lui	t5,0x504c5
    2db0:	3436                	fld	fs0,360(sp)
    2db2:	4f5f 4646 3436      	0x343646464f5f
    2db8:	3920                	fld	fs0,112(a0)
    2dba:	0034                	addi	a3,sp,8
    2dbc:	5f5f 4e47 4355      	0x43554e475f5f
    2dc2:	494c                	lw	a1,20(a0)
    2dc4:	415f454b          	fnmsub.s	fa0,ft10,fs5,fs0,rmm
    2dc8:	33204d53          	0x33204d53
    2dcc:	5f00                	lw	s0,56(a4)
    2dce:	535f 4749 415f      	0x415f4749535f
    2dd4:	4f54                	lw	a3,28(a4)
    2dd6:	494d                	li	s2,19
    2dd8:	494d5f43          	fmadd.s	ft10,fs10,fs4,fs1,unknown
    2ddc:	5f4e                	lw	t5,240(sp)
    2dde:	205f 2d28 5f5f      	0x5f5f2d28205f
    2de4:	5f474953          	0x5f474953
    2de8:	5441                	li	s0,-16
    2dea:	43494d4f          	fnmadd.d	fs10,fs2,fs4,fs0,rmm
    2dee:	4d5f 5841 5f5f      	0x5f5f58414d5f
    2df4:	2d20                	fld	fs0,88(a0)
    2df6:	3120                	fld	fs0,96(a0)
    2df8:	0029                	c.addi	zero,10
    2dfa:	5f5f 6567 656e      	0x656e65675f5f
    2e00:	6972                	flw	fs2,28(sp)
    2e02:	78652863          	0x78652863
    2e06:	7270                	flw	fa2,100(a2)
    2e08:	742c                	flw	fa1,104(s0)
    2e0a:	792c                	flw	fa1,112(a0)
    2e0c:	7365                	lui	t1,0xffff9
    2e0e:	6e2c                	flw	fa1,88(a2)
    2e10:	5f20296f          	jal	s2,5402 <_data-0x1abfe>
    2e14:	656e6547          	0x656e6547
    2e18:	6972                	flw	fs2,28(sp)
    2e1a:	78652863          	0x78652863
    2e1e:	7270                	flw	fa2,100(a2)
    2e20:	202c                	fld	fa1,64(s0)
    2e22:	3a74                	fld	fa3,240(a2)
    2e24:	7920                	flw	fs0,112(a0)
    2e26:	7365                	lui	t1,0xffff9
    2e28:	202c                	fld	fa1,64(s0)
    2e2a:	6564                	flw	fs1,76(a0)
    2e2c:	6166                	flw	ft2,88(sp)
    2e2e:	6c75                	lui	s8,0x1d
    2e30:	3a74                	fld	fa3,240(a2)
    2e32:	6e20                	flw	fs0,88(a2)
    2e34:	5f00296f          	jal	s2,5424 <_data-0x1abdc>
    2e38:	425f4353          	0x425f4353
    2e3c:	41425f43          	fmadd.s	ft10,ft4,fs4,fs0,unknown
    2e40:	4d5f4553          	0x4d5f4553
    2e44:	5841                	li	a6,-16
    2e46:	3520                	fld	fs0,104(a0)
    2e48:	5f5f0037          	lui	zero,0x5f5f0
    2e4c:	4544                	lw	s1,12(a0)
    2e4e:	5f343643          	fmadd.q	fa2,fs0,fs3,fa1,rup
    2e52:	494d                	li	s2,19
    2e54:	5f4e                	lw	t5,240(sp)
    2e56:	5845                	li	a6,-15
    2e58:	5f50                	lw	a2,60(a4)
    2e5a:	205f 2d28 3833      	0x38332d28205f
    2e60:	2932                	fld	fs2,264(sp)
    2e62:	5f00                	lw	s0,56(a4)
    2e64:	5342                	lw	t1,48(sp)
    2e66:	5f44                	lw	s1,60(a4)
    2e68:	41484357          	0x41484357
    2e6c:	5f52                	lw	t5,52(sp)
    2e6e:	5f54                	lw	a3,60(a4)
    2e70:	0020                	addi	s0,sp,8
    2e72:	425f 4b4c 4953      	0x49534b4c425f
    2e78:	455a                	lw	a0,148(sp)
    2e7a:	545f 445f 4345      	0x4345445f545f
    2e80:	414c                	lw	a1,4(a0)
    2e82:	4552                	lw	a0,20(sp)
    2e84:	2044                	fld	fs1,128(s0)
    2e86:	4600                	lw	s0,8(a2)
    2e88:	555f 4f4c 4b43      	0x4b434f4c555f
    2e8e:	3020                	fld	fs0,96(s0)
    2e90:	5f00                	lw	s0,56(a4)
    2e92:	545f4353          	0x545f4353
    2e96:	5248                	lw	a0,36(a2)
    2e98:	4145                	li	sp,17
    2e9a:	5f44                	lw	s1,60(a4)
    2e9c:	5359454b          	fnmsub.d	fa0,fs2,fs5,fa0,rmm
    2ea0:	4d5f 5841 3320      	0x332058414d5f
    2ea6:	0038                	addi	a4,sp,8
    2ea8:	5f5f 4c46 3654      	0x36544c465f5f
    2eae:	5834                	lw	a3,112(s0)
    2eb0:	485f 5341 495f      	0x495f5341485f
    2eb6:	464e                	lw	a2,208(sp)
    2eb8:	4e49                	li	t3,18
    2eba:	5449                	li	s0,-14
    2ebc:	5f59                	li	t5,-10
    2ebe:	205f 0031 5f5f      	0x5f5f0031205f
    2ec4:	5046                	0x5046
    2ec6:	465f 5341 5f54      	0x5f545341465f
    2ecc:	4d46                	lw	s10,80(sp)
    2ece:	4641                	li	a2,16
    2ed0:	3120                	fld	fs0,96(a0)
    2ed2:	5300                	lw	s0,32(a4)
    2ed4:	4749                	li	a4,18
    2ed6:	415f 4f54 494d      	0x494d4f54415f
    2edc:	494d5f43          	fmadd.s	ft10,fs10,fs4,fs1,unknown
    2ee0:	204e                	fld	ft0,208(sp)
    2ee2:	2d28                	fld	fa0,88(a0)
    2ee4:	5f5f 5453 4944      	0x494454535f5f
    2eea:	544e                	lw	s0,240(sp)
    2eec:	455f 5058 4928      	0x49285058455f
    2ef2:	544e                	lw	s0,240(sp)
    2ef4:	4d5f 5841 2029      	0x202958414d5f
    2efa:	202d                	jal	2f24 <_data-0x1d0dc>
    2efc:	2931                	jal	3318 <_data-0x1cce8>
    2efe:	5f00                	lw	s0,56(a4)
    2f00:	6b6f6f63          	bltu	t5,s6,35be <_data-0x1ca42>
    2f04:	6569                	lui	a0,0x1a
    2f06:	5f00                	lw	s0,56(a4)
    2f08:	445f 4c42 4d5f      	0x4d5f4c42445f
    2f0e:	5841                	li	a6,-16
    2f10:	5f5f 2820 6428      	0x642828205f5f
    2f16:	6c62756f          	jal	a0,2a5dc <__global_pointer$+0x95ac>
    2f1a:	2965                	jal	33d2 <_data-0x1cc2e>
    2f1c:	2e31                	jal	3238 <_data-0x1cdc8>
    2f1e:	36373937          	lui	s2,0x36373
    2f22:	3339                	jal	2c30 <_data-0x1d3d0>
    2f24:	3331                	jal	2c30 <_data-0x1d3d0>
    2f26:	3834                	fld	fa3,112(s0)
    2f28:	3236                	fld	ft4,360(sp)
    2f2a:	37353133          	0x37353133
    2f2e:	3830                	fld	fa2,112(s0)
    2f30:	3431                	jal	293c <_data-0x1d6c4>
    2f32:	3235                	jal	285e <_data-0x1d7a2>
    2f34:	33323437          	lui	s0,0x33323
    2f38:	37313337          	lui	t1,0x37313
    2f3c:	3430                	fld	fa2,104(s0)
    2f3e:	65373533          	0x65373533
    2f42:	3830332b          	0x3830332b
    2f46:	294c                	fld	fa1,144(a0)
    2f48:	5f00                	lw	s0,56(a4)
    2f4a:	6c5f 636f 5f6b      	0x5f6b636f6c5f
    2f50:	6361                	lui	t1,0x18
    2f52:	7571                	lui	a0,0xffffc
    2f54:	7269                	lui	tp,0xffffa
    2f56:	5f65                	li	t5,-7
    2f58:	6572                	flw	fa0,28(sp)
    2f5a:	73727563          	bleu	s7,tp,3684 <_data-0x1c97c>
    2f5e:	7669                	lui	a2,0xffffa
    2f60:	2865                	jal	3018 <_data-0x1cfe8>
    2f62:	6f6c                	flw	fa1,92(a4)
    2f64:	20296b63          	bltu	s2,sp,317a <_data-0x1ce86>
    2f68:	5f28                	lw	a0,120(a4)
    2f6a:	54534143          	0x54534143
    2f6e:	565f 494f 2044      	0x2044494f565f
    2f74:	2930                	fld	fa2,80(a0)
    2f76:	5f00                	lw	s0,56(a4)
    2f78:	544e4157          	0x544e4157
    2f7c:	495f 5f4f 4f4c      	0x4f4c5f4f495f
    2f82:	474e                	lw	a4,208(sp)
    2f84:	445f 554f 4c42      	0x4c42554f445f
    2f8a:	2045                	jal	302a <_data-0x1cfd6>
    2f8c:	0031                	c.addi	zero,12
    2f8e:	535f 5f43 4f58      	0x4f585f43535f
    2f94:	4550                	lw	a2,12(a0)
    2f96:	5f4e                	lw	t5,240(sp)
    2f98:	4556                	lw	a0,84(sp)
    2f9a:	5352                	lw	t1,52(sp)
    2f9c:	4f49                	li	t5,18
    2f9e:	204e                	fld	ft0,208(sp)
    2fa0:	3031                	jal	27ac <_data-0x1d854>
    2fa2:	0036                	0x36
    2fa4:	465f 4253 4b4c      	0x4b4c4253465f
    2faa:	5f544e43          	fmadd.q	ft8,fs0,fs5,fa1,rmm
    2fae:	5f54                	lw	a3,60(a4)
    2fb0:	4544                	lw	s1,12(a0)
    2fb2:	52414c43          	fmadd.d	fs8,ft2,ft4,fa0,rmm
    2fb6:	4445                	li	s0,17
    2fb8:	0020                	addi	s0,sp,8
    2fba:	535f 5f43 5452      	0x54525f43535f
    2fc0:	5f474953          	0x5f474953
    2fc4:	414d                	li	sp,19
    2fc6:	2058                	fld	fa4,128(s0)
    2fc8:	3531                	jal	2dd4 <_data-0x1d22c>
    2fca:	5f00                	lw	s0,56(a4)
    2fcc:	00736477          	0x736477
    2fd0:	5f5f 4e49 5f54      	0x5f544e495f5f
    2fd6:	454c                	lw	a1,12(a0)
    2fd8:	5341                	li	t1,-16
    2fda:	3154                	fld	fa3,160(a0)
    2fdc:	5f36                	lw	t5,108(sp)
    2fde:	54444957          	0x54444957
    2fe2:	5f48                	lw	a0,60(a4)
    2fe4:	205f 3631 5f00      	0x5f003631205f
    2fea:	445f 4345 455f      	0x455f4345445f
    2ff0:	4156                	lw	sp,84(sp)
    2ff2:	5f4c                	lw	a1,60(a4)
    2ff4:	454d                	li	a0,19
    2ff6:	4854                	lw	a3,20(s0)
    2ff8:	5f5f444f          	fnmadd.q	fs0,ft10,fs5,fa1,rmm
    2ffc:	3220                	fld	fs0,96(a2)
    2ffe:	5f00                	lw	s0,56(a4)
    3000:	4350                	lw	a2,4(a4)
    3002:	545f 4d49 5345      	0x53454d49545f
    3008:	4154                	lw	a3,4(a0)
    300a:	504d                	0x504d
    300c:	525f 5345 4c4f      	0x4c4f5345525f
    3012:	5455                	li	s0,-11
    3014:	4f49                	li	t5,18
    3016:	204e                	fld	ft0,208(sp)
    3018:	3032                	fld	ft0,296(sp)
    301a:	5f00                	lw	s0,56(a4)
    301c:	565f4353          	0x565f4353
    3020:	5f36                	lw	t5,108(sp)
    3022:	504c                	lw	a1,36(s0)
    3024:	4942                	lw	s2,16(sp)
    3026:	464f5f47          	fmsub.q	ft10,ft10,ft4,fs0,unknown
    302a:	4246                	lw	tp,80(sp)
    302c:	4749                	li	a4,18
    302e:	5f20                	lw	s0,120(a4)
    3030:	565f4353          	0x565f4353
    3034:	504c5f37          	lui	t5,0x504c5
    3038:	4942                	lw	s2,16(sp)
    303a:	464f5f47          	fmsub.q	ft10,ft10,ft4,fs0,unknown
    303e:	4246                	lw	tp,80(sp)
    3040:	4749                	li	a4,18
    3042:	5f00                	lw	s0,56(a4)
    3044:	4350                	lw	a2,4(a4)
    3046:	505f 4952 5f4f      	0x5f4f4952505f
    304c:	4f49                	li	t5,18
    304e:	3120                	fld	fs0,96(a0)
    3050:	0030                	addi	a2,sp,8
    3052:	5f5f 6572 7473      	0x747365725f5f
    3058:	6972                	flw	fs2,28(sp)
    305a:	72207463          	bleu	sp,zero,3782 <_data-0x1c87e>
    305e:	7365                	lui	t1,0xffff9
    3060:	7274                	flw	fa3,100(a2)
    3062:	6369                	lui	t1,0x1a
    3064:	0074                	addi	a3,sp,12
    3066:	5f5f 4544 3643      	0x364345445f5f
    306c:	5f34                	lw	a3,120(a4)
    306e:	4e425553          	0x4e425553
    3072:	414d524f          	fnmadd.s	ft4,fs10,fs4,fs0,unknown
    3076:	5f4c                	lw	a1,60(a4)
    3078:	494d                	li	s2,19
    307a:	5f4e                	lw	t5,240(sp)
    307c:	205f 2e30 3030      	0x30302e30205f
    3082:	3030                	fld	fa2,96(s0)
    3084:	3030                	fld	fa2,96(s0)
    3086:	3030                	fld	fa2,96(s0)
    3088:	3030                	fld	fa2,96(s0)
    308a:	3030                	fld	fa2,96(s0)
    308c:	3030                	fld	fa2,96(s0)
    308e:	4531                	li	a0,12
    3090:	332d                	jal	2dba <_data-0x1d246>
    3092:	3338                	fld	fa4,96(a4)
    3094:	4444                	lw	s1,12(s0)
    3096:	4e00                	lw	s0,24(a2)
    3098:	4c55                	li	s8,21
    309a:	204c                	fld	fa1,128(s0)
    309c:	2828                	fld	fa0,80(s0)
    309e:	6f76                	flw	ft10,92(sp)
    30a0:	6469                	lui	s0,0x1a
    30a2:	2a20                	fld	fs0,80(a2)
    30a4:	3029                	jal	28ae <_data-0x1d752>
    30a6:	0029                	c.addi	zero,10
    30a8:	6166                	flw	ft2,88(sp)
    30aa:	705f7473          	csrrci	s0,0x705,30
    30ae:	7475                	lui	s0,0xffffd
    30b0:	2c782863          	0x2c782863
    30b4:	2970                	fld	fa2,208(a0)
    30b6:	2820                	fld	fs0,80(s0)
    30b8:	2d2d                	jal	36f2 <_data-0x1c90e>
    30ba:	7028                	flw	fa0,96(s0)
    30bc:	2d29                	jal	36d6 <_data-0x1c92a>
    30be:	5f3e                	lw	t5,236(sp)
    30c0:	203c2077          	0x203c2077
    30c4:	2030                	fld	fa2,64(s0)
    30c6:	5f5f203f 75627773 	0x756277735f5f203f
    30ce:	5f66                	lw	t5,120(sp)
    30d0:	2872                	fld	fa6,280(sp)
    30d2:	525f 4545 544e      	0x544e4545525f
    30d8:	202c                	fld	fa1,64(s0)
    30da:	6928                	flw	fa0,80(a0)
    30dc:	746e                	flw	fs0,248(sp)
    30de:	2829                	jal	30f8 <_data-0x1cf08>
    30e0:	2978                	fld	fa4,208(a0)
    30e2:	202c                	fld	fa1,64(s0)
    30e4:	2970                	fld	fa2,208(a0)
    30e6:	3d20                	fld	fs0,120(a0)
    30e8:	203d                	jal	3116 <_data-0x1ceea>
    30ea:	4f45                	li	t5,17
    30ec:	2046                	fld	ft0,80(sp)
    30ee:	203a                	fld	ft0,392(sp)
    30f0:	2a28                	fld	fa0,80(a2)
    30f2:	7028                	flw	fa0,96(s0)
    30f4:	2d29                	jal	370e <_data-0x1c8f2>
    30f6:	5f3e                	lw	t5,236(sp)
    30f8:	2070                	fld	fa2,192(s0)
    30fa:	203d                	jal	3128 <_data-0x1ced8>
    30fc:	7828                	flw	fa0,112(s0)
    30fe:	2c29                	jal	3318 <_data-0x1cce8>
    3100:	2820                	fld	fs0,80(s0)
    3102:	2970                	fld	fa2,208(a0)
    3104:	3e2d                	jal	2c3e <_data-0x1d3c2>
    3106:	705f 2b2b 202c      	0x202c2b2b705f
    310c:	2930                	fld	fa2,80(a0)
    310e:	0029                	c.addi	zero,10
    3110:	5f5f 504f 4954      	0x4954504f5f5f
    3116:	494d                	li	s2,19
    3118:	455a                	lw	a0,148(sp)
    311a:	535f 5a49 5f45      	0x5f455a49535f
    3120:	205f 0031 5f5f      	0x5f5f0031205f
    3126:	695f 746e 6c5f      	0x6c5f746e695f
    312c:	6165                	addi	sp,sp,112
    312e:	32337473          	csrrci	s0,mhpmevent3,6
    3132:	745f 645f 6665      	0x6665645f745f
    3138:	6e69                	lui	t3,0x1a
    313a:	6465                	lui	s0,0x19
    313c:	3120                	fld	fs0,96(a0)
    313e:	5f00                	lw	s0,56(a4)
    3140:	7366666f          	jal	a2,69876 <__global_pointer$+0x48846>
    3144:	7465                	lui	s0,0xffff9
    3146:	5f00                	lw	s0,56(a4)
    3148:	535f 4c4e 204b      	0x204b4c4e535f
    314e:	7830                	flw	fa2,112(s0)
    3150:	3030                	fld	fa2,96(s0)
    3152:	3130                	fld	fa2,96(a0)
    3154:	5f00                	lw	s0,56(a4)
    3156:	4e55                	li	t3,21
    3158:	5349                	li	t1,-14
    315a:	4454                	lw	a3,12(s0)
    315c:	485f 205f 5f00      	0x5f00205f485f
    3162:	62747663          	bleu	t2,s0,378e <_data-0x1c872>
    3166:	6675                	lui	a2,0x1d
    3168:	5f00                	lw	s0,56(a4)
    316a:	745f 5f6d 646d      	0x646d5f6d745f
    3170:	7961                	lui	s2,0xffff8
    3172:	5f00                	lw	s0,56(a4)
    3174:	555f 4553 5f52      	0x5f524553555f
    317a:	414c                	lw	a1,4(a0)
    317c:	4542                	lw	a0,16(sp)
    317e:	5f4c                	lw	a1,60(a4)
    3180:	5250                	lw	a2,36(a2)
    3182:	4645                	li	a2,17
    3184:	5849                	li	a6,-14
    3186:	5f5f 0020 5f5f      	0x5f5f00205f5f
    318c:	4955                	li	s2,21
    318e:	544e                	lw	s0,240(sp)
    3190:	3436                	fld	fs0,360(sp)
    3192:	4d5f 5841 5f5f      	0x5f5f58414d5f
    3198:	3020                	fld	fs0,96(s0)
    319a:	6678                	flw	fa4,76(a2)
    319c:	6666                	flw	fa2,88(sp)
    319e:	6666                	flw	fa2,88(sp)
    31a0:	6666                	flw	fa2,88(sp)
    31a2:	6666                	flw	fa2,88(sp)
    31a4:	6666                	flw	fa2,88(sp)
    31a6:	6666                	flw	fa2,88(sp)
    31a8:	6666                	flw	fa2,88(sp)
    31aa:	5566                	lw	a0,120(sp)
    31ac:	4c4c                	lw	a1,28(s0)
    31ae:	5f00                	lw	s0,56(a4)
    31b0:	4450                	lw	a2,12(s0)
    31b2:	5f50                	lw	a2,60(a4)
    31b4:	4e45                	li	t3,17
    31b6:	4944                	lw	s1,20(a0)
    31b8:	4e41                	li	t3,16
    31ba:	3320                	fld	fs0,96(a4)
    31bc:	3134                	fld	fa3,96(a0)
    31be:	0032                	0x32
    31c0:	695f 626f 0073      	0x73626f695f
    31c6:	535f 5f43 5f32      	0x5f325f43535f
    31cc:	45445f43          	0x45445f43
    31d0:	2056                	fld	ft0,336(sp)
    31d2:	3031                	jal	29de <_data-0x1d622>
    31d4:	0039                	c.addi	zero,14
    31d6:	415f 4654 4c49      	0x4c494654415f
    31dc:	5f45                	li	t5,-15
    31de:	52554f53          	0x52554f53
    31e2:	5f004543          	fmadd.q	fa0,ft0,fa6,fa1,rmm
    31e6:	4552                	lw	a0,20(sp)
    31e8:	4e45                	li	t3,17
    31ea:	5f54                	lw	a3,60(a4)
    31ec:	424d                	li	tp,19
    31ee:	4f54                	lw	a3,28(a4)
    31f0:	535f4357          	0x535f4357
    31f4:	4154                	lw	a3,4(a0)
    31f6:	4554                	lw	a3,12(a0)
    31f8:	7028                	flw	fa0,96(s0)
    31fa:	7274                	flw	fa3,100(a2)
    31fc:	2029                	jal	3206 <_data-0x1cdfa>
    31fe:	2828                	fld	fa0,80(s0)
    3200:	7470                	flw	fa2,108(s0)
    3202:	2972                	fld	fs2,280(sp)
    3204:	3e2d                	jal	2d3e <_data-0x1d2c2>
    3206:	6e5f 7765 5f2e      	0x5f2e77656e5f
    320c:	6572                	flw	fa0,28(sp)
    320e:	6e65                	lui	t3,0x19
    3210:	2e74                	fld	fa3,216(a2)
    3212:	6d5f 7462 776f      	0x776f74626d5f
    3218:	74735f63          	ble	t2,t1,3976 <_data-0x1c68a>
    321c:	7461                	lui	s0,0xffff8
    321e:	2965                	jal	36d6 <_data-0x1c92a>
    3220:	5f00                	lw	s0,56(a4)
    3222:	535f 4454 5f43      	0x5f434454535f
    3228:	4556                	lw	a0,84(sp)
    322a:	5352                	lw	t1,52(sp)
    322c:	4f49                	li	t5,18
    322e:	5f4e                	lw	t5,240(sp)
    3230:	205f 3032 3131      	0x31313032205f
    3236:	3231                	jal	2b42 <_data-0x1d4be>
    3238:	004c                	addi	a1,sp,4
    323a:	525f 4545 544e      	0x544e4545525f
    3240:	4d5f 4c42 4e45      	0x4e454c424d5f
    3246:	535f 4154 4554      	0x45544154535f
    324c:	7028                	flw	fa0,96(s0)
    324e:	7274                	flw	fa3,100(a2)
    3250:	2029                	jal	325a <_data-0x1cda6>
    3252:	2828                	fld	fa0,80(s0)
    3254:	7470                	flw	fa2,108(s0)
    3256:	2972                	fld	fs2,280(sp)
    3258:	3e2d                	jal	2d92 <_data-0x1d26e>
    325a:	6e5f 7765 5f2e      	0x5f2e77656e5f
    3260:	6572                	flw	fa0,28(sp)
    3262:	6e65                	lui	t3,0x19
    3264:	2e74                	fld	fa3,216(a2)
    3266:	6d5f 6c62 6e65      	0x6e656c626d5f
    326c:	735f 6174 6574      	0x65746174735f
    3272:	0029                	c.addi	zero,10
    3274:	5f5f 4e49 5f54      	0x5f544e495f5f
    327a:	454c                	lw	a1,12(a0)
    327c:	5341                	li	t1,-16
    327e:	3854                	fld	fa3,176(s0)
    3280:	4d5f 5841 5f5f      	0x5f5f58414d5f
    3286:	3020                	fld	fs0,96(s0)
    3288:	3778                	fld	fa4,232(a4)
    328a:	0066                	0x66
    328c:	5f5f 4347 5f43      	0x5f4343475f5f
    3292:	5441                	li	s0,-16
    3294:	43494d4f          	fnmadd.d	fs10,fs2,fs4,fs0,rmm
    3298:	505f 494f 544e      	0x544e494f505f
    329e:	5245                	li	tp,-15
    32a0:	4c5f 434f 5f4b      	0x5f4b434f4c5f
    32a6:	5246                	lw	tp,112(sp)
    32a8:	4545                	li	a0,17
    32aa:	3220                	fld	fs0,96(a2)
    32ac:	4200                	lw	s0,0(a2)
    32ae:	5459                	li	s0,-10
    32b0:	5f45                	li	t5,-15
    32b2:	4544524f          	0x4544524f
    32b6:	2052                	fld	ft0,272(sp)
    32b8:	425f 5459 5f45      	0x5f455459425f
    32be:	4544524f          	0x4544524f
    32c2:	0052                	0x52
    32c4:	5f5f 5441 4d4f      	0x4d4f54415f5f
    32ca:	4349                	li	t1,18
    32cc:	415f 5143 4955      	0x49555143415f
    32d2:	4552                	lw	a0,20(sp)
    32d4:	3220                	fld	fs0,96(a2)
    32d6:	4700                	lw	s0,8(a4)
    32d8:	554e                	lw	a0,240(sp)
    32da:	4320                	lw	s0,64(a4)
    32dc:	3131                	jal	2ee8 <_data-0x1d118>
    32de:	3720                	fld	fs0,104(a4)
    32e0:	322e                	fld	ft4,232(sp)
    32e2:	302e                	fld	ft0,232(sp)
    32e4:	2d20                	fld	fs0,88(a0)
    32e6:	616d                	addi	sp,sp,240
    32e8:	6372                	flw	ft6,28(sp)
    32ea:	3d68                	fld	fa0,248(a0)
    32ec:	7672                	flw	fa2,60(sp)
    32ee:	6d693233          	0x6d693233
    32f2:	6661                	lui	a2,0x18
    32f4:	2064                	fld	fs1,192(s0)
    32f6:	6d2d                	lui	s10,0xb
    32f8:	6261                	lui	tp,0x18
    32fa:	3d69                	jal	3194 <_data-0x1ce6c>
    32fc:	6c69                	lui	s8,0x1a
    32fe:	3370                	fld	fa2,224(a4)
    3300:	6432                	flw	fs0,12(sp)
    3302:	2d20                	fld	fs0,88(a0)
    3304:	2d203367          	0x2d203367
    3308:	7500734f          	0x7500734f
    330c:	736e                	flw	ft6,248(sp)
    330e:	6769                	lui	a4,0x1a
    3310:	656e                	flw	fa0,216(sp)
    3312:	2064                	fld	fs1,192(s0)
    3314:	6e676973          	csrrsi	s2,0x6e6,14
    3318:	6465                	lui	s0,0x19
    331a:	5f00                	lw	s0,56(a4)
    331c:	695f 746e 665f      	0x665f746e695f
    3322:	7361                	lui	t1,0xffff8
    3324:	3874                	fld	fa3,240(s0)
    3326:	745f 645f 6665      	0x6665645f745f
    332c:	6e69                	lui	t3,0x1a
    332e:	6465                	lui	s0,0x19
    3330:	3120                	fld	fs0,96(a0)
    3332:	6f00                	flw	fs0,24(a4)
    3334:	7470                	flw	fa2,108(s0)
    3336:	6e69                	lui	t3,0x1a
    3338:	0064                	addi	s1,sp,12
    333a:	495f 544e 5450      	0x5450544e495f
    3340:	5f52                	lw	t5,52(sp)
    3342:	5145                	li	sp,-15
    3344:	495f 544e 0020      	0x20544e495f
    334a:	5f5f 7362 6177      	0x617773625f5f
    3350:	3670                	fld	fa2,232(a2)
    3352:	2834                	fld	fa3,80(s0)
    3354:	785f 2029 5f5f      	0x5f5f2029785f
    335a:	7562                	flw	fa0,56(sp)
    335c:	6c69                	lui	s8,0x1a
    335e:	6974                	flw	fa3,84(a0)
    3360:	5f6e                	lw	t5,248(sp)
    3362:	7362                	flw	ft6,56(sp)
    3364:	36706177          	0x36706177
    3368:	2834                	fld	fa3,80(s0)
    336a:	785f 0029 5f5f      	0x5f5f0029785f
    3370:	4c46                	lw	s8,80(sp)
    3372:	3354                	fld	fa3,160(a4)
    3374:	5832                	lw	a6,44(sp)
    3376:	4d5f 5841 455f      	0x455f58414d5f
    337c:	5058                	lw	a4,36(s0)
    337e:	5f5f 3120 3230      	0x323031205f5f
    3384:	0034                	addi	a3,sp,8
    3386:	5f5f 6168 5f73      	0x5f7361685f5f
    338c:	6e69                	lui	t3,0x1a
    338e:	64756c63          	bltu	a0,t2,39e6 <_data-0x1c61a>
    3392:	2865                	jal	344a <_data-0x1cbb6>
    3394:	29525453          	0x29525453
    3398:	5f20                	lw	s0,120(a4)
    339a:	685f 7361 695f      	0x695f7361685f
    33a0:	636e                	flw	ft6,216(sp)
    33a2:	756c                	flw	fa1,108(a0)
    33a4:	6564                	flw	fs1,76(a0)
    33a6:	5f5f 5328 5254      	0x525453285f5f
    33ac:	0029                	c.addi	zero,10
    33ae:	505f 5f43 4150      	0x41505f43505f
    33b4:	4854                	lw	a3,20(s0)
    33b6:	4d5f 5841 3420      	0x342058414d5f
    33bc:	5f00                	lw	s0,56(a4)
    33be:	465f 544c 3436      	0x3436544c465f
    33c4:	5f58                	lw	a4,60(a4)
    33c6:	414d                	li	sp,19
    33c8:	5f58                	lw	a4,60(a4)
    33ca:	5845                	li	a6,-15
    33cc:	5f50                	lw	a2,60(a4)
    33ce:	205f 3631 3833      	0x38333631205f
    33d4:	0034                	addi	a3,sp,8
    33d6:	5f5f 4955 544e      	0x544e49555f5f
    33dc:	4c5f 4145 5453      	0x545341454c5f
    33e2:	4d5f3233          	0x4d5f3233
    33e6:	5841                	li	a6,-16
    33e8:	5f5f 3020 6678      	0x667830205f5f
    33ee:	6666                	flw	fa2,88(sp)
    33f0:	6666                	flw	fa2,88(sp)
    33f2:	6666                	flw	fa2,88(sp)
    33f4:	5566                	lw	a0,120(sp)
    33f6:	004c                	addi	a1,sp,4
    33f8:	535f 5f43 4941      	0x49415f43535f
    33fe:	414d5f4f          	fnmadd.s	ft10,fs10,fs4,fs0,unknown
    3402:	2058                	fld	fa4,128(s0)
    3404:	46003533          	0x46003533
    3408:	4e45504f          	fnmadd.q	ft0,fa0,ft4,fs1,unknown
    340c:	4d5f 5841 3220      	0x322058414d5f
    3412:	0030                	addi	a2,sp,8
    3414:	5f5f 6573 7463      	0x746365735f5f
    341a:	6f69                	lui	t5,0x1a
    341c:	286e                	fld	fa6,216(sp)
    341e:	2978                	fld	fa4,208(a0)
    3420:	5f20                	lw	s0,120(a4)
    3422:	615f 7474 6972      	0x69727474615f
    3428:	7562                	flw	fa0,56(sp)
    342a:	6574                	flw	fa3,76(a0)
    342c:	5f5f 2828 5f5f      	0x5f5f28285f5f
    3432:	74636573          	csrrsi	a0,0x746,6
    3436:	6f69                	lui	t5,0x1a
    3438:	5f6e                	lw	t5,248(sp)
    343a:	285f 2978 2929      	0x29292978285f
    3440:	5f00                	lw	s0,56(a4)
    3442:	325f4353          	0x325f4353
    3446:	435f 4148 5f52      	0x5f524148435f
    344c:	4554                	lw	a3,12(a0)
    344e:	4d52                	lw	s10,20(sp)
    3450:	3120                	fld	fs0,96(a0)
    3452:	3730                	fld	fa2,104(a4)
    3454:	5f00                	lw	s0,56(a4)
    3456:	495f 544e 4c5f      	0x4c5f544e495f
    345c:	4145                	li	sp,17
    345e:	34365453          	0x34365453
    3462:	575f 4449 4854      	0x48544449575f
    3468:	5f5f 3620 0034      	0x3436205f5f
    346e:	5f5f 4c46 5f54      	0x5f544c465f5f
    3474:	4148                	lw	a0,4(a0)
    3476:	4e495f53          	0x4e495f53
    347a:	4946                	lw	s2,80(sp)
    347c:	494e                	lw	s2,208(sp)
    347e:	5954                	lw	a3,52(a0)
    3480:	5f5f 3120 5f00      	0x5f0031205f5f
    3486:	565f4353          	0x565f4353
    348a:	5f36                	lw	t5,108(sp)
    348c:	4c49                	li	s8,18
    348e:	3350                	fld	fa2,160(a4)
    3490:	5f32                	lw	t5,44(sp)
    3492:	4246464f          	fnmadd.d	fa2,fa2,ft4,fs0,rmm
    3496:	4749                	li	a4,18
    3498:	5f20                	lw	s0,120(a4)
    349a:	565f4353          	0x565f4353
    349e:	4c495f37          	lui	t5,0x4c495
    34a2:	3350                	fld	fa2,160(a4)
    34a4:	5f32                	lw	t5,44(sp)
    34a6:	4246464f          	fnmadd.d	fa2,fa2,ft4,fs0,rmm
    34aa:	4749                	li	a4,18
    34ac:	5000                	lw	s0,32(s0)
    34ae:	4854                	lw	a3,20(s0)
    34b0:	4552                	lw	a0,20(sp)
    34b2:	4441                	li	s0,16
    34b4:	435f 4552 5441      	0x54414552435f
    34ba:	5f45                	li	t5,-15
    34bc:	4f4a                	lw	t5,144(sp)
    34be:	4e49                	li	t3,18
    34c0:	4241                	li	tp,16
    34c2:	454c                	lw	a1,12(a0)
    34c4:	3120                	fld	fs0,96(a0)
    34c6:	5f00                	lw	s0,56(a4)
    34c8:	495f 544e 5f38      	0x5f38544e495f
    34ce:	414d                	li	sp,19
    34d0:	5f58                	lw	a4,60(a4)
    34d2:	205f 7830 6637      	0x66377830205f
    34d8:	6600                	flw	fs0,8(a2)
    34da:	7265                	lui	tp,0xffff9
    34dc:	6f72                	flw	ft10,28(sp)
    34de:	2872                	fld	fa6,280(sp)
    34e0:	2970                	fld	fa2,208(a0)
    34e2:	5f20                	lw	s0,120(a4)
    34e4:	735f 6566 7272      	0x72726566735f
    34ea:	7028726f          	jal	tp,8abec <__global_pointer$+0x69bbc>
    34ee:	0029                	c.addi	zero,10
    34f0:	5f5f 4347 5f43      	0x5f4343475f5f
    34f6:	4148                	lw	a0,4(a0)
    34f8:	4556                	lw	a0,84(sp)
    34fa:	445f 4157 4652      	0x46524157445f
    3500:	5f32                	lw	t5,44(sp)
    3502:	5f494643          	fmadd.q	fa2,fs2,fs4,fa1,rmm
    3506:	5341                	li	t1,-16
    3508:	204d                	jal	35aa <_data-0x1ca56>
    350a:	0031                	c.addi	zero,12
    350c:	5f5f 695f 746e      	0x746e695f5f5f
    3512:	5f38                	lw	a4,120(a4)
    3514:	5f74                	lw	a3,124(a4)
    3516:	6564                	flw	fs1,76(a0)
    3518:	6966                	flw	fs2,88(sp)
    351a:	656e                	flw	fa0,216(sp)
    351c:	2064                	fld	fs1,192(s0)
    351e:	0031                	c.addi	zero,12
    3520:	705f 7335 5f00      	0x5f007335705f
    3526:	6f5f 6666 6573      	0x657366666f5f
    352c:	6f74                	flw	fa3,92(a4)
    352e:	2866                	fld	fa6,88(sp)
    3530:	7974                	flw	fa3,116(a0)
    3532:	6570                	flw	fa2,76(a0)
    3534:	662c                	flw	fa1,72(a2)
    3536:	6569                	lui	a0,0x1a
    3538:	646c                	flw	fa1,76(s0)
    353a:	2029                	jal	3544 <_data-0x1cabc>
    353c:	7366666f          	jal	a2,69c72 <__global_pointer$+0x48c42>
    3540:	7465                	lui	s0,0xffff9
    3542:	7428666f          	jal	a2,89c84 <__global_pointer$+0x68c54>
    3546:	7079                	0x7079
    3548:	2c65                	jal	3800 <_data-0x1c800>
    354a:	6620                	flw	fs0,72(a2)
    354c:	6569                	lui	a0,0x1a
    354e:	646c                	flw	fa1,76(s0)
    3550:	0029                	c.addi	zero,10
    3552:	5f5f 5f75 6873      	0x68735f755f5f
    3558:	5f74726f          	jal	tp,4b34e <__global_pointer$+0x2a31e>
    355c:	6564                	flw	fs1,76(a0)
    355e:	6966                	flw	fs2,88(sp)
    3560:	656e                	flw	fa0,216(sp)
    3562:	2064                	fld	fs1,192(s0)
    3564:	4600                	lw	s0,8(a2)
    3566:	545f 5345 2054      	0x20545345545f
    356c:	5f5f0033          	0x5f5f0033
    3570:	5f434347          	fmsub.q	ft6,ft6,fs4,fa1,rmm
    3574:	4549                	li	a0,18
    3576:	35355f43          	0x35355f43
    357a:	5f39                	li	t5,-18
    357c:	504d4f43          	fmadd.s	ft10,fs10,ft4,fa0,rmm
    3580:	454c                	lw	a1,12(a0)
    3582:	2058                	fld	fa4,128(s0)
    3584:	0032                	0x32
    3586:	5f5f 4e47 4355      	0x43554e475f5f
    358c:	5f5f 3720 5f00      	0x5f0037205f5f
    3592:	555f 4e49 3154      	0x31544e49555f
    3598:	5f36                	lw	t5,108(sp)
    359a:	5954                	lw	a3,52(a0)
    359c:	4550                	lw	a2,12(a0)
    359e:	5f5f 7320 6f68      	0x6f6873205f5f
    35a4:	7472                	flw	fs0,60(sp)
    35a6:	7520                	flw	fs0,104(a0)
    35a8:	736e                	flw	ft6,248(sp)
    35aa:	6769                	lui	a4,0x1a
    35ac:	656e                	flw	fa0,216(sp)
    35ae:	2064                	fld	fs1,192(s0)
    35b0:	6e69                	lui	t3,0x1a
    35b2:	0074                	addi	a3,sp,12
    35b4:	505f 534f 5849      	0x5849534f505f
    35ba:	535f 554f 4352      	0x4352554f535f
    35c0:	0045                	c.addi	zero,17
    35c2:	4152                	lw	sp,20(sp)
    35c4:	444e                	lw	s0,208(sp)
    35c6:	4d5f 5841 5f20      	0x5f2058414d5f
    35cc:	525f 4e41 5f44      	0x5f444e41525f
    35d2:	414d                	li	sp,19
    35d4:	0058                	addi	a4,sp,4
    35d6:	5f5f 444c 4c42      	0x4c42444c5f5f
    35dc:	445f 4345 4d49      	0x4d494345445f
    35e2:	4c41                	li	s8,16
    35e4:	445f 4749 5f5f      	0x5f5f4749445f
    35ea:	3320                	fld	fs0,96(a4)
    35ec:	0036                	0x36
    35ee:	5f5f 4c46 3654      	0x36544c465f5f
    35f4:	5834                	lw	a3,112(s0)
    35f6:	4d5f 4e49 315f      	0x315f4e494d5f
    35fc:	5f30                	lw	a2,120(a4)
    35fe:	5845                	li	a6,-15
    3600:	5f50                	lw	a2,60(a4)
    3602:	205f 2d28 3934      	0x39342d28205f
    3608:	00293133          	sltu	sp,s2,sp
    360c:	5f5f 4955 544e      	0x544e49555f5f
    3612:	4d5f3233          	0x4d5f3233
    3616:	5841                	li	a6,-16
    3618:	5f5f 3020 6678      	0x667830205f5f
    361e:	6666                	flw	fa2,88(sp)
    3620:	6666                	flw	fa2,88(sp)
    3622:	6666                	flw	fa2,88(sp)
    3624:	5566                	lw	a0,120(sp)
    3626:	004c                	addi	a1,sp,4
    3628:	5f5f 6473 6469      	0x646964735f5f
    362e:	6e69                	lui	t3,0x1a
    3630:	7469                	lui	s0,0xffffa
    3632:	5f00                	lw	s0,56(a4)
    3634:	445f 4345 3233      	0x32334345445f
    363a:	4d5f 5841 455f      	0x455f58414d5f
    3640:	5058                	lw	a4,36(s0)
    3642:	5f5f 3920 0037      	0x3739205f5f
    3648:	545f 535f 5a49      	0x5a49535f545f
    364e:	5f45                	li	t5,-15
    3650:	0020                	addi	s0,sp,8
    3652:	5f5f 4c46 5f54      	0x5f544c465f5f
    3658:	5645                	li	a2,-15
    365a:	4c41                	li	s8,16
    365c:	4d5f 5445 4f48      	0x4f4854454d5f
    3662:	5f44                	lw	s1,60(a4)
    3664:	5354                	lw	a3,36(a4)
    3666:	315f 3638 3136      	0x31363638315f
    366c:	335f 5f5f 3020      	0x30205f5f335f
    3672:	5f00                	lw	s0,56(a4)
    3674:	4c5f 4244 5f4c      	0x5f4c42444c5f
    367a:	5045                	0x5045
    367c:	4f4c4953          	0x4f4c4953
    3680:	5f4e                	lw	t5,240(sp)
    3682:	205f 2e31 3239      	0x32392e31205f
    3688:	3935                	jal	32c4 <_data-0x1cd3c>
    368a:	3932                	fld	fs2,296(sp)
    368c:	3439                	jal	309a <_data-0x1cf66>
    368e:	3334                	fld	fa3,96(a4)
    3690:	3738                	fld	fa4,104(a4)
    3692:	3332                	fld	ft6,296(sp)
    3694:	3835                	jal	2ed0 <_data-0x1d130>
    3696:	3335                	jal	33c2 <_data-0x1cc3e>
    3698:	3530                	fld	fa2,104(a0)
    369a:	3935                	jal	32d6 <_data-0x1cd2a>
    369c:	34393737          	lui	a4,0x34393
    36a0:	3532                	fld	fa0,296(sp)
    36a2:	3438                	fld	fa4,104(s0)
    36a4:	3239                	jal	2fb2 <_data-0x1d04e>
    36a6:	65323337          	lui	t1,0x65323
    36aa:	332d                	jal	33d4 <_data-0x1cc2c>
    36ac:	4c34                	lw	a3,88(s0)
    36ae:	4900                	lw	s0,16(a0)
    36b0:	544e                	lw	s0,240(sp)
    36b2:	5f38                	lw	a4,120(a4)
    36b4:	29782843          	fmadd.s	fa6,fa6,fs7,ft5,rdn
    36b8:	5f20                	lw	s0,120(a4)
    36ba:	495f 544e 5f38      	0x5f38544e495f
    36c0:	29782843          	fmadd.s	fa6,fa6,fs7,ft5,rdn
    36c4:	5f00                	lw	s0,56(a4)
    36c6:	555f 4e49 5f54      	0x5f544e49555f
    36cc:	4146                	lw	sp,80(sp)
    36ce:	5f385453          	0x5f385453
    36d2:	5954                	lw	a3,52(a0)
    36d4:	4550                	lw	a2,12(a0)
    36d6:	5f5f 7520 736e      	0x736e75205f5f
    36dc:	6769                	lui	a4,0x1a
    36de:	656e                	flw	fa0,216(sp)
    36e0:	2064                	fld	fs1,192(s0)
    36e2:	6e69                	lui	t3,0x1a
    36e4:	0074                	addi	a3,sp,12
    36e6:	5f5f 4c46 3154      	0x31544c465f5f
    36ec:	3832                	fld	fa6,296(sp)
    36ee:	445f 4749 5f5f      	0x5f5f4749445f
    36f4:	3320                	fld	fs0,96(a4)
    36f6:	535f0033          	0x535f0033
    36fa:	5f325f43          	fmadd.q	ft10,ft4,fs3,fa1,unknown
    36fe:	5055                	0x5055
    3700:	2045                	jal	37a0 <_data-0x1c860>
    3702:	3231                	jal	300e <_data-0x1cff2>
    3704:	0030                	addi	a2,sp,8
    3706:	535f 5359 535f      	0x535f5359535f
    370c:	5254                	lw	a3,36(a2)
    370e:	4e49                	li	t3,18
    3710:	20485f47          	fmsub.s	ft10,fa6,ft4,ft4,unknown
    3714:	5f00                	lw	s0,56(a4)
    3716:	325f4353          	0x325f4353
    371a:	505f 5342 4d5f      	0x4d5f5342505f
    3720:	5345                	li	t1,-15
    3722:	45474153          	0x45474153
    3726:	3120                	fld	fs0,96(a0)
    3728:	3731                	jal	3634 <_data-0x1c9cc>
    372a:	5f00                	lw	s0,56(a4)
    372c:	495f 544e 3233      	0x3233544e495f
    3732:	4d5f 5841 5f5f      	0x5f5f58414d5f
    3738:	3020                	fld	fs0,96(s0)
    373a:	3778                	fld	fa4,232(a4)
    373c:	6666                	flw	fa2,88(sp)
    373e:	6666                	flw	fa2,88(sp)
    3740:	6666                	flw	fa2,88(sp)
    3742:	4c66                	lw	s8,88(sp)
    3744:	5f00                	lw	s0,56(a4)
    3746:	4954                	lw	a3,20(a0)
    3748:	454d                	li	a0,19
    374a:	5f52                	lw	t5,52(sp)
    374c:	5f54                	lw	a3,60(a4)
    374e:	7520                	flw	fs0,104(a0)
    3750:	736e                	flw	ft6,248(sp)
    3752:	6769                	lui	a4,0x1a
    3754:	656e                	flw	fa0,216(sp)
    3756:	2064                	fld	fs1,192(s0)
    3758:	6f6c                	flw	fa1,92(a4)
    375a:	676e                	flw	fa4,216(sp)
    375c:	5f00                	lw	s0,56(a4)
    375e:	4f4c                	lw	a1,28(a4)
    3760:	525f4b43          	fmadd.d	fs6,ft10,ft5,fa0,rmm
    3764:	4345                	li	t1,17
    3766:	5255                	li	tp,-11
    3768:	45564953          	0x45564953
    376c:	545f 5f00 465f      	0x465f5f00545f
    3772:	544c                	lw	a1,44(s0)
    3774:	3436                	fld	fs0,360(sp)
    3776:	5f58                	lw	a4,60(a4)
    3778:	4544                	lw	s1,12(a0)
    377a:	414d4943          	fmadd.s	fs2,fs10,fs4,fs0,rmm
    377e:	5f4c                	lw	a1,60(a4)
    3780:	4944                	lw	s1,20(a0)
    3782:	205f5f47          	fmsub.s	ft10,ft10,ft5,ft4,unknown
    3786:	49003633          	0x49003633
    378a:	544e                	lw	s0,240(sp)
    378c:	414d                	li	sp,19
    378e:	5f58                	lw	a4,60(a4)
    3790:	414d                	li	sp,19
    3792:	2058                	fld	fa4,128(s0)
    3794:	5f28                	lw	a0,120(a4)
    3796:	495f 544e 414d      	0x414d544e495f
    379c:	5f58                	lw	a4,60(a4)
    379e:	414d                	li	sp,19
    37a0:	5f58                	lw	a4,60(a4)
    37a2:	295f 4900 544e      	0x544e4900295f
    37a8:	414d                	li	sp,19
    37aa:	5f58                	lw	a4,60(a4)
    37ac:	29782843          	fmadd.s	fa6,fa6,fs7,ft5,rdn
    37b0:	5f20                	lw	s0,120(a4)
    37b2:	495f 544e 414d      	0x414d544e495f
    37b8:	5f58                	lw	a4,60(a4)
    37ba:	29782843          	fmadd.s	fa6,fa6,fs7,ft5,rdn
    37be:	5f00                	lw	s0,56(a4)
    37c0:	6e5f 6565 5f64      	0x5f6465656e5f
    37c6:	554e                	lw	a0,240(sp)
    37c8:	4c4c                	lw	a1,28(s0)
    37ca:	0020                	addi	s0,sp,8
    37cc:	445f 4645 5541      	0x55414645445f
    37d2:	544c                	lw	a1,44(s0)
    37d4:	535f 554f 4352      	0x4352554f535f
    37da:	2045                	jal	387a <_data-0x1c786>
    37dc:	0031                	c.addi	zero,12
    37de:	5f5f 4c46 3354      	0x33544c465f5f
    37e4:	5f32                	lw	t5,44(sp)
    37e6:	414d                	li	sp,19
    37e8:	544e                	lw	s0,240(sp)
    37ea:	445f 4749 5f5f      	0x5f5f4749445f
    37f0:	3220                	fld	fs0,96(a2)
    37f2:	0034                	addi	a3,sp,8
    37f4:	7366666f          	jal	a2,69f2a <__global_pointer$+0x48efa>
    37f8:	7465                	lui	s0,0xffff9
    37fa:	5428666f          	jal	a2,89d3c <__global_pointer$+0x68d0c>
    37fe:	5059                	0x5059
    3800:	2c45                	jal	3ab0 <_data-0x1c550>
    3802:	454d                	li	a0,19
    3804:	424d                	li	tp,19
    3806:	5245                	li	tp,-15
    3808:	2029                	jal	3812 <_data-0x1c7ee>
    380a:	5f5f 7562 6c69      	0x6c6975625f5f
    3810:	6974                	flw	fa3,84(a0)
    3812:	5f6e                	lw	t5,248(sp)
    3814:	7366666f          	jal	a2,69f4a <__global_pointer$+0x48f1a>
    3818:	7465                	lui	s0,0xffff9
    381a:	2820666f          	jal	a2,9a9c <_data-0x16564>
    381e:	5954                	lw	a3,52(a0)
    3820:	4550                	lw	a2,12(a0)
    3822:	202c                	fld	fa1,64(s0)
    3824:	454d                	li	a0,19
    3826:	424d                	li	tp,19
    3828:	5245                	li	tp,-15
    382a:	0029                	c.addi	zero,10
    382c:	5f5f 4955 544e      	0x544e49555f5f
    3832:	4c5f 4145 5453      	0x545341454c5f
    3838:	3436                	fld	fs0,360(sp)
    383a:	545f 5059 5f45      	0x5f455059545f
    3840:	205f 6f6c 676e      	0x676e6f6c205f
    3846:	6c20                	flw	fs0,88(s0)
    3848:	20676e6f          	jal	t3,79a4e <__global_pointer$+0x58a1e>
    384c:	6e75                	lui	t3,0x1d
    384e:	6e676973          	csrrsi	s2,0x6e6,14
    3852:	6465                	lui	s0,0x19
    3854:	6920                	flw	fs0,80(a0)
    3856:	746e                	flw	fs0,248(sp)
    3858:	5f00                	lw	s0,56(a4)
    385a:	535f4353          	0x535f4353
    385e:	4950                	lw	a2,20(a0)
    3860:	5f4e                	lw	t5,240(sp)
    3862:	4f4c                	lw	a1,28(a4)
    3864:	20534b43          	fmadd.s	fs6,ft6,ft5,ft4,rmm
    3868:	5f003637          	lui	a2,0x5f003
    386c:	535f 4957 2044      	0x20444957535f
    3872:	7830                	flw	fa2,112(s0)
    3874:	3032                	fld	ft0,296(sp)
    3876:	3030                	fld	fa2,96(s0)
    3878:	5f00                	lw	s0,56(a4)
    387a:	465f 544c 3436      	0x3436544c465f
    3880:	5f58                	lw	a4,60(a4)
    3882:	414d                	li	sp,19
    3884:	544e                	lw	s0,240(sp)
    3886:	445f 4749 5f5f      	0x5f5f4749445f
    388c:	3120                	fld	fs0,96(a0)
    388e:	3331                	jal	359a <_data-0x1ca66>
    3890:	5f00                	lw	s0,56(a4)
    3892:	705f 7275 3265      	0x32657275705f
    3898:	5f20                	lw	s0,120(a4)
    389a:	615f 7474 6972      	0x69727474615f
    38a0:	7562                	flw	fa0,56(sp)
    38a2:	6574                	flw	fa3,76(a0)
    38a4:	5f5f 2828 5f5f      	0x5f5f28285f5f
    38aa:	736e6f63          	bltu	t3,s6,3fe8 <_data-0x1c018>
    38ae:	5f74                	lw	a3,124(a4)
    38b0:	295f 0029 5f5f      	0x5f5f0029295f
    38b6:	7362                	flw	ft6,56(sp)
    38b8:	31706177          	0x31706177
    38bc:	2836                	fld	fa6,328(sp)
    38be:	785f 2029 5f5f      	0x5f5f2029785f
    38c4:	7562                	flw	fa0,56(sp)
    38c6:	6c69                	lui	s8,0x1a
    38c8:	6974                	flw	fa3,84(a0)
    38ca:	5f6e                	lw	t5,248(sp)
    38cc:	7362                	flw	ft6,56(sp)
    38ce:	31706177          	0x31706177
    38d2:	2836                	fld	fa6,328(sp)
    38d4:	785f 0029 445f      	0x445f0029785f
    38da:	4645                	li	a2,17
    38dc:	5541                	li	a0,-16
    38de:	544c                	lw	a1,44(s0)
    38e0:	535f 554f 4352      	0x4352554f535f
    38e6:	0045                	c.addi	zero,17
    38e8:	535f 5f43 4441      	0x44415f43535f
    38ee:	4956                	lw	s2,84(sp)
    38f0:	59524f53          	0x59524f53
    38f4:	495f 464e 204f      	0x204f464e495f
    38fa:	3435                	jal	3326 <_data-0x1ccda>
    38fc:	5f00                	lw	s0,56(a4)
    38fe:	6e676973          	csrrsi	s2,0x6e6,14
    3902:	6c61                	lui	s8,0x18
    3904:	625f 6675 5f00      	0x5f006675625f
    390a:	445f 4c42 4d5f      	0x4d5f4c42445f
    3910:	5841                	li	a6,-16
    3912:	455f 5058 5f5f      	0x5f5f5058455f
    3918:	3120                	fld	fs0,96(a0)
    391a:	3230                	fld	fa2,96(a2)
    391c:	0034                	addi	a3,sp,8
    391e:	5f5f 4146 5453      	0x545341465f5f
    3924:	3436                	fld	fs0,360(sp)
    3926:	2220                	fld	fs0,64(a2)
    3928:	6c6c                	flw	fa1,92(s0)
    392a:	0022                	0x22
    392c:	5f5f 5441 4d4f      	0x4d4f54415f5f
    3932:	4349                	li	t1,18
    3934:	525f 4c45 4145      	0x41454c45525f
    393a:	33204553          	0x33204553
    393e:	5f00                	lw	s0,56(a4)
    3940:	6f68                	flw	fa0,92(a4)
    3942:	6e616d77          	0x6e616d77
    3946:	2879                	jal	39e4 <_data-0x1c61c>
    3948:	2c78                	fld	fa4,216(s0)
    394a:	2979                	jal	3de8 <_data-0x1c218>
    394c:	2820                	fld	fs0,80(s0)
    394e:	2828                	fld	fa0,80(s0)
    3950:	2978                	fld	fa4,208(a0)
    3952:	7928282b          	0x7928282b
    3956:	2d29                	jal	3f70 <_data-0x1c090>
    3958:	2931                	jal	3d74 <_data-0x1c28c>
    395a:	2f29                	jal	4074 <_data-0x1bf8c>
    395c:	7928                	flw	fa0,112(a0)
    395e:	2929                	jal	3d78 <_data-0x1c288>
    3960:	5f00                	lw	s0,56(a4)
    3962:	465f 544c 3233      	0x3233544c465f
    3968:	5f58                	lw	a4,60(a4)
    396a:	4148                	lw	a0,4(a0)
    396c:	45445f53          	0x45445f53
    3970:	4f4e                	lw	t5,208(sp)
    3972:	4d52                	lw	s10,20(sp)
    3974:	5f5f 3120 5f00      	0x5f0031205f5f
    397a:	465f 544c 4d5f      	0x4d5f544c465f
    3980:	4e41                	li	t3,16
    3982:	5f54                	lw	a3,60(a4)
    3984:	4944                	lw	s1,20(a0)
    3986:	205f5f47          	fmsub.s	ft10,ft10,ft5,ft4,unknown
    398a:	3432                	fld	fs0,296(sp)
    398c:	5f00                	lw	s0,56(a4)
    398e:	565f4353          	0x565f4353
    3992:	4c495f37          	lui	t5,0x4c495
    3996:	3350                	fld	fa2,160(a4)
    3998:	5f32                	lw	t5,44(sp)
    399a:	4246464f          	fnmadd.d	fa2,fa2,ft4,fs0,rmm
    399e:	4749                	li	a4,18
    39a0:	3920                	fld	fs0,112(a0)
    39a2:	525f0033          	0x525f0033
    39a6:	4e41                	li	t3,16
    39a8:	3444                	fld	fs1,168(s0)
    39aa:	5f38                	lw	a4,120(a4)
    39ac:	44454553          	0x44454553
    39b0:	315f 2820 7830      	0x78302820315f
    39b6:	6261                	lui	tp,0x18
    39b8:	00296463          	bltu	s2,sp,39c0 <_data-0x1c640>
    39bc:	5f5f 4e49 5f54      	0x5f544e495f5f
    39c2:	4146                	lw	sp,80(sp)
    39c4:	32335453          	0x32335453
    39c8:	545f 5059 5f45      	0x5f455059545f
    39ce:	205f 6e69 0074      	0x746e69205f
    39d4:	6e69                	lui	t3,0x1a
    39d6:	2074                	fld	fa3,192(s0)
    39d8:	5500322b          	0x5500322b
    39dc:	4e49                	li	t3,18
    39de:	4d54                	lw	a3,28(a0)
    39e0:	5841                	li	a6,-16
    39e2:	4d5f 5841 2820      	0x282058414d5f
    39e8:	5f5f 4955 544e      	0x544e49555f5f
    39ee:	414d                	li	sp,19
    39f0:	5f58                	lw	a4,60(a4)
    39f2:	414d                	li	sp,19
    39f4:	5f58                	lw	a4,60(a4)
    39f6:	295f 5f00 5f5f      	0x5f5f5f00295f
    39fc:	6e69                	lui	t3,0x1a
    39fe:	5f74                	lw	a3,124(a4)
    3a00:	7470                	flw	fa2,108(s0)
    3a02:	6472                	flw	fs0,28(sp)
    3a04:	6669                	lui	a2,0x1a
    3a06:	5f66                	lw	t5,120(sp)
    3a08:	5f74                	lw	a3,124(a4)
    3a0a:	2068                	fld	fa0,192(s0)
    3a0c:	5f00                	lw	s0,56(a4)
    3a0e:	4f5f 5450 4d49      	0x4d4954504f5f
    3a14:	5a49                	li	s4,-14
    3a16:	5f45                	li	t5,-15
    3a18:	205f 0031 5f5f      	0x5f5f0031205f
    3a1e:	5f75                	li	t5,-3
    3a20:	6e69                	lui	t3,0x1a
    3a22:	5f74                	lw	a3,124(a4)
    3a24:	6564                	flw	fs1,76(a0)
    3a26:	6966                	flw	fs2,88(sp)
    3a28:	656e                	flw	fa0,216(sp)
    3a2a:	2064                	fld	fs1,192(s0)
    3a2c:	5f00                	lw	s0,56(a4)
    3a2e:	6e5f 6e6f 756e      	0x756e6e6f6e5f
    3a34:	6c6c                	flw	fa1,92(s0)
    3a36:	7828                	flw	fa0,112(s0)
    3a38:	2029                	jal	3a42 <_data-0x1c5be>
    3a3a:	5f5f 7461 7274      	0x727474615f5f
    3a40:	6269                	lui	tp,0x1a
    3a42:	7475                	lui	s0,0xffffd
    3a44:	5f65                	li	t5,-7
    3a46:	285f 5f28 6e5f      	0x6e5f5f28285f
    3a4c:	756e6e6f          	jal	t3,ea1a2 <__global_pointer$+0xc9172>
    3a50:	6c6c                	flw	fa1,92(s0)
    3a52:	5f5f 7828 2929      	0x292978285f5f
    3a58:	0029                	c.addi	zero,10
    3a5a:	5f5f 4343 535f      	0x535f43435f5f
    3a60:	5055                	0x5055
    3a62:	4f50                	lw	a2,28(a4)
    3a64:	5452                	lw	s0,52(sp)
    3a66:	5f5f5f53          	0x5f5f5f53
    3a6a:	5546                	lw	a0,112(sp)
    3a6c:	434e                	lw	t1,208(sp)
    3a6e:	5f5f 3120 5f00      	0x5f0031205f5f
    3a74:	325f4353          	0x325f4353
    3a78:	505f 5342 415f      	0x415f5342505f
    3a7e:	554f4343          	0x554f4343
    3a82:	544e                	lw	s0,240(sp)
    3a84:	4e49                	li	t3,18
    3a86:	31312047          	fmsub.s	ft0,ft2,fs3,ft6,rdn
    3a8a:	0034                	addi	a3,sp,8
    3a8c:	425f 6769 6e69      	0x6e696769425f
    3a92:	0074                	addi	a3,sp,12
    3a94:	5f5f 4c46 3654      	0x36544c465f5f
    3a9a:	5f34                	lw	a3,120(a4)
    3a9c:	494d                	li	s2,19
    3a9e:	5f4e                	lw	t5,240(sp)
    3aa0:	205f 2e32 3232      	0x32322e32205f
    3aa6:	3035                	jal	32d2 <_data-0x1cd2e>
    3aa8:	35383337          	lui	t1,0x35383
    3aac:	3538                	fld	fa4,104(a0)
    3aae:	3730                	fld	fa2,104(a4)
    3ab0:	3032                	fld	ft0,296(sp)
    3ab2:	3331                	jal	37be <_data-0x1c842>
    3ab4:	3338                	fld	fa4,96(a4)
    3ab6:	3930                	fld	fa2,112(a0)
    3ab8:	3230                	fld	fa2,96(a2)
    3aba:	31373233          	0x31373233
    3abe:	32333337          	lui	t1,0x32333
    3ac2:	3034                	fld	fa3,96(s0)
    3ac4:	3034                	fld	fa3,96(s0)
    3ac6:	6536                	flw	fa0,76(sp)
    3ac8:	332d                	jal	37f2 <_data-0x1c80e>
    3aca:	3830                	fld	fa2,112(s0)
    3acc:	3646                	fld	fa2,112(sp)
    3ace:	0034                	addi	a3,sp,8
    3ad0:	545f 505f 5254      	0x5254505f545f
    3ad6:	4944                	lw	s1,20(a0)
    3ad8:	4646                	lw	a2,80(sp)
    3ada:	205f 5300 4843      	0x48435300205f
    3ae0:	4445                	li	s0,17
    3ae2:	465f 4649 204f      	0x204f4649465f
    3ae8:	0031                	c.addi	zero,12
    3aea:	735f 6474 756f      	0x756f6474735f
    3af0:	5f74                	lw	a3,124(a4)
    3af2:	2872                	fld	fa6,280(sp)
    3af4:	2978                	fld	fa4,208(a0)
    3af6:	2820                	fld	fs0,80(s0)
    3af8:	7828                	flw	fa0,112(s0)
    3afa:	2d29                	jal	4114 <_data-0x1beec>
    3afc:	5f3e                	lw	t5,236(sp)
    3afe:	6f647473          	csrrci	s0,0x6f6,8
    3b02:	7475                	lui	s0,0xffffd
    3b04:	0029                	c.addi	zero,10
    3b06:	5f5f 4e49 3654      	0x36544e495f5f
    3b0c:	5f34                	lw	a3,120(a4)
    3b0e:	414d                	li	sp,19
    3b10:	5f58                	lw	a4,60(a4)
    3b12:	205f 7830 6637      	0x66377830205f
    3b18:	6666                	flw	fa2,88(sp)
    3b1a:	6666                	flw	fa2,88(sp)
    3b1c:	6666                	flw	fa2,88(sp)
    3b1e:	6666                	flw	fa2,88(sp)
    3b20:	6666                	flw	fa2,88(sp)
    3b22:	6666                	flw	fa2,88(sp)
    3b24:	6666                	flw	fa2,88(sp)
    3b26:	4c4c                	lw	a1,28(s0)
    3b28:	5f00                	lw	s0,56(a4)
    3b2a:	545f4353          	0x545f4353
    3b2e:	5248                	lw	a0,36(a2)
    3b30:	4145                	li	sp,17
    3b32:	5f44                	lw	s1,60(a4)
    3b34:	5441                	li	s0,-16
    3b36:	5254                	lw	a3,36(a2)
    3b38:	535f 4154 4b43      	0x4b434154535f
    3b3e:	455a4953          	0x455a4953
    3b42:	3420                	fld	fs0,104(s0)
    3b44:	0034                	addi	a3,sp,8
    3b46:	5f5f 4c46 3354      	0x33544c465f5f
    3b4c:	5832                	lw	a6,44(sp)
    3b4e:	4d5f 4e49 315f      	0x315f4e494d5f
    3b54:	5f30                	lw	a2,120(a4)
    3b56:	5845                	li	a6,-15
    3b58:	5f50                	lw	a2,60(a4)
    3b5a:	205f 2d28 3033      	0x30332d28205f
    3b60:	5f002937          	lui	s2,0x5f002
    3b64:	4e41                	li	t3,16
    3b66:	535f4953          	0x535f4953
    3b6a:	4454                	lw	a3,12(s0)
    3b6c:	4544                	lw	s1,12(a0)
    3b6e:	5f46                	lw	t5,112(sp)
    3b70:	2048                	fld	fa0,128(s0)
    3b72:	5f00                	lw	s0,56(a4)
    3b74:	4552                	lw	a0,20(sp)
    3b76:	4e45                	li	t3,17
    3b78:	5f54                	lw	a3,60(a4)
    3b7a:	43454843          	fmadd.d	fa6,fa0,fs4,fs0,rmm
    3b7e:	49535f4b          	fnmsub.s	ft10,ft6,fs5,fs1,unknown
    3b82:	4c414e47          	0x4c414e47
    3b86:	425f 4655 7028      	0x70284655425f
    3b8c:	7274                	flw	fa3,100(a2)
    3b8e:	2029                	jal	3b98 <_data-0x1c468>
    3b90:	5f00                	lw	s0,56(a4)
    3b92:	535f4353          	0x535f4353
    3b96:	4d59                	li	s10,22
    3b98:	4f4c                	lw	a1,28(a4)
    3b9a:	4d5f504f          	0x4d5f504f
    3b9e:	5841                	li	a6,-16
    3ba0:	3720                	fld	fs0,104(a4)
    3ba2:	0039                	c.addi	zero,14
    3ba4:	5f5f 6c63 6165      	0x61656c635f5f
    3baa:	756e                	flw	fa0,248(sp)
    3bac:	0070                	addi	a2,sp,12
    3bae:	535f 5f43 4258      	0x42585f43535f
    3bb4:	495f3553          	0x495f3553
    3bb8:	504c                	lw	a1,36(s0)
    3bba:	4f5f3233          	0x4f5f3233
    3bbe:	4646                	lw	a2,80(sp)
    3bc0:	5f203233          	0x5f203233
    3bc4:	565f4353          	0x565f4353
    3bc8:	4c495f37          	lui	t5,0x4c495
    3bcc:	3350                	fld	fa2,160(a4)
    3bce:	5f32                	lw	t5,44(sp)
    3bd0:	3346464f          	fnmadd.d	fa2,fa2,fs4,ft6,rmm
    3bd4:	0032                	0x32
    3bd6:	535f 5f43 4c43      	0x4c435f43535f
    3bdc:	5f4b434f          	fnmadd.q	ft6,fs6,fs4,fa1,rmm
    3be0:	454c4553          	0x454c4553
    3be4:	4f495443          	fmadd.q	fs0,fs2,fs4,fs1,unknown
    3be8:	204e                	fld	ft0,208(sp)
    3bea:	3136                	fld	ft2,360(sp)
    3bec:	5f00                	lw	s0,56(a4)
    3bee:	7461                	lui	s0,0xffff8
    3bf0:	7865                	lui	a6,0xffff9
    3bf2:	7469                	lui	s0,0xffffa
    3bf4:	0030                	addi	a2,sp,8
    3bf6:	525f 4545 544e      	0x544e4545525f
    3bfc:	535f 414d 4c4c      	0x4c4c414d535f
    3c02:	435f 4548 4b43      	0x4b434548435f
    3c08:	495f 494e 2854      	0x2854494e495f
    3c0e:	7470                	flw	fa2,108(s0)
    3c10:	2972                	fld	fs2,280(sp)
    3c12:	0020                	addi	s0,sp,8
    3c14:	4c5f 5449 4c54      	0x4c5454494c5f
    3c1a:	5f45                	li	t5,-15
    3c1c:	4e45                	li	t3,17
    3c1e:	4944                	lw	s1,20(a0)
    3c20:	4e41                	li	t3,16
    3c22:	3120                	fld	fs0,96(a0)
    3c24:	3332                	fld	ft6,296(sp)
    3c26:	0034                	addi	a3,sp,8
    3c28:	5f5f 6f6c 6b63      	0x6b636f6c5f5f
    3c2e:	615f 7163 6975      	0x69757163615f
    3c34:	6572                	flw	fa0,28(sp)
    3c36:	6c28                	flw	fa0,88(s0)
    3c38:	296b636f          	jal	t1,b9ece <__global_pointer$+0x98e9e>
    3c3c:	2820                	fld	fs0,80(s0)
    3c3e:	435f 5341 5f54      	0x5f545341435f
    3c44:	4f56                	lw	t5,84(sp)
    3c46:	4449                	li	s0,18
    3c48:	3020                	fld	fs0,96(s0)
    3c4a:	0029                	c.addi	zero,10
    3c4c:	5f5f 4c46 3154      	0x31544c465f5f
    3c52:	3832                	fld	fa6,296(sp)
    3c54:	485f 5341 445f      	0x445f5341485f
    3c5a:	4e45                	li	t3,17
    3c5c:	5f4d524f          	fnmadd.q	ft4,fs10,fs4,fa1,unknown
    3c60:	205f 0031 535f      	0x535f0031205f
    3c66:	454c5f43          	0x454c5f43
    3c6a:	4556                	lw	a0,84(sp)
    3c6c:	324c                	fld	fa1,160(a2)
    3c6e:	435f 4341 4548      	0x45484341435f
    3c74:	415f 5353 434f      	0x434f5353415f
    3c7a:	3120                	fld	fs0,96(a0)
    3c7c:	5f003233          	0x5f003233
    3c80:	4c5f4353          	0x4c5f4353
    3c84:	5645                	li	a2,-15
    3c86:	4c45                	li	s8,17
    3c88:	5f34                	lw	a3,120(a4)
    3c8a:	48434143          	fmadd.s	ft2,ft6,ft4,fs1,rmm
    3c8e:	5f45                	li	t5,-15
    3c90:	455a4953          	0x455a4953
    3c94:	3120                	fld	fs0,96(a0)
    3c96:	5f003733          	0x5f003733
    3c9a:	4c5f 4e4f 5f47      	0x5f474e4f4c5f
    3ca0:	54444957          	0x54444957
    3ca4:	5f48                	lw	a0,60(a4)
    3ca6:	205f 3233 5f00      	0x5f003233205f
    3cac:	5f54                	lw	a3,60(a4)
    3cae:	41484357          	0x41484357
    3cb2:	5f52                	lw	t5,52(sp)
    3cb4:	0020                	addi	s0,sp,8
    3cb6:	5f5f 6177 6e72      	0x6e7261775f5f
    3cbc:	725f 6665 7265      	0x72656665725f
    3cc2:	6e65                	lui	t3,0x19
    3cc4:	28736563          	bltu	t1,t2,3f4e <_data-0x1c0b2>
    3cc8:	2c6d7973          	csrrci	s2,0x2c6,26
    3ccc:	736d                	lui	t1,0xffffb
    3cce:	5f202967          	0x5f202967
    3cd2:	615f 6d73 5f5f      	0x5f5f6d73615f
    3cd8:	2228                	fld	fa0,64(a2)
    3cda:	732e                	flw	ft6,232(sp)
    3cdc:	6365                	lui	t1,0x19
    3cde:	6974                	flw	fa3,84(a0)
    3ce0:	2e206e6f          	jal	t3,9fc2 <_data-0x1603e>
    3ce4:	2e756e67          	0x2e756e67
    3ce8:	6e726177          	0x6e726177
    3cec:	6e69                	lui	t3,0x1a
    3cee:	20222e67          	0x20222e67
    3cf2:	6d797323          	0x6d797323
    3cf6:	3b29                	jal	3a10 <_data-0x1c5f0>
    3cf8:	5f20                	lw	s0,120(a4)
    3cfa:	615f 6d73 5f5f      	0x5f5f6d73615f
    3d00:	2228                	fld	fa0,64(a2)
    3d02:	612e                	flw	ft2,200(sp)
    3d04:	7a696373          	csrrsi	t1,0x7a6,18
    3d08:	5c20                	lw	s0,120(s0)
    3d0a:	2222                	fld	ft4,8(sp)
    3d0c:	6d20                	flw	fs0,88(a0)
    3d0e:	22206773          	csrrsi	a4,0x222,0
    3d12:	225c                	fld	fa5,128(a2)
    3d14:	2922                	fld	fs2,8(sp)
    3d16:	5f5f203b          	0x5f5f203b
    3d1a:	7361                	lui	t1,0xffff8
    3d1c:	5f6d                	li	t5,-5
    3d1e:	285f 2e22 7270      	0x72702e22285f
    3d24:	7665                	lui	a2,0xffff9
    3d26:	6f69                	lui	t5,0x1a
    3d28:	7375                	lui	t1,0xffffd
    3d2a:	2922                	fld	fs2,8(sp)
    3d2c:	5f00                	lw	s0,56(a4)
    3d2e:	615f 7474 6972      	0x69727474615f
    3d34:	7562                	flw	fa0,56(sp)
    3d36:	6574                	flw	fa3,76(a0)
    3d38:	6d5f 6c61 6f6c      	0x6f6c6c616d5f
    3d3e:	205f5f63          	ble	t0,t5,3f5c <_data-0x1c0a4>
    3d42:	5700                	lw	s0,40(a4)
    3d44:	52414843          	fmadd.d	fa6,ft2,ft4,fa0,rmm
    3d48:	4d5f 5841 2820      	0x282058414d5f
    3d4e:	5f5f 4357 4148      	0x414843575f5f
    3d54:	5f52                	lw	t5,52(sp)
    3d56:	414d                	li	sp,19
    3d58:	5f58                	lw	a4,60(a4)
    3d5a:	295f 5f00 4353      	0x43535f00295f
    3d60:	585f 504f 4e45      	0x4e45504f585f
    3d66:	455f 484e 495f      	0x495f484e455f
    3d6c:	3831                	jal	3588 <_data-0x1ca78>
    3d6e:	204e                	fld	ft0,208(sp)
    3d70:	3739                	jal	3c7e <_data-0x1c382>
    3d72:	5f00                	lw	s0,56(a4)
    3d74:	465f 544c 485f      	0x485f544c465f
    3d7a:	5341                	li	t1,-16
    3d7c:	445f 4e45 524f      	0x524f4e45445f
    3d82:	5f4d                	li	t5,-13
    3d84:	205f 0031 4e5f      	0x4e5f0031205f
    3d8a:	5745                	li	a4,-15
    3d8c:	494c                	lw	a1,20(a0)
    3d8e:	5f42                	lw	t5,48(sp)
    3d90:	4556                	lw	a0,84(sp)
    3d92:	5352                	lw	t1,52(sp)
    3d94:	4f49                	li	t5,18
    3d96:	5f4e                	lw	t5,240(sp)
    3d98:	5f48                	lw	a0,60(a4)
    3d9a:	205f 0031 5f5f      	0x5f5f0031205f
    3da0:	5f434347          	fmsub.q	ft6,ft6,fs4,fa1,rmm
    3da4:	5441                	li	s0,-16
    3da6:	43494d4f          	fnmadd.d	fs10,fs2,fs4,fs0,rmm
    3daa:	4c5f 4e4f 5f47      	0x5f474e4f4c5f
    3db0:	4f4c                	lw	a1,28(a4)
    3db2:	465f4b43          	fmadd.q	fs6,ft10,ft5,fs0,rmm
    3db6:	4552                	lw	a0,20(sp)
    3db8:	2045                	jal	3e58 <_data-0x1c1a8>
    3dba:	0032                	0x32
    3dbc:	535f 5f43 454d      	0x454d5f43535f
    3dc2:	47415353          	0x47415353
    3dc6:	5f45                	li	t5,-15
    3dc8:	4150                	lw	a2,4(a0)
    3dca:	4e495353          	0x4e495353
    3dce:	37322047          	fmsub.q	ft0,ft4,fs3,ft6,rdn
    3dd2:	5f00                	lw	s0,56(a4)
    3dd4:	6e5f 6565 5f64      	0x5f6465656e5f
    3dda:	657a6973          	csrrsi	s2,0x657,20
    3dde:	745f 5f00 6d65      	0x6d655f00745f
    3de4:	7265                	lui	tp,0xffff9
    3de6:	636e6567          	0x636e6567
    3dea:	0079                	c.addi	zero,30
    3dec:	535f 5f43 4c43      	0x4c435f43535f
    3df2:	43545f4b          	fnmsub.d	ft10,fs0,fs5,fs0,unknown
    3df6:	0032204b          	fnmsub.s	ft0,ft4,ft3,ft0,rdn
    3dfa:	5f46                	lw	t5,112(sp)
    3dfc:	4f4c                	lw	a1,28(a4)
    3dfe:	31204b43          	fmadd.s	fs6,ft0,fs2,ft6,rmm
    3e02:	5f00                	lw	s0,56(a4)
    3e04:	465f 544c 525f      	0x525f544c465f
    3e0a:	4441                	li	s0,16
    3e0c:	5849                	li	a6,-14
    3e0e:	5f5f 3220 5f00      	0x5f0032205f5f
    3e14:	495f4353          	0x495f4353
    3e18:	5650                	lw	a2,44(a2)
    3e1a:	2036                	fld	ft0,328(sp)
    3e1c:	3736                	fld	fa4,360(sp)
    3e1e:	5f00                	lw	s0,56(a4)
    3e20:	465f 544c 3233      	0x3233544c465f
    3e26:	485f 5341 495f      	0x495f5341485f
    3e2c:	464e                	lw	a2,208(sp)
    3e2e:	4e49                	li	t3,18
    3e30:	5449                	li	s0,-14
    3e32:	5f59                	li	t5,-10
    3e34:	205f 0031 525f      	0x525f0031205f
    3e3a:	4545                	li	a0,17
    3e3c:	544e                	lw	s0,240(sp)
    3e3e:	525f 4e41 3444      	0x34444e41525f
    3e44:	5f38                	lw	a4,120(a4)
    3e46:	554d                	li	a0,-13
    3e48:	544c                	lw	a1,44(s0)
    3e4a:	7028                	flw	fa0,96(s0)
    3e4c:	7274                	flw	fa3,100(a2)
    3e4e:	2029                	jal	3e58 <_data-0x1c1a8>
    3e50:	2828                	fld	fa0,80(s0)
    3e52:	7470                	flw	fa2,108(s0)
    3e54:	2972                	fld	fs2,280(sp)
    3e56:	3e2d                	jal	3990 <_data-0x1c670>
    3e58:	6e5f 7765 5f2e      	0x5f2e77656e5f
    3e5e:	6572                	flw	fa0,28(sp)
    3e60:	6e65                	lui	t3,0x19
    3e62:	2e74                	fld	fa3,216(a2)
    3e64:	725f 3834 5f2e      	0x5f2e3834725f
    3e6a:	756d                	lui	a0,0xffffb
    3e6c:	746c                	flw	fa1,108(s0)
    3e6e:	0029                	c.addi	zero,10
    3e70:	4e49                	li	t3,18
    3e72:	3654                	fld	fa3,168(a2)
    3e74:	5f34                	lw	a3,120(a4)
    3e76:	414d                	li	sp,19
    3e78:	2058                	fld	fa4,128(s0)
    3e7a:	5f28                	lw	a0,120(a4)
    3e7c:	495f 544e 3436      	0x3436544e495f
    3e82:	4d5f 5841 5f5f      	0x5f5f58414d5f
    3e88:	0029                	c.addi	zero,10
    3e8a:	535f 5f43 4f58      	0x4f585f43535f
    3e90:	4550                	lw	a2,12(a0)
    3e92:	5f4e                	lw	t5,240(sp)
    3e94:	4552                	lw	a0,20(sp)
    3e96:	4c41                	li	s8,16
    3e98:	4954                	lw	a3,20(a0)
    3e9a:	454d                	li	a0,19
    3e9c:	545f 5248 4145      	0x41455248545f
    3ea2:	5344                	lw	s1,36(a4)
    3ea4:	3120                	fld	fs0,96(a0)
    3ea6:	3230                	fld	fa2,96(a2)
    3ea8:	5500                	lw	s0,40(a0)
    3eaa:	4e49                	li	t3,18
    3eac:	3354                	fld	fa3,160(a4)
    3eae:	5f32                	lw	t5,44(sp)
    3eb0:	414d                	li	sp,19
    3eb2:	2058                	fld	fa4,128(s0)
    3eb4:	5f28                	lw	a0,120(a4)
    3eb6:	555f 4e49 3354      	0x33544e49555f
    3ebc:	5f32                	lw	t5,44(sp)
    3ebe:	414d                	li	sp,19
    3ec0:	5f58                	lw	a4,60(a4)
    3ec2:	295f 4c00 635f      	0x635f4c00295f
    3ec8:	6574                	flw	fa3,76(a0)
    3eca:	6d72                	flw	fs10,28(sp)
    3ecc:	6469                	lui	s0,0x1a
    3ece:	3120                	fld	fs0,96(a0)
    3ed0:	0036                	0x36
    3ed2:	535f 5f43 5053      	0x50535f43535f
    3ed8:	5741                	li	a4,-16
    3eda:	204e                	fld	ft0,208(sp)
    3edc:	5f003537          	lui	a0,0x5f003
    3ee0:	775f 6863 7261      	0x72616863775f
    3ee6:	745f 5f5f 0020      	0x205f5f745f
    3eec:	505f 5f43 414d      	0x414d5f43505f
    3ef2:	5f58                	lw	a4,60(a4)
    3ef4:	4e49                	li	t3,18
    3ef6:	5550                	lw	a2,44(a0)
    3ef8:	2054                	fld	fa3,128(s0)
    3efa:	0032                	0x32
    3efc:	5f5f 444c 4c42      	0x4c42444c5f5f
    3f02:	485f 5341 515f      	0x515f5341485f
    3f08:	4955                	li	s2,21
    3f0a:	5445                	li	s0,-15
    3f0c:	4e5f 4e41 5f5f      	0x5f5f4e414e5f
    3f12:	3120                	fld	fs0,96(a0)
    3f14:	5f00                	lw	s0,56(a4)
    3f16:	6e5f 6565 5f64      	0x5f6465656e5f
    3f1c:	554e                	lw	a0,240(sp)
    3f1e:	4c4c                	lw	a1,28(s0)
    3f20:	5f00                	lw	s0,56(a4)
    3f22:	565f 4c41 5349      	0x53494c41565f
    3f28:	2054                	fld	fa3,128(s0)
    3f2a:	5f5f 6e67 6375      	0x63756e675f5f
    3f30:	765f 5f61 696c      	0x696c5f61765f
    3f36:	50007473          	csrrci	s0,0x500,0
    3f3a:	745f 706d 6964      	0x6964706d745f
    3f40:	2072                	fld	ft0,280(sp)
    3f42:	2f22                	fld	ft10,8(sp)
    3f44:	6d74                	flw	fa3,92(a0)
    3f46:	2270                	fld	fa2,192(a2)
    3f48:	5f00                	lw	s0,56(a4)
    3f4a:	4c5f 4e4f 5f47      	0x5f474e4f4c5f
    3f50:	4f4c                	lw	a1,28(a4)
    3f52:	474e                	lw	a4,208(sp)
    3f54:	575f 4449 4854      	0x48544449575f
    3f5a:	5f5f 3620 0034      	0x3436205f5f
    3f60:	5450                	lw	a2,44(s0)
    3f62:	5248                	lw	a0,36(a2)
    3f64:	4145                	li	sp,17
    3f66:	5f44                	lw	s1,60(a4)
    3f68:	504f4353          	0x504f4353
    3f6c:	5f45                	li	t5,-15
    3f6e:	54535953          	0x54535953
    3f72:	4d45                	li	s10,17
    3f74:	3120                	fld	fs0,96(a0)
    3f76:	5f00                	lw	s0,56(a4)
    3f78:	585f4353          	0x585f4353
    3f7c:	4e45504f          	fnmadd.q	ft0,fa0,ft4,fs1,unknown
    3f80:	555f 4355 2050      	0x20504355555f
    3f86:	3231                	jal	3892 <_data-0x1c76e>
    3f88:	0034                	addi	a3,sp,8
    3f8a:	525f 4545 544e      	0x544e4545525f
    3f90:	535f 5254 4f54      	0x4f545254535f
    3f96:	414c5f4b          	fnmsub.s	ft10,fs8,fs4,fs0,unknown
    3f9a:	70285453          	0x70285453
    3f9e:	7274                	flw	fa3,100(a2)
    3fa0:	2029                	jal	3faa <_data-0x1c056>
    3fa2:	2828                	fld	fa0,80(s0)
    3fa4:	7470                	flw	fa2,108(s0)
    3fa6:	2972                	fld	fs2,280(sp)
    3fa8:	3e2d                	jal	3ae2 <_data-0x1c51e>
    3faa:	6e5f 7765 5f2e      	0x5f2e77656e5f
    3fb0:	6572                	flw	fa0,28(sp)
    3fb2:	6e65                	lui	t3,0x19
    3fb4:	2e74                	fld	fa3,216(a2)
    3fb6:	735f 7274 6f74      	0x6f747274735f
    3fbc:	616c5f6b          	0x616c5f6b
    3fc0:	00297473          	csrrci	s0,frm,18
    3fc4:	425f 4453 5954      	0x59544453425f
    3fca:	4550                	lw	a2,12(a0)
    3fcc:	45445f53          	0x45445f53
    3fd0:	4946                	lw	s2,80(sp)
    3fd2:	454e                	lw	a0,208(sp)
    3fd4:	2044                	fld	fs1,128(s0)
    3fd6:	5f00                	lw	s0,56(a4)
    3fd8:	4552                	lw	a0,20(sp)
    3fda:	4e45                	li	t3,17
    3fdc:	5f54                	lw	a3,60(a4)
    3fde:	43454843          	fmadd.d	fa6,fa0,fs4,fs0,rmm
    3fe2:	53415f4b          	fnmsub.d	ft10,ft2,fs4,fa0,unknown
    3fe6:	4d495443          	0x4d495443
    3fea:	5f45                	li	t5,-15
    3fec:	5542                	lw	a0,48(sp)
    3fee:	2846                	fld	fa6,80(sp)
    3ff0:	7470                	flw	fa2,108(s0)
    3ff2:	2972                	fld	fs2,280(sp)
    3ff4:	0020                	addi	s0,sp,8
    3ff6:	5f5f 6972 6373      	0x637369725f5f
    3ffc:	5f76                	lw	t5,124(sp)
    3ffe:	646f6d63          	bltu	t5,t1,4658 <_data-0x1b9a8>
    4002:	6c65                	lui	s8,0x19
    4004:	6d5f 6465 6f6c      	0x6f6c64656d5f
    400a:	00312077          	0x312077
    400e:	5f5f 4e49 5054      	0x50544e495f5f
    4014:	5254                	lw	a3,36(a2)
    4016:	575f 4449 4854      	0x48544449575f
    401c:	5f5f 3320 0032      	0x3233205f5f
    4022:	5f5f 6f6c 6b63      	0x6b636f6c5f5f
    4028:	725f 6c65 6165      	0x61656c65725f
    402e:	6c286573          	csrrsi	a0,0x6c2,16
    4032:	296b636f          	jal	t1,ba2c8 <__global_pointer$+0x99298>
    4036:	2820                	fld	fs0,80(s0)
    4038:	435f 5341 5f54      	0x5f545341435f
    403e:	4f56                	lw	t5,84(sp)
    4040:	4449                	li	s0,18
    4042:	3020                	fld	fs0,96(s0)
    4044:	0029                	c.addi	zero,10
    4046:	535f 5f43 454c      	0x454c5f43535f
    404c:	4556                	lw	a0,84(sp)
    404e:	314c                	fld	fa1,160(a0)
    4050:	495f 4143 4843      	0x48434143495f
    4056:	5f45                	li	t5,-15
    4058:	494c                	lw	a1,20(a0)
    405a:	454e                	lw	a0,208(sp)
    405c:	455a4953          	0x455a4953
    4060:	3120                	fld	fs0,96(a0)
    4062:	3732                	fld	fa4,296(sp)
    4064:	5f00                	lw	s0,56(a4)
    4066:	425f4353          	0x425f4353
    406a:	43535f43          	fmadd.d	ft10,ft6,fs5,fs0,unknown
    406e:	4c41                	li	s8,16
    4070:	5f45                	li	t5,-15
    4072:	414d                	li	sp,19
    4074:	2058                	fld	fa4,128(s0)
    4076:	3935                	jal	3cb2 <_data-0x1c34e>
    4078:	5f00                	lw	s0,56(a4)
    407a:	5f535953          	0x5f535953
    407e:	454c4553          	0x454c4553
    4082:	485f5443          	fmadd.s	fs0,ft10,ft5,fs1,unknown
    4086:	0020                	addi	s0,sp,8
    4088:	6974                	flw	fa3,84(a0)
    408a:	656d                	lui	a0,0x1b
    408c:	6372                	flw	ft6,28(sp)
    408e:	656c                	flw	fa1,76(a0)
    4090:	7261                	lui	tp,0xffff8
    4092:	7428                	flw	fa0,104(s0)
    4094:	7076                	flw	ft0,124(sp)
    4096:	2029                	jal	40a0 <_data-0x1bf60>
    4098:	2828                	fld	fa0,80(s0)
    409a:	7674                	flw	fa3,108(a2)
    409c:	2970                	fld	fa2,208(a0)
    409e:	3e2d                	jal	3bd8 <_data-0x1c428>
    40a0:	7674                	flw	fa3,108(a2)
    40a2:	735f 6365 3d20      	0x3d206365735f
    40a8:	2820                	fld	fs0,80(s0)
    40aa:	7674                	flw	fa3,108(a2)
    40ac:	2970                	fld	fa2,208(a0)
    40ae:	3e2d                	jal	3be8 <_data-0x1c418>
    40b0:	7674                	flw	fa3,108(a2)
    40b2:	755f 6573 2063      	0x20636573755f
    40b8:	203d                	jal	40e6 <_data-0x1bf1a>
    40ba:	2930                	fld	fa2,80(a0)
    40bc:	5f00                	lw	s0,56(a4)
    40be:	6d6e                	flw	fs10,216(sp)
    40c0:	6c61                	lui	s8,0x18
    40c2:	6f6c                	flw	fa1,92(a4)
    40c4:	5f5f0063          	beq	t5,s5,46a4 <_data-0x1b95c>
    40c8:	4c46                	lw	s8,80(sp)
    40ca:	3654                	fld	fa3,168(a2)
    40cc:	5f34                	lw	a3,120(a4)
    40ce:	414d                	li	sp,19
    40d0:	5f58                	lw	a4,60(a4)
    40d2:	5845                	li	a6,-15
    40d4:	5f50                	lw	a2,60(a4)
    40d6:	205f 3031 3432      	0x34323031205f
    40dc:	5f00                	lw	s0,56(a4)
    40de:	575f 4843 5241      	0x52414843575f
    40e4:	545f 0020 424d      	0x424d0020545f
    40ea:	435f 5255 4d5f      	0x4d5f5255435f
    40f0:	5841                	li	a6,-16
    40f2:	5f20                	lw	s0,120(a4)
    40f4:	6c5f 636f 6c61      	0x6c61636f6c5f
    40fa:	5f65                	li	t5,-7
    40fc:	626d                	lui	tp,0x1b
    40fe:	635f 7275 6d5f      	0x6d5f7275635f
    4104:	7861                	lui	a6,0xffff8
    4106:	2928                	fld	fa0,80(a0)
    4108:	5f00                	lw	s0,56(a4)
    410a:	4950                	lw	a2,20(a0)
    410c:	5f44                	lw	s1,60(a4)
    410e:	5f54                	lw	a3,60(a4)
    4110:	4544                	lw	s1,12(a0)
    4112:	52414c43          	fmadd.d	fs8,ft2,ft4,fa0,rmm
    4116:	4445                	li	s0,17
    4118:	0020                	addi	s0,sp,8
    411a:	5f5f 695f 746e      	0x746e695f5f5f
    4120:	745f3233          	0x745f3233
    4124:	645f 6665 6e69      	0x6e696665645f
    412a:	6465                	lui	s0,0x19
    412c:	3120                	fld	fs0,96(a0)
    412e:	5f00                	lw	s0,56(a4)
    4130:	6d6d6167          	0x6d6d6167
    4134:	5f61                	li	t5,-8
    4136:	6e676973          	csrrsi	s2,0x6e6,14
    413a:	006d6167          	0x6d6167
    413e:	485f 5641 5f45      	0x5f455641485f
    4144:	495f4343          	fmadd.s	ft6,ft10,fs5,fs1,rmm
    4148:	484e                	lw	a6,208(sp)
    414a:	4249                	li	tp,18
    414c:	5449                	li	s0,-14
    414e:	4c5f 4f4f 5f50      	0x5f504f4f4c5f
    4154:	4f54                	lw	a3,28(a4)
    4156:	4c5f 4249 4143      	0x414342494c5f
    415c:	4c4c                	lw	a1,28(s0)
    415e:	3120                	fld	fs0,96(a0)
    4160:	5f00                	lw	s0,56(a4)
    4162:	535f 5245 2052      	0x20525245535f
    4168:	7830                	flw	fa2,112(s0)
    416a:	3030                	fld	fa2,96(s0)
    416c:	3034                	fld	fa3,96(s0)
    416e:	5f00                	lw	s0,56(a4)
    4170:	575f 4e49 5f54      	0x5f544e49575f
    4176:	54444957          	0x54444957
    417a:	5f48                	lw	a0,60(a4)
    417c:	205f 3233 5f00      	0x5f003233205f
    4182:	495f 544e 3436      	0x3436544e495f
    4188:	545f 5059 5f45      	0x5f455059545f
    418e:	205f 6f6c 676e      	0x676e6f6c205f
    4194:	6c20                	flw	fs0,88(s0)
    4196:	20676e6f          	jal	t3,7a39c <__global_pointer$+0x5936c>
    419a:	6e69                	lui	t3,0x1a
    419c:	0074                	addi	a3,sp,12
    419e:	5f5f 7274 6c79      	0x6c7972745f5f
    41a4:	736b636f          	jal	t1,ba8da <__global_pointer$+0x998aa>
    41a8:	655f 6378 756c      	0x756c6378655f
    41ae:	65766973          	csrrsi	s2,0x657,12
    41b2:	2e28                	fld	fa0,88(a2)
    41b4:	2e2e                	fld	ft8,200(sp)
    41b6:	2029                	jal	41c0 <_data-0x1be40>
    41b8:	5f5f 6f6c 6b63      	0x6b636f6c5f5f
    41be:	615f 6e6e 746f      	0x746f6e6e615f
    41c4:	7461                	lui	s0,0xffff8
    41c6:	2865                	jal	427e <_data-0x1bd82>
    41c8:	7865                	lui	a6,0xffff9
    41ca:	73756c63          	bltu	a0,s7,4902 <_data-0x1b6fe>
    41ce:	7669                	lui	a2,0xffffa
    41d0:	5f65                	li	t5,-7
    41d2:	7274                	flw	fa3,100(a2)
    41d4:	6c79                	lui	s8,0x1e
    41d6:	5f6b636f          	jal	t1,ba7cc <__global_pointer$+0x9979c>
    41da:	7566                	flw	fa0,120(sp)
    41dc:	636e                	flw	ft6,216(sp)
    41de:	6974                	flw	fa3,84(a0)
    41e0:	5f286e6f          	jal	t3,8a7d2 <__global_pointer$+0x697a2>
    41e4:	565f 5f41 5241      	0x52415f41565f
    41ea:	5f5f5347          	fmsub.q	ft6,ft10,fs5,fa1,unknown
    41ee:	2929                	jal	4608 <_data-0x1b9f8>
    41f0:	5f00                	lw	s0,56(a4)
    41f2:	435f 4148 5f52      	0x5f524148435f
    41f8:	4942                	lw	s2,16(sp)
    41fa:	5f54                	lw	a3,60(a4)
    41fc:	205f 0038 495f      	0x495f0038205f
    4202:	46424e4f          	fnmadd.q	ft8,ft4,ft4,fs0,rmm
    4206:	3220                	fld	fs0,96(a2)
    4208:	5f00                	lw	s0,56(a4)
    420a:	535f 5a49 4f45      	0x4f455a49535f
    4210:	5f46                	lw	t5,112(sp)
    4212:	41484357          	0x41484357
    4216:	5f52                	lw	t5,52(sp)
    4218:	5f54                	lw	a3,60(a4)
    421a:	205f 0034 735f      	0x735f0034205f
    4220:	6474                	flw	fa3,76(s0)
    4222:	6e69                	lui	t3,0x1a
    4224:	725f 7828 2029      	0x20297828725f
    422a:	2828                	fld	fa0,80(s0)
    422c:	2978                	fld	fa4,208(a0)
    422e:	3e2d                	jal	3d68 <_data-0x1c298>
    4230:	735f 6474 6e69      	0x6e696474735f
    4236:	0029                	c.addi	zero,10
    4238:	535f 5f43 4552      	0x45525f43535f
    423e:	445f 5055 4d5f      	0x4d5f5055445f
    4244:	5841                	li	a6,-16
    4246:	3720                	fld	fs0,104(a4)
    4248:	5f5f0033          	0x5f5f0033
    424c:	5342                	lw	t1,48(sp)
    424e:	5f44                	lw	s1,60(a4)
    4250:	4956                	lw	s2,84(sp)
    4252:	4c424953          	0x4c424953
    4256:	2045                	jal	42f6 <_data-0x1bd0a>
    4258:	0031                	c.addi	zero,12
    425a:	535f 5f43 4f58      	0x4f585f43535f
    4260:	4550                	lw	a2,12(a0)
    4262:	5f4e                	lw	t5,240(sp)
    4264:	204d4853          	0x204d4853
    4268:	3031                	jal	3a74 <_data-0x1c58c>
    426a:	5f5f0033          	0x5f5f0033
    426e:	6f6e                	flw	ft10,216(sp)
    4270:	6e6e                	flw	ft8,216(sp)
    4272:	6c75                	lui	s8,0x1d
    4274:	5f6c                	lw	a1,124(a4)
    4276:	6c61                	lui	s8,0x18
    4278:	206c                	fld	fa1,192(s0)
    427a:	5f5f 7461 7274      	0x727474615f5f
    4280:	6269                	lui	tp,0x1a
    4282:	7475                	lui	s0,0xffffd
    4284:	5f65                	li	t5,-7
    4286:	285f 5f28 6e5f      	0x6e5f5f28285f
    428c:	756e6e6f          	jal	t3,ea9e2 <__global_pointer$+0xc99b2>
    4290:	6c6c                	flw	fa1,92(s0)
    4292:	5f5f 2929 5f00      	0x5f0029295f5f
    4298:	4552                	lw	a0,20(sp)
    429a:	4e45                	li	t3,17
    429c:	5f54                	lw	a3,60(a4)
    429e:	424d                	li	tp,19
    42a0:	4f545253          	0x4f545253
    42a4:	5f534357          	0x5f534357
    42a8:	54415453          	0x54415453
    42ac:	2845                	jal	435c <_data-0x1bca4>
    42ae:	7470                	flw	fa2,108(s0)
    42b0:	2972                	fld	fs2,280(sp)
    42b2:	2820                	fld	fs0,80(s0)
    42b4:	7028                	flw	fa0,96(s0)
    42b6:	7274                	flw	fa3,100(a2)
    42b8:	2d29                	jal	48d2 <_data-0x1b72e>
    42ba:	5f3e                	lw	t5,236(sp)
    42bc:	656e                	flw	fa0,216(sp)
    42be:	725f2e77          	0x725f2e77
    42c2:	6565                	lui	a0,0x19
    42c4:	746e                	flw	fs0,248(sp)
    42c6:	5f2e                	lw	t5,232(sp)
    42c8:	626d                	lui	tp,0x1b
    42ca:	6f747273          	csrrci	tp,0x6f7,8
    42ce:	5f736377          	0x5f736377
    42d2:	74617473          	csrrci	s0,0x746,2
    42d6:	2965                	jal	478e <_data-0x1b872>
    42d8:	5f00                	lw	s0,56(a4)
    42da:	535f4353          	0x535f4353
    42de:	4f50                	lw	a2,28(a4)
    42e0:	4152                	lw	sp,20(sp)
    42e2:	4944                	lw	s1,20(a0)
    42e4:	45535f43          	0x45535f43
    42e8:	5652                	lw	a2,52(sp)
    42ea:	5245                	li	tp,-15
    42ec:	3720                	fld	fs0,104(a4)
    42ee:	535f0037          	lui	zero,0x535f0
    42f2:	5f325f43          	fmadd.q	ft10,ft4,fs3,fa1,unknown
    42f6:	4556                	lw	a0,84(sp)
    42f8:	5352                	lw	t1,52(sp)
    42fa:	4f49                	li	t5,18
    42fc:	204e                	fld	ft0,208(sp)
    42fe:	3231                	jal	3c0a <_data-0x1c3f6>
    4300:	0031                	c.addi	zero,12
    4302:	665f 6572 6c65      	0x6c656572665f
    4308:	7369                	lui	t1,0xffffa
    430a:	0074                	addi	a3,sp,12
    430c:	485f 5641 5f45      	0x5f455641485f
    4312:	43445453          	0x43445453
    4316:	0020                	addi	s0,sp,8
    4318:	525f 4545 544e      	0x544e4545525f
    431e:	4d5f 5242 454c      	0x454c52424d5f
    4324:	5f4e                	lw	t5,240(sp)
    4326:	54415453          	0x54415453
    432a:	2845                	jal	43da <_data-0x1bc26>
    432c:	7470                	flw	fa2,108(s0)
    432e:	2972                	fld	fs2,280(sp)
    4330:	2820                	fld	fs0,80(s0)
    4332:	7028                	flw	fa0,96(s0)
    4334:	7274                	flw	fa3,100(a2)
    4336:	2d29                	jal	4950 <_data-0x1b6b0>
    4338:	5f3e                	lw	t5,236(sp)
    433a:	656e                	flw	fa0,216(sp)
    433c:	725f2e77          	0x725f2e77
    4340:	6565                	lui	a0,0x19
    4342:	746e                	flw	fs0,248(sp)
    4344:	5f2e                	lw	t5,232(sp)
    4346:	626d                	lui	tp,0x1b
    4348:	6c72                	flw	fs8,28(sp)
    434a:	6e65                	lui	t3,0x19
    434c:	735f 6174 6574      	0x65746174735f
    4352:	0029                	c.addi	zero,10
    4354:	5f5f 695f 746e      	0x746e695f5f5f
    435a:	6c5f 6165 7473      	0x747361656c5f
    4360:	3436                	fld	fs0,360(sp)
    4362:	745f 645f 6665      	0x6665645f745f
    4368:	6e69                	lui	t3,0x1a
    436a:	6465                	lui	s0,0x19
    436c:	3120                	fld	fs0,96(a0)
    436e:	5f00                	lw	s0,56(a4)
    4370:	4954                	lw	a3,20(a0)
    4372:	454d                	li	a0,19
    4374:	545f 445f 4345      	0x4345445f545f
    437a:	414c                	lw	a1,4(a0)
    437c:	4552                	lw	a0,20(sp)
    437e:	2044                	fld	fs1,128(s0)
    4380:	5f00                	lw	s0,56(a4)
    4382:	545f 5248 574f      	0x574f5248545f
    4388:	0020                	addi	s0,sp,8
    438a:	675f 756c 0065      	0x65756c675f
    4390:	6d5f 7362 6174      	0x617473626d5f
    4396:	6574                	flw	fa3,76(a0)
    4398:	745f 5f00 6973      	0x69735f00745f
    439e:	5f006e67          	0x5f006e67
    43a2:	4552                	lw	a0,20(sp)
    43a4:	4e45                	li	t3,17
    43a6:	5f54                	lw	a3,60(a4)
    43a8:	364c                	fld	fa1,168(a2)
    43aa:	4134                	lw	a3,64(a0)
    43ac:	425f 4655 7028      	0x70284655425f
    43b2:	7274                	flw	fa3,100(a2)
    43b4:	2029                	jal	43be <_data-0x1bc42>
    43b6:	2828                	fld	fa0,80(s0)
    43b8:	7470                	flw	fa2,108(s0)
    43ba:	2972                	fld	fs2,280(sp)
    43bc:	3e2d                	jal	3ef6 <_data-0x1c10a>
    43be:	6e5f 7765 5f2e      	0x5f2e77656e5f
    43c4:	6572                	flw	fa0,28(sp)
    43c6:	6e65                	lui	t3,0x19
    43c8:	2e74                	fld	fa3,216(a2)
    43ca:	6c5f 3436 5f61      	0x5f6134366c5f
    43d0:	7562                	flw	fa0,56(sp)
    43d2:	2966                	fld	fs2,88(sp)
    43d4:	5f00                	lw	s0,56(a4)
    43d6:	5441                	li	s0,-16
    43d8:	4946                	lw	s2,80(sp)
    43da:	454c                	lw	a1,12(a0)
    43dc:	535f 554f 4352      	0x4352554f535f
    43e2:	2045                	jal	4482 <_data-0x1bb7e>
    43e4:	0031                	c.addi	zero,12
    43e6:	5f5f 5453 4944      	0x494454535f5f
    43ec:	544e                	lw	s0,240(sp)
    43ee:	455f 5058 7828      	0x78285058455f
    43f4:	2029                	jal	43fe <_data-0x1bc02>
    43f6:	5f5f 2320 7823      	0x782323205f5f
    43fc:	2320                	fld	fs0,64(a4)
    43fe:	005f5f23          	0x5f5f23
    4402:	5f5f 5845 2850      	0x285058455f5f
    4408:	2978                	fld	fa4,208(a0)
    440a:	5f20                	lw	s0,120(a4)
    440c:	205f 2323 2078      	0x20782323205f
    4412:	5f5f2323          	sw	s5,1510(t5) # 1a5e6 <_data-0x5a1a>
    4416:	5f00                	lw	s0,56(a4)
    4418:	425f 5459 5f45      	0x5f455459425f
    441e:	4544524f          	0x4544524f
    4422:	5f52                	lw	t5,52(sp)
    4424:	205f 5f5f 524f      	0x524f5f5f205f
    442a:	4544                	lw	s1,12(a0)
    442c:	5f52                	lw	t5,52(sp)
    442e:	494c                	lw	a1,20(a0)
    4430:	5454                	lw	a3,44(s0)
    4432:	454c                	lw	a1,12(a0)
    4434:	455f 444e 4149      	0x4149444e455f
    443a:	5f4e                	lw	t5,240(sp)
    443c:	005f 5f5f 4c46      	0x4c465f5f005f
    4442:	5f54                	lw	a3,60(a4)
    4444:	494d                	li	s2,19
    4446:	5f4e                	lw	t5,240(sp)
    4448:	5845                	li	a6,-15
    444a:	5f50                	lw	a2,60(a4)
    444c:	205f 2d28 3231      	0x32312d28205f
    4452:	2935                	jal	488e <_data-0x1b772>
    4454:	5f00                	lw	s0,56(a4)
    4456:	575f 4843 5241      	0x52414843575f
    445c:	545f 5059 5f45      	0x5f455059545f
    4462:	205f 6e69 0074      	0x746e69205f
    4468:	5f5f 6673 6f65      	0x6f6566735f5f
    446e:	2866                	fld	fa6,88(sp)
    4470:	2970                	fld	fa2,208(a0)
    4472:	2820                	fld	fs0,80(s0)
    4474:	6928                	flw	fa0,80(a0)
    4476:	746e                	flw	fs0,248(sp)
    4478:	2829                	jal	4492 <_data-0x1bb6e>
    447a:	2828                	fld	fa0,80(s0)
    447c:	2970                	fld	fa2,208(a0)
    447e:	3e2d                	jal	3fb8 <_data-0x1c048>
    4480:	665f 616c 7367      	0x7367616c665f
    4486:	2620                	fld	fs0,72(a2)
    4488:	5f20                	lw	s0,120(a4)
    448a:	535f 4f45 2946      	0x29464f45535f
    4490:	2120                	fld	fs0,64(a0)
    4492:	203d                	jal	44c0 <_data-0x1bb40>
    4494:	2930                	fld	fa2,80(a0)
    4496:	0029                	c.addi	zero,10
    4498:	4955                	li	s2,21
    449a:	544e                	lw	s0,240(sp)
    449c:	414d                	li	sp,19
    449e:	5f58                	lw	a4,60(a4)
    44a0:	29782843          	fmadd.s	fa6,fa6,fs7,ft5,rdn
    44a4:	5f20                	lw	s0,120(a4)
    44a6:	555f 4e49 4d54      	0x4d544e49555f
    44ac:	5841                	li	a6,-16
    44ae:	435f 7828 0029      	0x297828435f
    44b4:	5f5f 4c46 3654      	0x36544c465f5f
    44ba:	5834                	lw	a3,112(s0)
    44bc:	445f 4749 5f5f      	0x5f5f4749445f
    44c2:	3320                	fld	fs0,96(a4)
    44c4:	4f450033          	0x4f450033
    44c8:	2046                	fld	ft0,80(sp)
    44ca:	2d28                	fld	fa0,88(a0)
    44cc:	2931                	jal	48e8 <_data-0x1b718>
    44ce:	7400                	flw	fs0,40(s0)
    44d0:	6d69                	lui	s10,0x1a
    44d2:	7265                	lui	tp,0xffff9
    44d4:	28627573          	csrrci	a0,0x286,4
    44d8:	7674                	flw	fa3,108(a2)
    44da:	2c70                	fld	fa2,216(s0)
    44dc:	7675                	lui	a2,0xffffd
    44de:	2c70                	fld	fa2,216(s0)
    44e0:	7676                	flw	fa2,124(sp)
    44e2:	2970                	fld	fa2,208(a0)
    44e4:	6420                	flw	fs0,72(s0)
    44e6:	207b206f          	j	b6eec <__global_pointer$+0x95ebc>
    44ea:	7628                	flw	fa0,104(a2)
    44ec:	7076                	flw	ft0,124(sp)
    44ee:	2d29                	jal	4b08 <_data-0x1b4f8>
    44f0:	743e                	flw	fs0,236(sp)
    44f2:	5f76                	lw	t5,124(sp)
    44f4:	20636573          	csrrsi	a0,0x206,6
    44f8:	203d                	jal	4526 <_data-0x1bada>
    44fa:	7428                	flw	fa0,104(s0)
    44fc:	7076                	flw	ft0,124(sp)
    44fe:	2d29                	jal	4b18 <_data-0x1b4e8>
    4500:	743e                	flw	fs0,236(sp)
    4502:	5f76                	lw	t5,124(sp)
    4504:	20636573          	csrrsi	a0,0x206,6
    4508:	202d                	jal	4532 <_data-0x1bace>
    450a:	7528                	flw	fa0,104(a0)
    450c:	7076                	flw	ft0,124(sp)
    450e:	2d29                	jal	4b28 <_data-0x1b4d8>
    4510:	743e                	flw	fs0,236(sp)
    4512:	5f76                	lw	t5,124(sp)
    4514:	3b636573          	csrrsi	a0,pmpaddr6,6
    4518:	2820                	fld	fs0,80(s0)
    451a:	7676                	flw	fa2,124(sp)
    451c:	2970                	fld	fa2,208(a0)
    451e:	3e2d                	jal	4058 <_data-0x1bfa8>
    4520:	7674                	flw	fa3,108(a2)
    4522:	755f 6573 2063      	0x20636573755f
    4528:	203d                	jal	4556 <_data-0x1baaa>
    452a:	7428                	flw	fa0,104(s0)
    452c:	7076                	flw	ft0,124(sp)
    452e:	2d29                	jal	4b48 <_data-0x1b4b8>
    4530:	743e                	flw	fs0,236(sp)
    4532:	5f76                	lw	t5,124(sp)
    4534:	7375                	lui	t1,0xffffd
    4536:	6365                	lui	t1,0x19
    4538:	2d20                	fld	fs0,88(a0)
    453a:	2820                	fld	fs0,80(s0)
    453c:	7675                	lui	a2,0xffffd
    453e:	2970                	fld	fa2,208(a0)
    4540:	3e2d                	jal	407a <_data-0x1bf86>
    4542:	7674                	flw	fa3,108(a2)
    4544:	755f 6573 3b63      	0x3b636573755f
    454a:	6920                	flw	fs0,80(a0)
    454c:	2066                	fld	ft0,88(sp)
    454e:	2828                	fld	fa0,80(s0)
    4550:	7676                	flw	fa2,124(sp)
    4552:	2970                	fld	fa2,208(a0)
    4554:	3e2d                	jal	408e <_data-0x1bf72>
    4556:	7674                	flw	fa3,108(a2)
    4558:	755f 6573 2063      	0x20636573755f
    455e:	203c                	fld	fa5,64(s0)
    4560:	2930                	fld	fa2,80(a0)
    4562:	7b20                	flw	fs0,112(a4)
    4564:	2820                	fld	fs0,80(s0)
    4566:	7676                	flw	fa2,124(sp)
    4568:	2970                	fld	fa2,208(a0)
    456a:	3e2d                	jal	40a4 <_data-0x1bf5c>
    456c:	7674                	flw	fa3,108(a2)
    456e:	735f 6365 2d2d      	0x2d2d6365735f
    4574:	7628203b          	0x7628203b
    4578:	7076                	flw	ft0,124(sp)
    457a:	2d29                	jal	4b94 <_data-0x1b46c>
    457c:	743e                	flw	fs0,236(sp)
    457e:	5f76                	lw	t5,124(sp)
    4580:	7375                	lui	t1,0xffffd
    4582:	6365                	lui	t1,0x19
    4584:	2b20                	fld	fs0,80(a4)
    4586:	203d                	jal	45b4 <_data-0x1ba4c>
    4588:	3031                	jal	3d94 <_data-0x1c26c>
    458a:	3030                	fld	fa2,96(s0)
    458c:	3030                	fld	fa2,96(s0)
    458e:	3b30                	fld	fa2,112(a4)
    4590:	7d20                	flw	fs0,120(a0)
    4592:	7d20                	flw	fs0,120(a0)
    4594:	7720                	flw	fs0,104(a4)
    4596:	6968                	flw	fa0,84(a0)
    4598:	656c                	flw	fa1,76(a0)
    459a:	2820                	fld	fs0,80(s0)
    459c:	2930                	fld	fa2,80(a0)
    459e:	5500                	lw	s0,40(a0)
    45a0:	4e49                	li	t3,18
    45a2:	5f54                	lw	a3,60(a4)
    45a4:	454c                	lw	a1,12(a0)
    45a6:	5341                	li	t1,-16
    45a8:	3654                	fld	fa3,168(a2)
    45aa:	5f34                	lw	a3,120(a4)
    45ac:	414d                	li	sp,19
    45ae:	2058                	fld	fa4,128(s0)
    45b0:	5f28                	lw	a0,120(a4)
    45b2:	555f 4e49 5f54      	0x5f544e49555f
    45b8:	454c                	lw	a1,12(a0)
    45ba:	5341                	li	t1,-16
    45bc:	3654                	fld	fa3,168(a2)
    45be:	5f34                	lw	a3,120(a4)
    45c0:	414d                	li	sp,19
    45c2:	5f58                	lw	a4,60(a4)
    45c4:	295f 5f00 575f      	0x575f5f00295f
    45ca:	4e49                	li	t3,18
    45cc:	5f54                	lw	a3,60(a4)
    45ce:	5954                	lw	a3,52(a0)
    45d0:	4550                	lw	a2,12(a0)
    45d2:	5f5f 7520 736e      	0x736e75205f5f
    45d8:	6769                	lui	a4,0x1a
    45da:	656e                	flw	fa0,216(sp)
    45dc:	2064                	fld	fs1,192(s0)
    45de:	6e69                	lui	t3,0x1a
    45e0:	0074                	addi	a3,sp,12
    45e2:	5f5f 4e47 4355      	0x43554e475f5f
    45e8:	494c                	lw	a1,20(a0)
    45ea:	425f454b          	fnmsub.d	fa0,ft10,ft5,fs0,rmm
    45ee:	4955                	li	s2,21
    45f0:	544c                	lw	a1,44(s0)
    45f2:	4e49                	li	t3,18
    45f4:	4d5f 4d45 5043      	0x50434d454d5f
    45fa:	2059                	jal	4680 <_data-0x1b980>
    45fc:	0031                	c.addi	zero,12
    45fe:	535f 5f43 4342      	0x43425f43535f
    4604:	445f 4d49 4d5f      	0x4d5f4d49445f
    460a:	5841                	li	a6,-16
    460c:	3520                	fld	fs0,104(a0)
    460e:	0038                	addi	a4,sp,8
    4610:	535f 5f43 4f4c      	0x4f4c5f43535f
    4616:	5f4e4947          	fmsub.q	fs2,ft8,fs4,fa1,rmm
    461a:	414e                	lw	sp,208(sp)
    461c:	454d                	li	a0,19
    461e:	4d5f 5841 3520      	0x352058414d5f
    4624:	0032                	0x32
    4626:	5f5f 4553 464f      	0x464f45535f5f
    462c:	3020                	fld	fs0,96(s0)
    462e:	3078                	fld	fa4,224(s0)
    4630:	3230                	fld	fa2,96(a2)
    4632:	0030                	addi	a2,sp,8
    4634:	665f 616c 7367      	0x7367616c665f
    463a:	0032                	0x32
    463c:	655f 6978 0074      	0x746978655f
    4642:	4e49                	li	t3,18
    4644:	3854                	fld	fa3,176(s0)
    4646:	4d5f 5841 2820      	0x282058414d5f
    464c:	5f5f 4e49 3854      	0x38544e495f5f
    4652:	4d5f 5841 5f5f      	0x5f5f58414d5f
    4658:	0029                	c.addi	zero,10
    465a:	495f 4f4e 545f      	0x545f4f4e495f
    4660:	445f 4345 414c      	0x414c4345445f
    4666:	4552                	lw	a0,20(sp)
    4668:	2044                	fld	fs1,128(s0)
    466a:	5f00                	lw	s0,56(a4)
    466c:	4955                	li	s2,21
    466e:	5f44                	lw	s1,60(a4)
    4670:	5f54                	lw	a3,60(a4)
    4672:	4544                	lw	s1,12(a0)
    4674:	52414c43          	fmadd.d	fs8,ft2,ft4,fa0,rmm
    4678:	4445                	li	s0,17
    467a:	0020                	addi	s0,sp,8
    467c:	535f 5a49 5445      	0x54455a49535f
    4682:	205f 5f00 465f      	0x465f5f00205f
    4688:	544c                	lw	a1,44(s0)
    468a:	3436                	fld	fs0,360(sp)
    468c:	485f 5341 515f      	0x515f5341485f
    4692:	4955                	li	s2,21
    4694:	5445                	li	s0,-15
    4696:	4e5f 4e41 5f5f      	0x5f5f4e414e5f
    469c:	3120                	fld	fs0,96(a0)
    469e:	5f00                	lw	s0,56(a4)
    46a0:	635f 6f6c 6b63      	0x6b636f6c635f
    46a6:	745f 645f 6665      	0x6665645f745f
    46ac:	6e69                	lui	t3,0x1a
    46ae:	6465                	lui	s0,0x19
    46b0:	0020                	addi	s0,sp,8
    46b2:	4955                	li	s2,21
    46b4:	544e                	lw	s0,240(sp)
    46b6:	465f 5341 3854      	0x38545341465f
    46bc:	4d5f 5841 2820      	0x282058414d5f
    46c2:	5f5f 4955 544e      	0x544e49555f5f
    46c8:	465f 5341 3854      	0x38545341465f
    46ce:	4d5f 5841 5f5f      	0x5f5f58414d5f
    46d4:	0029                	c.addi	zero,10
    46d6:	4d54                	lw	a3,28(a0)
    46d8:	5f50                	lw	a2,60(a4)
    46da:	414d                	li	sp,19
    46dc:	2058                	fld	fa4,128(s0)
    46de:	3632                	fld	fa2,296(sp)
    46e0:	5f00                	lw	s0,56(a4)
    46e2:	435f4353          	0x435f4353
    46e6:	5f4c4c4f          	fnmadd.q	fs8,fs8,fs4,fa1,rmm
    46ea:	47494557          	0x47494557
    46ee:	5448                	lw	a0,44(s0)
    46f0:	414d5f53          	0x414d5f53
    46f4:	2058                	fld	fa4,128(s0)
    46f6:	3236                	fld	ft4,360(sp)
    46f8:	5f00                	lw	s0,56(a4)
    46fa:	4d5f4353          	0x4d5f4353
    46fe:	5f51                	li	t5,-12
    4700:	4e45504f          	fnmadd.q	ft0,fa0,ft4,fs1,unknown
    4704:	4d5f 5841 3120      	0x312058414d5f
    470a:	5f5f0033          	0x5f5f0033
    470e:	4c46                	lw	s8,80(sp)
    4710:	3354                	fld	fa3,160(a4)
    4712:	5832                	lw	a6,44(sp)
    4714:	4d5f 5841 5f5f      	0x5f5f58414d5f
    471a:	3120                	fld	fs0,96(a0)
    471c:	372e                	fld	fa4,232(sp)
    471e:	3739                	jal	462c <_data-0x1b9d4>
    4720:	3936                	fld	fs2,360(sp)
    4722:	34333133          	0x34333133
    4726:	3638                	fld	fa4,104(a2)
    4728:	3332                	fld	ft6,296(sp)
    472a:	3531                	jal	4536 <_data-0x1baca>
    472c:	31383037          	lui	zero,0x31383
    4730:	3534                	fld	fa3,104(a0)
    4732:	3732                	fld	fa4,296(sp)
    4734:	3234                	fld	fa3,96(a2)
    4736:	31333733          	0x31333733
    473a:	33343037          	lui	zero,0x33343
    473e:	3735                	jal	466a <_data-0x1b996>
    4740:	2b65                	jal	4cf8 <_data-0x1b308>
    4742:	46383033          	0x46383033
    4746:	00783233          	sltu	tp,a6,t2
    474a:	5f5f 4c46 3654      	0x36544c465f5f
    4750:	5f34                	lw	a3,120(a4)
    4752:	4148                	lw	a0,4(a0)
    4754:	45445f53          	0x45445f53
    4758:	4f4e                	lw	t5,208(sp)
    475a:	4d52                	lw	s10,20(sp)
    475c:	5f5f 3120 5f00      	0x5f0031205f5f
    4762:	465f 544c 445f      	0x445f544c465f
    4768:	4749                	li	a4,18
    476a:	5f5f 3620 5f00      	0x5f0036205f5f
    4770:	5f68                	lw	a0,124(a4)
    4772:	7265                	lui	tp,0xffff9
    4774:	6e72                	flw	ft8,28(sp)
    4776:	465f006f          	j	f53da <__global_pointer$+0xd43aa>
    477a:	5756                	lw	a4,116(sp)
    477c:	4952                	lw	s2,20(sp)
    477e:	4554                	lw	a3,12(a0)
    4780:	495f 5f4e 5453      	0x54535f4e495f
    4786:	4552                	lw	a0,20(sp)
    4788:	4d41                	li	s10,16
    478a:	4f49                	li	t5,18
    478c:	3120                	fld	fs0,96(a0)
    478e:	5f00                	lw	s0,56(a4)
    4790:	41484357          	0x41484357
    4794:	5f52                	lw	t5,52(sp)
    4796:	5f54                	lw	a3,60(a4)
    4798:	4544                	lw	s1,12(a0)
    479a:	52414c43          	fmadd.d	fs8,ft2,ft4,fa0,rmm
    479e:	4445                	li	s0,17
    47a0:	0020                	addi	s0,sp,8
    47a2:	4e49                	li	t3,18
    47a4:	5f54                	lw	a3,60(a4)
    47a6:	4146                	lw	sp,80(sp)
    47a8:	36315453          	0x36315453
    47ac:	4d5f 5841 2820      	0x282058414d5f
    47b2:	5f5f 4e49 5f54      	0x5f544e495f5f
    47b8:	4146                	lw	sp,80(sp)
    47ba:	36315453          	0x36315453
    47be:	4d5f 5841 5f5f      	0x5f5f58414d5f
    47c4:	0029                	c.addi	zero,10
    47c6:	535f 5359 525f      	0x525f5359535f
    47cc:	4545                	li	a0,17
    47ce:	544e                	lw	s0,240(sp)
    47d0:	485f 205f 5f00      	0x5f00205f485f
    47d6:	465f 544c 455f      	0x455f544c465f
    47dc:	4156                	lw	sp,84(sp)
    47de:	5f4c                	lw	a1,60(a4)
    47e0:	454d                	li	a0,19
    47e2:	4854                	lw	a3,20(s0)
    47e4:	5f5f444f          	fnmadd.q	fs0,ft10,fs5,fa1,rmm
    47e8:	3020                	fld	fs0,96(s0)
    47ea:	5f00                	lw	s0,56(a4)
    47ec:	695f 746e 665f      	0x665f746e695f
    47f2:	7361                	lui	t1,0xffff8
    47f4:	3174                	fld	fa3,224(a0)
    47f6:	5f36                	lw	t5,108(sp)
    47f8:	5f74                	lw	a3,124(a4)
    47fa:	6564                	flw	fs1,76(a0)
    47fc:	6966                	flw	fs2,88(sp)
    47fe:	656e                	flw	fa0,216(sp)
    4800:	2064                	fld	fs1,192(s0)
    4802:	0031                	c.addi	zero,12
    4804:	5f5f 4c46 5f54      	0x5f544c465f5f
    480a:	414d                	li	sp,19
    480c:	5f58                	lw	a4,60(a4)
    480e:	205f 2e33 3034      	0x30342e33205f
    4814:	3832                	fld	fa6,296(sp)
    4816:	3332                	fld	ft6,296(sp)
    4818:	3634                	fld	fa3,104(a2)
    481a:	3336                	fld	ft6,360(sp)
    481c:	3538                	fld	fa4,104(a0)
    481e:	3832                	fld	fa6,296(sp)
    4820:	3538                	fld	fa4,104(a0)
    4822:	3839                	jal	4040 <_data-0x1bfc0>
    4824:	3131                	jal	4430 <_data-0x1bbd0>
    4826:	31343037          	lui	zero,0x31343
    482a:	3338                	fld	fa4,96(a4)
    482c:	3834                	fld	fa3,112(s0)
    482e:	3534                	fld	fa3,104(a0)
    4830:	3631                	jal	433c <_data-0x1bcc4>
    4832:	3239                	jal	4140 <_data-0x1bec0>
    4834:	6535                	lui	a0,0xd
    4836:	4638332b          	0x4638332b
    483a:	5f00                	lw	s0,56(a4)
    483c:	535f 4843 5241      	0x52414843535f
    4842:	4d5f 5841 5f5f      	0x5f5f58414d5f
    4848:	3020                	fld	fs0,96(s0)
    484a:	3778                	fld	fa4,232(a4)
    484c:	0066                	0x66
    484e:	5f5f 4e49 5f54      	0x5f544e495f5f
    4854:	4146                	lw	sp,80(sp)
    4856:	5f385453          	0x5f385453
    485a:	54444957          	0x54444957
    485e:	5f48                	lw	a0,60(a4)
    4860:	205f 3233 5f00      	0x5f003233205f
    4866:	495f 544e 3631      	0x3631544e495f
    486c:	2220                	fld	fs0,64(a2)
    486e:	2268                	fld	fa0,192(a2)
    4870:	5f00                	lw	s0,56(a4)
    4872:	465f 544c 3231      	0x3231544c465f
    4878:	5f38                	lw	a4,120(a4)
    487a:	5045                	0x5045
    487c:	4f4c4953          	0x4f4c4953
    4880:	5f4e                	lw	t5,240(sp)
    4882:	205f 2e31 3239      	0x32392e31205f
    4888:	3935                	jal	44c4 <_data-0x1bb3c>
    488a:	3932                	fld	fs2,296(sp)
    488c:	3439                	jal	429a <_data-0x1bd66>
    488e:	3334                	fld	fa3,96(a4)
    4890:	3738                	fld	fa4,104(a4)
    4892:	3332                	fld	ft6,296(sp)
    4894:	3835                	jal	40d0 <_data-0x1bf30>
    4896:	3335                	jal	45c2 <_data-0x1ba3e>
    4898:	3530                	fld	fa2,104(a0)
    489a:	3935                	jal	44d6 <_data-0x1bb2a>
    489c:	34393737          	lui	a4,0x34393
    48a0:	3532                	fld	fa0,296(sp)
    48a2:	3438                	fld	fa4,104(s0)
    48a4:	3239                	jal	41b2 <_data-0x1be4e>
    48a6:	65323337          	lui	t1,0x65323
    48aa:	332d                	jal	45d4 <_data-0x1ba2c>
    48ac:	4634                	lw	a3,72(a2)
    48ae:	3231                	jal	41ba <_data-0x1be46>
    48b0:	0038                	addi	a4,sp,8
    48b2:	455f 4658 4e55      	0x4e554658455f
    48b8:	4e5f 544f 5248      	0x5248544f4e5f
    48be:	6e28574f          	fnmadd.q	fa4,fa6,ft2,fa3,unknown
    48c2:	6d61                	lui	s10,0x18
    48c4:	2c65                	jal	4b7c <_data-0x1b484>
    48c6:	7270                	flw	fa2,100(a2)
    48c8:	296f746f          	jal	s0,fbb5e <__global_pointer$+0xdab2e>
    48cc:	6e20                	flw	fs0,88(a2)
    48ce:	6d61                	lui	s10,0x18
    48d0:	2065                	jal	4978 <_data-0x1b688>
    48d2:	7270                	flw	fa2,100(a2)
    48d4:	206f746f          	jal	s0,fbada <__global_pointer$+0xdaaaa>
    48d8:	4e5f 544f 5248      	0x5248544f4e5f
    48de:	5f00574f          	fnmadd.q	fa4,ft0,fa6,fa1,unknown
    48e2:	425f4353          	0x425f4353
    48e6:	54535f43          	0x54535f43
    48ea:	4952                	lw	s2,20(sp)
    48ec:	474e                	lw	a4,208(sp)
    48ee:	4d5f 5841 3620      	0x362058414d5f
    48f4:	0030                	addi	a2,sp,8
    48f6:	5f5f 4e53 4642      	0x46424e535f5f
    48fc:	3020                	fld	fs0,96(s0)
    48fe:	3078                	fld	fa4,224(s0)
    4900:	3030                	fld	fa2,96(s0)
    4902:	0032                	0x32
    4904:	535f 5f43 4853      	0x48535f43535f
    490a:	4c45                	li	s8,17
    490c:	204c                	fld	fa1,128(s0)
    490e:	5f003437          	lui	s0,0x5f003
    4912:	5f54                	lw	a3,60(a4)
    4914:	5450                	lw	a2,44(s0)
    4916:	4452                	lw	s0,20(sp)
    4918:	4649                	li	a2,18
    491a:	2046                	fld	ft0,80(sp)
    491c:	5f00                	lw	s0,56(a4)
    491e:	74726377          	0x74726377
    4922:	5f626d6f          	jal	s10,2af18 <__global_pointer$+0x9ee8>
    4926:	74617473          	csrrci	s0,0x746,2
    492a:	0065                	c.addi	zero,25
    492c:	5f5f 4c46 3154      	0x31544c465f5f
    4932:	3832                	fld	fa6,296(sp)
    4934:	4d5f 5841 315f      	0x315f58414d5f
    493a:	5f30                	lw	a2,120(a4)
    493c:	5845                	li	a6,-15
    493e:	5f50                	lw	a2,60(a4)
    4940:	205f 3934 3233      	0x32333934205f
    4946:	5f00                	lw	s0,56(a4)
    4948:	445f 4345 4e4f      	0x4e4f4345445f
    494e:	74285453          	0x74285453
    4952:	7079                	0x7079
    4954:	2c65                	jal	4c0c <_data-0x1b3f4>
    4956:	6176                	flw	ft2,92(sp)
    4958:	2972                	fld	fs2,280(sp)
    495a:	2820                	fld	fs0,80(s0)
    495c:	7428                	flw	fa0,104(s0)
    495e:	7079                	0x7079
    4960:	2965                	jal	4e18 <_data-0x1b1e8>
    4962:	5f28                	lw	a0,120(a4)
    4964:	755f 6e69 7074      	0x70746e69755f
    496a:	7274                	flw	fa3,100(a2)
    496c:	745f 2829 6f63      	0x6f632829745f
    4972:	736e                	flw	ft6,248(sp)
    4974:	2074                	fld	fa3,192(s0)
    4976:	6f76                	flw	ft10,92(sp)
    4978:	6469                	lui	s0,0x1a
    497a:	2a20                	fld	fs0,80(a2)
    497c:	2829                	jal	4996 <_data-0x1b66a>
    497e:	6176                	flw	ft2,92(sp)
    4980:	2972                	fld	fs2,280(sp)
    4982:	0029                	c.addi	zero,10
    4984:	545f 4d49 5f45      	0x5f454d49545f
    498a:	5f54                	lw	a3,60(a4)
    498c:	6c20                	flw	fs0,88(s0)
    498e:	00676e6f          	jal	t3,7a994 <__global_pointer$+0x59964>
    4992:	5f5f 4347 5f43      	0x5f4343475f5f
    4998:	4549                	li	a0,18
    499a:	35355f43          	0x35355f43
    499e:	2039                	jal	49ac <_data-0x1b654>
    49a0:	0032                	0x32
    49a2:	5f5f 6572 7571      	0x757165725f5f
    49a8:	7269                	lui	tp,0xffffa
    49aa:	7365                	lui	t1,0xffff9
    49ac:	755f 6c6e 636f      	0x636f6c6e755f
    49b2:	2864656b          	0x2864656b
    49b6:	2e2e                	fld	ft8,200(sp)
    49b8:	292e                	fld	fs2,200(sp)
    49ba:	5f20                	lw	s0,120(a4)
    49bc:	6c5f 636f 5f6b      	0x5f6b636f6c5f
    49c2:	6e61                	lui	t3,0x18
    49c4:	6f6e                	flw	ft10,216(sp)
    49c6:	6174                	flw	fa3,68(a0)
    49c8:	6574                	flw	fa3,76(a0)
    49ca:	6c28                	flw	fa0,88(s0)
    49cc:	736b636f          	jal	t1,bb102 <__global_pointer$+0x9a0d2>
    49d0:	655f 6378 756c      	0x756c6378655f
    49d6:	6564                	flw	fs1,76(a0)
    49d8:	2864                	fld	fs1,208(s0)
    49da:	5f5f 4156 415f      	0x415f41565f5f
    49e0:	4752                	lw	a4,20(sp)
    49e2:	295f5f53          	0x295f5f53
    49e6:	0029                	c.addi	zero,10
    49e8:	6c61                	lui	s8,0x18
    49ea:	6f6c                	flw	fa1,92(a4)
    49ec:	5f006163          	bltu	zero,a6,4fce <_data-0x1b032>
    49f0:	485f4353          	0x485f4353
    49f4:	5f54534f          	fnmadd.q	ft6,fs0,fs5,fa1,unknown
    49f8:	414e                	lw	sp,208(sp)
    49fa:	454d                	li	a0,19
    49fc:	4d5f 5841 3620      	0x362058414d5f
    4a02:	0035                	c.addi	zero,13
    4a04:	5f5f 4953 455a      	0x455a49535f5f
    4a0a:	505f464f          	fnmadd.s	fa2,ft10,ft5,fa0,rmm
    4a0e:	5254                	lw	a3,36(a2)
    4a10:	4944                	lw	s1,20(a0)
    4a12:	4646                	lw	a2,80(sp)
    4a14:	545f 5f5f 3420      	0x34205f5f545f
    4a1a:	5f00                	lw	s0,56(a4)
    4a1c:	575f 4843 5241      	0x52414843575f
    4a22:	545f 5f5f 0020      	0x205f5f545f
    4a28:	535f 5359 5f5f      	0x5f5f5359535f
    4a2e:	4954                	lw	a3,20(a0)
    4a30:	454d                	li	a0,19
    4a32:	43455053          	0x43455053
    4a36:	485f 205f 5f00      	0x5f00205f485f
    4a3c:	656e                	flw	fa0,216(sp)
    4a3e:	5f5f0077          	0x5f5f0077
    4a42:	695f 746e 6c5f      	0x6c5f746e695f
    4a48:	6165                	addi	sp,sp,112
    4a4a:	5f387473          	csrrci	s0,0x5f3,16
    4a4e:	5f74                	lw	a3,124(a4)
    4a50:	6564                	flw	fs1,76(a0)
    4a52:	6966                	flw	fs2,88(sp)
    4a54:	656e                	flw	fa0,216(sp)
    4a56:	2064                	fld	fs1,192(s0)
    4a58:	0031                	c.addi	zero,12
    4a5a:	755f 7562 0066      	0x667562755f
    4a60:	5f5f 4c46 414f      	0x414f4c465f5f
    4a66:	5f54                	lw	a3,60(a4)
    4a68:	44524f57          	0x44524f57
    4a6c:	4f5f 4452 5245      	0x524544524f5f
    4a72:	5f5f 5f20 4f5f      	0x4f5f5f205f5f
    4a78:	4452                	lw	s0,20(sp)
    4a7a:	5245                	li	tp,-15
    4a7c:	4c5f 5449 4c54      	0x4c5454494c5f
    4a82:	5f45                	li	t5,-15
    4a84:	4e45                	li	t3,17
    4a86:	4944                	lw	s1,20(a0)
    4a88:	4e41                	li	t3,16
    4a8a:	5f5f 5f00 555f      	0x555f5f005f5f
    4a90:	4e49                	li	t3,18
    4a92:	3854                	fld	fa3,176(s0)
    4a94:	545f 5059 5f45      	0x5f455059545f
    4a9a:	205f 6e75 6973      	0x69736e75205f
    4aa0:	64656e67          	0x64656e67
    4aa4:	6320                	flw	fs0,64(a4)
    4aa6:	6168                	flw	fa0,68(a0)
    4aa8:	0072                	0x72
    4aaa:	735f 6474 7265      	0x72656474735f
    4ab0:	0072                	0x72
    4ab2:	535f 5f43 414d      	0x414d5f43535f
    4ab8:	5050                	lw	a2,36(s0)
    4aba:	4445                	li	s0,17
    4abc:	465f 4c49 5345      	0x53454c49465f
    4ac2:	3220                	fld	fs0,96(a2)
    4ac4:	5f5f0033          	0x5f5f0033
    4ac8:	444c                	lw	a1,12(s0)
    4aca:	4c42                	lw	s8,16(sp)
    4acc:	4d5f 5841 5f5f      	0x5f5f58414d5f
    4ad2:	3120                	fld	fs0,96(a0)
    4ad4:	312e                	fld	ft2,232(sp)
    4ad6:	3938                	fld	fa4,112(a0)
    4ad8:	34313337          	lui	t1,0x34313
    4adc:	3539                	jal	48ea <_data-0x1b716>
    4ade:	32373533          	0x32373533
    4ae2:	36373133          	0x36373133
    4ae6:	3035                	jal	4312 <_data-0x1bcee>
    4ae8:	3538                	fld	fa4,104(a0)
    4aea:	33393537          	lui	a0,0x33393
    4aee:	3632                	fld	fa2,296(sp)
    4af0:	3236                	fld	ft4,360(sp)
    4af2:	3038                	fld	fa4,96(s0)
    4af4:	3730                	fld	fa2,104(a4)
    4af6:	3230                	fld	fa2,96(a2)
    4af8:	2b65                	jal	50b0 <_data-0x1af50>
    4afa:	3934                	fld	fa3,112(a0)
    4afc:	004c3233          	sltu	tp,s8,tp
    4b00:	5f5f 5845 4f50      	0x4f5058455f5f
    4b06:	5452                	lw	s0,52(sp)
    4b08:	0020                	addi	s0,sp,8
    4b0a:	775f 7463 6d6f      	0x6d6f7463775f
    4b10:	5f62                	lw	t5,56(sp)
    4b12:	74617473          	csrrci	s0,0x746,2
    4b16:	0065                	c.addi	zero,25
    4b18:	4946                	lw	s2,80(sp)
    4b1a:	454c                	lw	a1,12(a0)
    4b1c:	414e                	lw	sp,208(sp)
    4b1e:	454d                	li	a0,19
    4b20:	4d5f 5841 3120      	0x312058414d5f
    4b26:	3230                	fld	fa2,96(a2)
    4b28:	0034                	addi	a3,sp,8
    4b2a:	6d5f 7362 6174      	0x617473626d5f
    4b30:	6574                	flw	fa3,76(a0)
    4b32:	5f00                	lw	s0,56(a4)
    4b34:	495f 544e 4c5f      	0x4c5f544e495f
    4b3a:	4145                	li	sp,17
    4b3c:	34365453          	0x34365453
    4b40:	4d5f 5841 5f5f      	0x5f5f58414d5f
    4b46:	3020                	fld	fs0,96(s0)
    4b48:	3778                	fld	fa4,232(a4)
    4b4a:	6666                	flw	fa2,88(sp)
    4b4c:	6666                	flw	fa2,88(sp)
    4b4e:	6666                	flw	fa2,88(sp)
    4b50:	6666                	flw	fa2,88(sp)
    4b52:	6666                	flw	fa2,88(sp)
    4b54:	6666                	flw	fa2,88(sp)
    4b56:	6666                	flw	fa2,88(sp)
    4b58:	4c66                	lw	s8,88(sp)
    4b5a:	004c                	addi	a1,sp,4
    4b5c:	5f5f 6972 6373      	0x637369725f5f
    4b62:	5f76                	lw	t5,124(sp)
    4b64:	6c66                	flw	fs8,88(sp)
    4b66:	6e65                	lui	t3,0x19
    4b68:	3620                	fld	fs0,104(a2)
    4b6a:	0034                	addi	a3,sp,8
    4b6c:	5f5f 4853 5452      	0x545248535f5f
    4b72:	575f 4449 4854      	0x48544449575f
    4b78:	5f5f 3120 0036      	0x3631205f5f
    4b7e:	4954                	lw	a3,20(a0)
    4b80:	454d                	li	a0,19
    4b82:	4156                	lw	sp,84(sp)
    4b84:	5f4c                	lw	a1,60(a4)
    4b86:	4f54                	lw	a3,28(a4)
    4b88:	545f 4d49 5345      	0x53454d49545f
    4b8e:	4550                	lw	a2,12(a0)
    4b90:	76742843          	fmadd.q	fa6,fs0,ft7,fa4,rdn
    4b94:	742c                	flw	fa1,104(s0)
    4b96:	64202973          	csrr	s2,0x642
    4b9a:	207b206f          	j	b75a0 <__global_pointer$+0x96570>
    4b9e:	7428                	flw	fa0,104(s0)
    4ba0:	3e2d2973          	csrrs	s2,0x3e2,s10
    4ba4:	7674                	flw	fa3,108(a2)
    4ba6:	735f 6365 3d20      	0x3d206365735f
    4bac:	2820                	fld	fs0,80(s0)
    4bae:	7674                	flw	fa3,108(a2)
    4bb0:	2d29                	jal	51ca <_data-0x1ae36>
    4bb2:	743e                	flw	fs0,236(sp)
    4bb4:	5f76                	lw	t5,124(sp)
    4bb6:	3b636573          	csrrsi	a0,pmpaddr6,6
    4bba:	2820                	fld	fs0,80(s0)
    4bbc:	7374                	flw	fa3,100(a4)
    4bbe:	2d29                	jal	51d8 <_data-0x1ae28>
    4bc0:	743e                	flw	fs0,236(sp)
    4bc2:	5f76                	lw	t5,124(sp)
    4bc4:	736e                	flw	ft6,248(sp)
    4bc6:	6365                	lui	t1,0x19
    4bc8:	3d20                	fld	fs0,120(a0)
    4bca:	2820                	fld	fs0,80(s0)
    4bcc:	7674                	flw	fa3,108(a2)
    4bce:	2d29                	jal	51e8 <_data-0x1ae18>
    4bd0:	743e                	flw	fs0,236(sp)
    4bd2:	5f76                	lw	t5,124(sp)
    4bd4:	7375                	lui	t1,0xffffd
    4bd6:	6365                	lui	t1,0x19
    4bd8:	2a20                	fld	fs0,80(a2)
    4bda:	3120                	fld	fs0,96(a0)
    4bdc:	3030                	fld	fa2,96(s0)
    4bde:	3b30                	fld	fa2,112(a4)
    4be0:	7d20                	flw	fs0,120(a0)
    4be2:	7720                	flw	fs0,104(a4)
    4be4:	6968                	flw	fa0,84(a0)
    4be6:	656c                	flw	fa1,76(a0)
    4be8:	2820                	fld	fs0,80(s0)
    4bea:	2930                	fld	fa2,80(a0)
    4bec:	5f00                	lw	s0,56(a4)
    4bee:	6172                	flw	ft2,28(sp)
    4bf0:	646e                	flw	fs0,216(sp)
    4bf2:	6e5f 7865 0074      	0x7478656e5f
    4bf8:	5f5f 4544 3143      	0x314345445f5f
    4bfe:	3832                	fld	fa6,296(sp)
    4c00:	4d5f 4e41 5f54      	0x5f544e414d5f
    4c06:	4944                	lw	s1,20(a0)
    4c08:	205f5f47          	fmsub.s	ft10,ft10,ft5,ft4,unknown
    4c0c:	5f003433          	0x5f003433
    4c10:	6c66                	flw	fs8,88(sp)
    4c12:	6761                	lui	a4,0x18
    4c14:	5f5f0073          	0x5f5f0073
    4c18:	4d49                	li	s10,18
    4c1a:	4f50                	lw	a2,28(a4)
    4c1c:	5452                	lw	s0,52(sp)
    4c1e:	0020                	addi	s0,sp,8
    4c20:	735f 6769 665f      	0x665f6769735f
    4c26:	6e75                	lui	t3,0x1d
    4c28:	415f0063          	beq	t5,s5,5028 <_data-0x1afd8>
    4c2c:	4554                	lw	a3,12(a0)
    4c2e:	4958                	lw	a4,20(a0)
    4c30:	5f54                	lw	a3,60(a4)
    4c32:	455a4953          	0x455a4953
    4c36:	3320                	fld	fs0,96(a4)
    4c38:	0032                	0x32
    4c3a:	5f5f 6f76 616c      	0x616c6f765f5f
    4c40:	6974                	flw	fa3,84(a0)
    4c42:	656c                	flw	fa1,76(a0)
    4c44:	7620                	flw	fs0,104(a2)
    4c46:	74616c6f          	jal	s8,1b38c <_data-0x4c74>
    4c4a:	6c69                	lui	s8,0x1a
    4c4c:	0065                	c.addi	zero,25
    4c4e:	63746567          	0x63746567
    4c52:	6168                	flw	fa0,68(a0)
    4c54:	5f72                	lw	t5,60(sp)
    4c56:	6e75                	lui	t3,0x1d
    4c58:	6f6c                	flw	fa1,92(a4)
    4c5a:	64656b63          	bltu	a0,t1,52b0 <_data-0x1ad50>
    4c5e:	2928                	fld	fa0,80(a0)
    4c60:	6720                	flw	fs0,72(a4)
    4c62:	7465                	lui	s0,0xffff9
    4c64:	6e755f63          	ble	t2,a0,5362 <_data-0x1ac9e>
    4c68:	6f6c                	flw	fa1,92(a4)
    4c6a:	64656b63          	bltu	a0,t1,52c0 <_data-0x1ad40>
    4c6e:	7328                	flw	fa0,96(a4)
    4c70:	6474                	flw	fa3,76(s0)
    4c72:	6e69                	lui	t3,0x1a
    4c74:	0029                	c.addi	zero,10
    4c76:	5f5f 6f6c 6b63      	0x6b636f6c5f5f
    4c7c:	695f 696e 2874      	0x2874696e695f
    4c82:	6f6c                	flw	fa1,92(a4)
    4c84:	20296b63          	bltu	s2,sp,4e9a <_data-0x1b166>
    4c88:	5f28                	lw	a0,120(a4)
    4c8a:	54534143          	0x54534143
    4c8e:	565f 494f 2044      	0x2044494f565f
    4c94:	2930                	fld	fa2,80(a0)
    4c96:	5f00                	lw	s0,56(a4)
    4c98:	495f 4545 5f45      	0x5f454545495f
    4c9e:	494c                	lw	a1,20(a0)
    4ca0:	5454                	lw	a3,44(s0)
    4ca2:	454c                	lw	a1,12(a0)
    4ca4:	455f 444e 4149      	0x4149444e455f
    4caa:	204e                	fld	ft0,208(sp)
    4cac:	5f00                	lw	s0,56(a4)
    4cae:	465f 544c 3233      	0x3233544c465f
    4cb4:	5f58                	lw	a4,60(a4)
    4cb6:	494d                	li	s2,19
    4cb8:	5f4e                	lw	t5,240(sp)
    4cba:	5845                	li	a6,-15
    4cbc:	5f50                	lw	a2,60(a4)
    4cbe:	205f 2d28 3031      	0x30312d28205f
    4cc4:	3132                	fld	ft2,296(sp)
    4cc6:	0029                	c.addi	zero,10
    4cc8:	5f5f 4347 5f43      	0x5f4343475f5f
    4cce:	5441                	li	s0,-16
    4cd0:	43494d4f          	fnmadd.d	fs10,fs2,fs4,fs0,rmm
    4cd4:	435f 4148 5f52      	0x5f524148435f
    4cda:	4f4c                	lw	a1,28(a4)
    4cdc:	465f4b43          	fmadd.q	fs6,ft10,ft5,fs0,rmm
    4ce0:	4552                	lw	a0,20(sp)
    4ce2:	2045                	jal	4d82 <_data-0x1b27e>
    4ce4:	0031                	c.addi	zero,12
    4ce6:	5f5f 5441 4946      	0x494654415f5f
    4cec:	454c                	lw	a1,12(a0)
    4cee:	565f 5349 4249      	0x42495349565f
    4cf4:	454c                	lw	a1,12(a0)
    4cf6:	3120                	fld	fs0,96(a0)
    4cf8:	5f00                	lw	s0,56(a4)
    4cfa:	7461                	lui	s0,0xffff8
    4cfc:	7865                	lui	a6,0xffff9
    4cfe:	7469                	lui	s0,0xffffa
    4d00:	5f00                	lw	s0,56(a4)
    4d02:	325f4353          	0x325f4353
    4d06:	4c5f 434f 4c41      	0x4c41434f4c5f
    4d0c:	4445                	li	s0,17
    4d0e:	4645                	li	a2,17
    4d10:	3120                	fld	fs0,96(a0)
    4d12:	3231                	jal	461e <_data-0x1b9e2>
    4d14:	5f00                	lw	s0,56(a4)
    4d16:	475f4353          	0x475f4353
    4d1a:	5445                	li	s0,-15
    4d1c:	5750                	lw	a2,44(a4)
    4d1e:	525f 535f 5a49      	0x5a49535f525f
    4d24:	5f45                	li	t5,-15
    4d26:	414d                	li	sp,19
    4d28:	2058                	fld	fa4,128(s0)
    4d2a:	3135                	jal	4956 <_data-0x1b6aa>
    4d2c:	5f00                	lw	s0,56(a4)
    4d2e:	4350                	lw	a2,4(a4)
    4d30:	535f 4d59 494c      	0x494c4d59535f
    4d36:	4b4e                	lw	s6,208(sp)
    4d38:	4d5f 5841 3120      	0x312058414d5f
    4d3e:	0034                	addi	a3,sp,8
    4d40:	425f 4745 4e49      	0x4e494745425f
    4d46:	535f 4454 435f      	0x435f4454535f
    4d4c:	0020                	addi	s0,sp,8
    4d4e:	5f5f 616d 6c6c      	0x6c6c616d5f5f
    4d54:	6c5f636f          	jal	t1,fbc18 <__global_pointer$+0xdabe8>
    4d58:	6b69                	lui	s6,0x1a
    4d5a:	2065                	jal	4e02 <_data-0x1b1fe>
    4d5c:	5f5f 7461 7274      	0x727474615f5f
    4d62:	6269                	lui	tp,0x1a
    4d64:	7475                	lui	s0,0xffffd
    4d66:	5f65                	li	t5,-7
    4d68:	285f 5f28 6d5f      	0x6d5f5f28285f
    4d6e:	6c61                	lui	s8,0x18
    4d70:	6f6c                	flw	fa1,92(a4)
    4d72:	295f5f63          	ble	s5,t5,5010 <_data-0x1aff0>
    4d76:	0029                	c.addi	zero,10
    4d78:	5f5f 4556 5352      	0x535245565f5f
    4d7e:	4f49                	li	t5,18
    4d80:	5f4e                	lw	t5,240(sp)
    4d82:	205f 3722 322e      	0x322e3722205f
    4d88:	302e                	fld	ft0,232(sp)
    4d8a:	0022                	0x22
    4d8c:	425f 5459 5f45      	0x5f455459425f
    4d92:	4544524f          	0x4544524f
    4d96:	2052                	fld	ft0,272(sp)
    4d98:	4c5f 5449 4c54      	0x4c5454494c5f
    4d9e:	5f45                	li	t5,-15
    4da0:	4e45                	li	t3,17
    4da2:	4944                	lw	s1,20(a0)
    4da4:	4e41                	li	t3,16
    4da6:	5f00                	lw	s0,56(a4)
    4da8:	535f 5254 4e49      	0x4e495254535f
    4dae:	29782847          	fmsub.s	fa6,fa6,fs7,ft5,rdn
    4db2:	2320                	fld	fs0,64(a4)
    4db4:	0078                	addi	a4,sp,12
    4db6:	505f 494f 544e      	0x544e494f505f
    4dbc:	5245                	li	tp,-15
    4dbe:	495f 544e 6c20      	0x6c20544e495f
    4dc4:	00676e6f          	jal	t3,7adca <__global_pointer$+0x59d9a>
    4dc8:	5450                	lw	a2,44(s0)
    4dca:	5248                	lw	a0,36(a2)
    4dcc:	4145                	li	sp,17
    4dce:	5f44                	lw	s1,60(a4)
    4dd0:	41455243          	fmadd.s	ft4,fa0,fs4,fs0,unknown
    4dd4:	4554                	lw	a3,12(a0)
    4dd6:	445f 5445 4341      	0x43415445445f
    4ddc:	4548                	lw	a0,12(a0)
    4dde:	2044                	fld	fs1,128(s0)
    4de0:	0030                	addi	a2,sp,8
    4de2:	505f 5254 4944      	0x49445254505f
    4de8:	4646                	lw	a2,80(sp)
    4dea:	545f 445f 4345      	0x4345445f545f
    4df0:	414c                	lw	a1,4(a0)
    4df2:	4552                	lw	a0,20(sp)
    4df4:	2044                	fld	fs1,128(s0)
    4df6:	5f00                	lw	s0,56(a4)
    4df8:	5346                	lw	t1,112(sp)
    4dfa:	4454                	lw	a3,12(s0)
    4dfc:	4f49                	li	t5,18
    4dfe:	0020                	addi	s0,sp,8
    4e00:	5f5f 4244 5f4c      	0x5f4c42445f5f
    4e06:	5045                	0x5045
    4e08:	4f4c4953          	0x4f4c4953
    4e0c:	5f4e                	lw	t5,240(sp)
    4e0e:	205f 2828 6f64      	0x6f642828205f
    4e14:	6275                	lui	tp,0x1d
    4e16:	656c                	flw	fa1,76(a0)
    4e18:	3229                	jal	4722 <_data-0x1b8de>
    4e1a:	322e                	fld	ft4,232(sp)
    4e1c:	3032                	fld	ft0,296(sp)
    4e1e:	3434                	fld	fa3,104(s0)
    4e20:	3036                	fld	ft0,360(sp)
    4e22:	3934                	fld	fa3,112(a0)
    4e24:	3532                	fld	fa0,296(sp)
    4e26:	3330                	fld	fa2,96(a4)
    4e28:	3331                	jal	4b34 <_data-0x1b4cc>
    4e2a:	3830                	fld	fa2,112(s0)
    4e2c:	3830                	fld	fa2,112(s0)
    4e2e:	3734                	fld	fa3,104(a4)
    4e30:	3632                	fld	fa2,296(sp)
    4e32:	36333333          	0x36333333
    4e36:	3831                	jal	4652 <_data-0x1b9ae>
    4e38:	3631                	jal	4944 <_data-0x1b6bc>
    4e3a:	3034                	fld	fa3,96(s0)
    4e3c:	3236                	fld	ft4,360(sp)
    4e3e:	2d65                	jal	54f6 <_data-0x1ab0a>
    4e40:	3631                	jal	494c <_data-0x1b6b4>
    4e42:	294c                	fld	fa1,144(a0)
    4e44:	5f00                	lw	s0,56(a4)
    4e46:	745f 6d69 7265      	0x72656d69745f
    4e4c:	745f 645f 6665      	0x6665645f745f
    4e52:	6e69                	lui	t3,0x1a
    4e54:	6465                	lui	s0,0x19
    4e56:	0020                	addi	s0,sp,8
    4e58:	5f5f 4c46 3354      	0x33544c465f5f
    4e5e:	5f32                	lw	t5,44(sp)
    4e60:	494d                	li	s2,19
    4e62:	5f4e                	lw	t5,240(sp)
    4e64:	3031                	jal	4670 <_data-0x1b990>
    4e66:	455f 5058 5f5f      	0x5f5f5058455f
    4e6c:	2820                	fld	fs0,80(s0)
    4e6e:	332d                	jal	4b98 <_data-0x1b468>
    4e70:	5f002937          	lui	s2,0x5f002
    4e74:	635f 756f 746e      	0x746e756f635f
    4e7a:	5f00                	lw	s0,56(a4)
    4e7c:	495f 4f53 435f      	0x435f4f53495f
    4e82:	565f 5349 4249      	0x42495349565f
    4e88:	454c                	lw	a1,12(a0)
    4e8a:	3220                	fld	fs0,96(a2)
    4e8c:	3130                	fld	fa2,96(a0)
    4e8e:	0031                	c.addi	zero,12
    4e90:	5f5f 4f53 4452      	0x44524f535f5f
    4e96:	3020                	fld	fs0,96(s0)
    4e98:	3278                	fld	fa4,224(a2)
    4e9a:	3030                	fld	fa2,96(s0)
    4e9c:	0030                	addi	a2,sp,8
    4e9e:	5f5f 4246 4453      	0x445342465f5f
    4ea4:	4449                	li	s0,18
    4ea6:	7328                	flw	fa0,96(a4)
    4ea8:	2029                	jal	4eb2 <_data-0x1b14e>
    4eaa:	75727473          	csrrci	s0,0x757,4
    4eae:	5f207463          	bleu	s2,zero,5496 <_data-0x1ab6a>
    4eb2:	685f 6361 006b      	0x6b6361685f
    4eb8:	5f5f 4544 3343      	0x334345445f5f
    4ebe:	5f32                	lw	t5,44(sp)
    4ec0:	414d                	li	sp,19
    4ec2:	544e                	lw	s0,240(sp)
    4ec4:	445f 4749 5f5f      	0x5f5f4749445f
    4eca:	3720                	fld	fs0,104(a4)
    4ecc:	5f00                	lw	s0,56(a4)
    4ece:	6e5f 6f74 7368      	0x73686f746e5f
    4ed4:	5f28                	lw	a0,120(a4)
    4ed6:	2978                	fld	fa4,208(a0)
    4ed8:	5f20                	lw	s0,120(a4)
    4eda:	625f 7773 7061      	0x70617773625f
    4ee0:	3631                	jal	49ec <_data-0x1b614>
    4ee2:	5f28                	lw	a0,120(a4)
    4ee4:	2978                	fld	fa4,208(a0)
    4ee6:	4900                	lw	s0,16(a0)
    4ee8:	544e                	lw	s0,240(sp)
    4eea:	465f 5341 3654      	0x36545341465f
    4ef0:	5f34                	lw	a3,120(a4)
    4ef2:	494d                	li	s2,19
    4ef4:	204e                	fld	ft0,208(sp)
    4ef6:	2d28                	fld	fa0,88(a0)
    4ef8:	5f5f 4e49 5f54      	0x5f544e495f5f
    4efe:	4146                	lw	sp,80(sp)
    4f00:	34365453          	0x34365453
    4f04:	4d5f 5841 5f5f      	0x5f5f58414d5f
    4f0a:	2d20                	fld	fs0,88(a0)
    4f0c:	3120                	fld	fs0,96(a0)
    4f0e:	0029                	c.addi	zero,10
    4f10:	6974                	flw	fa3,84(a0)
    4f12:	656d                	lui	a0,0x1b
    4f14:	6972                	flw	fs2,28(sp)
    4f16:	74657373          	csrrci	t1,0x746,10
    4f1a:	7428                	flw	fa0,104(s0)
    4f1c:	7076                	flw	ft0,124(sp)
    4f1e:	2029                	jal	4f28 <_data-0x1b0d8>
    4f20:	2828                	fld	fa0,80(s0)
    4f22:	7674                	flw	fa3,108(a2)
    4f24:	2970                	fld	fa2,208(a0)
    4f26:	3e2d                	jal	4a60 <_data-0x1b5a0>
    4f28:	7674                	flw	fa3,108(a2)
    4f2a:	735f 6365 7c20      	0x7c206365735f
    4f30:	207c                	fld	fa5,192(s0)
    4f32:	7428                	flw	fa0,104(s0)
    4f34:	7076                	flw	ft0,124(sp)
    4f36:	2d29                	jal	5550 <_data-0x1aab0>
    4f38:	743e                	flw	fs0,236(sp)
    4f3a:	5f76                	lw	t5,124(sp)
    4f3c:	7375                	lui	t1,0xffffd
    4f3e:	6365                	lui	t1,0x19
    4f40:	0029                	c.addi	zero,10
    4f42:	4d5f 4341 4948      	0x494843414d5f
    4f48:	454e                	lw	a0,208(sp)
    4f4a:	5f5f 4544 4146      	0x414645445f5f
    4f50:	4c55                	li	s8,21
    4f52:	5f54                	lw	a3,60(a4)
    4f54:	5954                	lw	a3,52(a0)
    4f56:	4550                	lw	a2,12(a0)
    4f58:	20485f53          	0x20485f53
    4f5c:	4c00                	lw	s0,24(s0)
    4f5e:	5449                	li	s0,-14
    4f60:	4c54                	lw	a3,28(s0)
    4f62:	5f45                	li	t5,-15
    4f64:	4e45                	li	t3,17
    4f66:	4944                	lw	s1,20(a0)
    4f68:	4e41                	li	t3,16
    4f6a:	5f20                	lw	s0,120(a4)
    4f6c:	494c                	lw	a1,20(a0)
    4f6e:	5454                	lw	a3,44(s0)
    4f70:	454c                	lw	a1,12(a0)
    4f72:	455f 444e 4149      	0x4149444e455f
    4f78:	004e                	0x4e
    4f7a:	475f 4343 505f      	0x505f4343475f
    4f80:	5254                	lw	a3,36(a2)
    4f82:	4944                	lw	s1,20(a0)
    4f84:	4646                	lw	a2,80(sp)
    4f86:	545f 0020 5f5f      	0x5f5f0020545f
    4f8c:	444c                	lw	a1,12(s0)
    4f8e:	4c42                	lw	s8,16(sp)
    4f90:	4d5f 4e41 5f54      	0x5f544e414d5f
    4f96:	4944                	lw	s1,20(a0)
    4f98:	205f5f47          	fmsub.s	ft10,ft10,ft5,ft4,unknown
    4f9c:	3131                	jal	4ba8 <_data-0x1b458>
    4f9e:	535f0033          	0x535f0033
    4fa2:	454c5f43          	0x454c5f43
    4fa6:	4556                	lw	a0,84(sp)
    4fa8:	344c                	fld	fa1,168(s0)
    4faa:	435f 4341 4548      	0x45484341435f
    4fb0:	4c5f 4e49 5345      	0x53454e494c5f
    4fb6:	5a49                	li	s4,-14
    4fb8:	2045                	jal	5058 <_data-0x1afa8>
    4fba:	3331                	jal	4cc6 <_data-0x1b33a>
    4fbc:	0039                	c.addi	zero,14
    4fbe:	5f5f 6d74 695f      	0x695f6d745f5f
    4fc4:	74736473          	csrrsi	s0,0x747,6
    4fc8:	5f00                	lw	s0,56(a4)
    4fca:	525f 4e41 5f44      	0x5f444e41525f
    4fd0:	414d                	li	sp,19
    4fd2:	2058                	fld	fa4,128(s0)
    4fd4:	7830                	flw	fa2,112(s0)
    4fd6:	66666637          	lui	a2,0x66666
    4fda:	6666                	flw	fa2,88(sp)
    4fdc:	6666                	flw	fa2,88(sp)
    4fde:	5f00                	lw	s0,56(a4)
    4fe0:	4c5f 434f 5f4b      	0x5f4b434f4c5f
    4fe6:	4e49                	li	t3,18
    4fe8:	5449                	li	s0,-14
    4fea:	6328                	flw	fa0,64(a4)
    4fec:	616c                	flw	fa1,68(a0)
    4fee:	6c2c7373          	csrrci	t1,0x6c2,24
    4ff2:	296b636f          	jal	t1,bb288 <__global_pointer$+0x9a258>
    4ff6:	7320                	flw	fs0,96(a4)
    4ff8:	6174                	flw	fa3,68(a0)
    4ffa:	6974                	flw	fa3,84(a0)
    4ffc:	6e692063          	0x6e692063
    5000:	2074                	fld	fa3,192(s0)
    5002:	6f6c                	flw	fa1,92(a4)
    5004:	3d206b63          	bltu	zero,s2,53da <_data-0x1ac26>
    5008:	3020                	fld	fs0,96(s0)
    500a:	525f003b          	0x525f003b
    500e:	4e41                	li	t3,16
    5010:	3444                	fld	fs1,168(s0)
    5012:	5f38                	lw	a4,120(a4)
    5014:	554d                	li	a0,-13
    5016:	544c                	lw	a1,44(s0)
    5018:	325f 2820 7830      	0x78302820325f
    501e:	3030                	fld	fa2,96(s0)
    5020:	3530                	fld	fa2,104(a0)
    5022:	0029                	c.addi	zero,10
    5024:	535f 5359 535f      	0x535f5359535f
    502a:	44454843          	0x44454843
    502e:	485f 205f 5f00      	0x5f00205f485f
    5034:	465f 544c 3436      	0x3436544c465f
    503a:	5f58                	lw	a4,60(a4)
    503c:	414d                	li	sp,19
    503e:	5f58                	lw	a4,60(a4)
    5040:	205f 2e31 3831      	0x38312e31205f
    5046:	3739                	jal	4f54 <_data-0x1b0ac>
    5048:	39343133          	0x39343133
    504c:	3335                	jal	4d78 <_data-0x1b288>
    504e:	3735                	jal	4f7a <_data-0x1b086>
    5050:	3332                	fld	ft6,296(sp)
    5052:	3731                	jal	4f5e <_data-0x1b0a2>
    5054:	3536                	fld	fa0,360(sp)
    5056:	3830                	fld	fa2,112(s0)
    5058:	3735                	jal	4f84 <_data-0x1b07c>
    505a:	3935                	jal	4c96 <_data-0x1b36a>
    505c:	36363233          	0x36363233
    5060:	3832                	fld	fa6,296(sp)
    5062:	3030                	fld	fa2,96(s0)
    5064:	65323037          	lui	zero,0x65323
    5068:	3339342b          	0x3339342b
    506c:	4632                	lw	a2,12(sp)
    506e:	3436                	fld	fs0,360(sp)
    5070:	0078                	addi	a4,sp,12
    5072:	5f5f 6974 656d      	0x656d69745f5f
    5078:	745f 645f 6665      	0x6665645f745f
    507e:	6e69                	lui	t3,0x1a
    5080:	6465                	lui	s0,0x19
    5082:	0020                	addi	s0,sp,8
    5084:	535f 5f43 5250      	0x52505f43535f
    508a:	4f49                	li	t5,18
    508c:	4952                	lw	s2,20(sp)
    508e:	5954                	lw	a3,52(a0)
    5090:	535f 4843 4445      	0x44454843535f
    5096:	4c55                	li	s8,21
    5098:	4e49                	li	t3,18
    509a:	30312047          	fmsub.s	ft0,ft2,ft3,ft6,rdn
    509e:	0031                	c.addi	zero,12
    50a0:	4e5f 5745 494c      	0x494c57454e5f
    50a6:	5f42                	lw	t5,48(sp)
    50a8:	4556                	lw	a0,84(sp)
    50aa:	5352                	lw	t1,52(sp)
    50ac:	4f49                	li	t5,18
    50ae:	204e                	fld	ft0,208(sp)
    50b0:	3222                	fld	ft4,40(sp)
    50b2:	352e                	fld	fa0,232(sp)
    50b4:	302e                	fld	ft0,232(sp)
    50b6:	0022                	0x22
    50b8:	5f5f 4f4c 474e      	0x474e4f4c5f5f
    50be:	4c5f 4e4f 5f47      	0x5f474e4f4c5f
    50c4:	414d                	li	sp,19
    50c6:	5f58                	lw	a4,60(a4)
    50c8:	205f 7830 6637      	0x66377830205f
    50ce:	6666                	flw	fa2,88(sp)
    50d0:	6666                	flw	fa2,88(sp)
    50d2:	6666                	flw	fa2,88(sp)
    50d4:	6666                	flw	fa2,88(sp)
    50d6:	6666                	flw	fa2,88(sp)
    50d8:	6666                	flw	fa2,88(sp)
    50da:	6666                	flw	fa2,88(sp)
    50dc:	4c4c                	lw	a1,28(s0)
    50de:	5f00                	lw	s0,56(a4)
    50e0:	5346                	lw	t1,112(sp)
    50e2:	4545                	li	a0,17
    50e4:	504f5f4b          	fnmsub.s	ft10,ft10,ft4,fa0,unknown
    50e8:	4954                	lw	a3,20(a0)
    50ea:	494d                	li	s2,19
    50ec:	415a                	lw	sp,148(sp)
    50ee:	4954                	lw	a3,20(a0)
    50f0:	31204e4f          	fnmadd.s	ft8,ft0,fs2,ft6,rmm
    50f4:	5f00                	lw	s0,56(a4)
    50f6:	615f 6772 745f      	0x745f6772615f
    50fc:	7079                	0x7079
    50fe:	5f65                	li	t5,-7
    5100:	6174                	flw	fa3,68(a0)
    5102:	72612867          	0x72612867
    5106:	696b5f67          	0x696b5f67
    510a:	646e                	flw	fs0,216(sp)
    510c:	612c                	flw	fa1,64(a0)
    510e:	6772                	flw	fa4,28(sp)
    5110:	695f 7864 742c      	0x742c7864695f
    5116:	7079                	0x7079
    5118:	5f65                	li	t5,-7
    511a:	6174                	flw	fa3,68(a0)
    511c:	64695f67          	0x64695f67
    5120:	2978                	fld	fa4,208(a0)
    5122:	0020                	addi	s0,sp,8
    5124:	5f5f 6d74 795f      	0x795f6d745f5f
    512a:	6164                	flw	fs1,68(a0)
    512c:	0079                	c.addi	zero,30
    512e:	726f6873          	csrrsi	a6,0x726,30
    5132:	0074                	addi	a3,sp,12
    5134:	525f 4545 544e      	0x544e4545525f
    513a:	495f 494e 5f54      	0x5f54494e495f
    5140:	5450                	lw	a2,44(s0)
    5142:	2852                	fld	fa6,272(sp)
    5144:	6176                	flw	ft2,92(sp)
    5146:	2972                	fld	fs2,280(sp)
    5148:	7b20                	flw	fs0,112(a4)
    514a:	6d20                	flw	fs0,88(a0)
    514c:	6d65                	lui	s10,0x19
    514e:	28746573          	csrrsi	a0,0x287,8
    5152:	7628                	flw	fa0,104(a2)
    5154:	7261                	lui	tp,0xffff8
    5156:	2c29                	jal	5370 <_data-0x1ac90>
    5158:	3020                	fld	fs0,96(s0)
    515a:	202c                	fld	fa1,64(s0)
    515c:	657a6973          	csrrsi	s2,0x657,20
    5160:	2a28666f          	jal	a2,8b402 <__global_pointer$+0x6a3d2>
    5164:	7628                	flw	fa0,104(a2)
    5166:	7261                	lui	tp,0xffff8
    5168:	2929                	jal	5582 <_data-0x1aa7e>
    516a:	3b29                	jal	4e84 <_data-0x1b17c>
    516c:	5f20                	lw	s0,120(a4)
    516e:	4552                	lw	a0,20(sp)
    5170:	4e45                	li	t3,17
    5172:	5f54                	lw	a3,60(a4)
    5174:	4e49                	li	t3,18
    5176:	5449                	li	s0,-14
    5178:	505f 5254 5a5f      	0x5a5f5254505f
    517e:	5245                	li	tp,-15
    5180:	2844454f          	fnmadd.s	fa0,fs0,ft4,ft5,rmm
    5184:	6176                	flw	ft2,92(sp)
    5186:	2972                	fld	fs2,280(sp)
    5188:	007d203b          	0x7d203b
    518c:	5f5f 4f43 5950      	0x59504f435f5f
    5192:	4952                	lw	s2,20(sp)
    5194:	28544847          	fmsub.s	fa6,fs0,ft5,ft5,rmm
    5198:	73202973          	csrr	s2,0x732
    519c:	7274                	flw	fa3,100(a2)
    519e:	6375                	lui	t1,0x1d
    51a0:	2074                	fld	fa3,192(s0)
    51a2:	5f5f 6168 6b63      	0x6b6361685f5f
    51a8:	5f00                	lw	s0,56(a4)
    51aa:	465f 544c 3436      	0x3436544c465f
    51b0:	5f58                	lw	a4,60(a4)
    51b2:	4148                	lw	a0,4(a0)
    51b4:	55515f53          	0x55515f53
    51b8:	4549                	li	a0,18
    51ba:	5f54                	lw	a3,60(a4)
    51bc:	414e                	lw	sp,208(sp)
    51be:	5f4e                	lw	t5,240(sp)
    51c0:	205f 0031 5f5f      	0x5f5f0031205f
    51c6:	746e6573          	csrrsi	a0,0x746,28
    51ca:	6e69                	lui	t3,0x1a
    51cc:	6c65                	lui	s8,0x19
    51ce:	5f20                	lw	s0,120(a4)
    51d0:	615f 7474 6972      	0x69727474615f
    51d6:	7562                	flw	fa0,56(sp)
    51d8:	6574                	flw	fa3,76(a0)
    51da:	5f5f 2828 5f5f      	0x5f5f28285f5f
    51e0:	746e6573          	csrrsi	a0,0x746,28
    51e4:	6e69                	lui	t3,0x1a
    51e6:	6c65                	lui	s8,0x19
    51e8:	5f5f 2929 5f00      	0x5f0029295f5f
    51ee:	495f 544e 5f38      	0x5f38544e495f
    51f4:	29632843          	fmadd.s	fa6,ft6,fs6,ft5,rdn
    51f8:	6320                	flw	fs0,64(a4)
    51fa:	5f00                	lw	s0,56(a4)
    51fc:	735f 6163 666e      	0x666e6163735f
    5202:	696c                	flw	fa1,84(a0)
    5204:	6628656b          	0x6628656b
    5208:	746d                	lui	s0,0xffffb
    520a:	7261                	lui	tp,0xffff8
    520c:	69662c67          	0x69662c67
    5210:	7372                	flw	ft6,60(sp)
    5212:	7674                	flw	fa3,108(a2)
    5214:	7261                	lui	tp,0xffff8
    5216:	7261                	lui	tp,0xffff8
    5218:	5f202967          	0x5f202967
    521c:	615f 7474 6972      	0x69727474615f
    5222:	7562                	flw	fa0,56(sp)
    5224:	6574                	flw	fa3,76(a0)
    5226:	5f5f 2828 5f5f      	0x5f5f28285f5f
    522c:	6f66                	flw	ft10,88(sp)
    522e:	6d72                	flw	fs10,28(sp)
    5230:	7461                	lui	s0,0xffff8
    5232:	5f5f 2820 5f5f      	0x5f5f28205f5f
    5238:	6e616373          	csrrsi	t1,0x6e6,2
    523c:	5f66                	lw	t5,120(sp)
    523e:	2c5f 6620 746d      	0x746d66202c5f
    5244:	7261                	lui	tp,0xffff8
    5246:	66202c67          	0x66202c67
    524a:	7269                	lui	tp,0xffffa
    524c:	61767473          	csrrci	s0,0x617,12
    5250:	6172                	flw	ft2,28(sp)
    5252:	6772                	flw	fa4,28(sp)
    5254:	2929                	jal	566e <_data-0x1a992>
    5256:	0029                	c.addi	zero,10
    5258:	5f5f 4c46 3354      	0x33544c465f5f
    525e:	5f32                	lw	t5,44(sp)
    5260:	414d                	li	sp,19
    5262:	5f58                	lw	a4,60(a4)
    5264:	205f 2e33 3034      	0x30342e33205f
    526a:	3832                	fld	fa6,296(sp)
    526c:	3332                	fld	ft6,296(sp)
    526e:	3634                	fld	fa3,104(a2)
    5270:	3336                	fld	ft6,360(sp)
    5272:	3538                	fld	fa4,104(a0)
    5274:	3832                	fld	fa6,296(sp)
    5276:	3538                	fld	fa4,104(a0)
    5278:	3839                	jal	4a96 <_data-0x1b56a>
    527a:	3131                	jal	4e86 <_data-0x1b17a>
    527c:	31343037          	lui	zero,0x31343
    5280:	3338                	fld	fa4,96(a4)
    5282:	3834                	fld	fa3,112(s0)
    5284:	3534                	fld	fa3,104(a0)
    5286:	3631                	jal	4d92 <_data-0x1b26e>
    5288:	3239                	jal	4b96 <_data-0x1b46a>
    528a:	6535                	lui	a0,0xd
    528c:	4638332b          	0x4638332b
    5290:	53003233          	0x53003233
    5294:	4749                	li	a4,18
    5296:	415f 4f54 494d      	0x494d4f54415f
    529c:	414d5f43          	fmadd.s	ft10,fs10,fs4,fs0,unknown
    52a0:	2058                	fld	fa4,128(s0)
    52a2:	5f28                	lw	a0,120(a4)
    52a4:	535f 4454 4e49      	0x4e494454535f
    52aa:	5f54                	lw	a3,60(a4)
    52ac:	5845                	li	a6,-15
    52ae:	2850                	fld	fa2,144(s0)
    52b0:	4e49                	li	t3,18
    52b2:	5f54                	lw	a3,60(a4)
    52b4:	414d                	li	sp,19
    52b6:	2958                	fld	fa4,144(a0)
    52b8:	0029                	c.addi	zero,10
    52ba:	535f 4454 4544      	0x45444454535f
    52c0:	5f46                	lw	t5,112(sp)
    52c2:	5f48                	lw	a0,60(a4)
    52c4:	0020                	addi	s0,sp,8
    52c6:	5f5f 4c46 3654      	0x36544c465f5f
    52cc:	5834                	lw	a3,112(s0)
    52ce:	445f 4e45 524f      	0x524f4e45445f
    52d4:	5f4d                	li	t5,-13
    52d6:	494d                	li	s2,19
    52d8:	5f4e                	lw	t5,240(sp)
    52da:	205f 2e36 3734      	0x37342e36205f
    52e0:	3135                	jal	4f0c <_data-0x1b0f4>
    52e2:	31313537          	lui	a0,0x31313
    52e6:	3439                	jal	4cf4 <_data-0x1b30c>
    52e8:	32303833          	0x32303833
    52ec:	3135                	jal	4f18 <_data-0x1b0e8>
    52ee:	3031                	jal	4afa <_data-0x1b506>
    52f0:	3239                	jal	4bfe <_data-0x1b402>
    52f2:	3434                	fld	fa3,104(s0)
    52f4:	35393833          	0x35393833
    52f8:	3238                	fld	fa4,96(a2)
    52fa:	3732                	fld	fa4,296(sp)
    52fc:	3436                	fld	fs0,360(sp)
    52fe:	3536                	fld	fa0,360(sp)
    5300:	6535                	lui	a0,0xd
    5302:	342d                	jal	4d2c <_data-0x1b2d4>
    5304:	3639                	jal	4e12 <_data-0x1b1ee>
    5306:	4636                	lw	a2,76(sp)
    5308:	3436                	fld	fs0,360(sp)
    530a:	0078                	addi	a4,sp,12
    530c:	5f5f 4244 5f4c      	0x5f4c42445f5f
    5312:	494d                	li	s2,19
    5314:	5f4e                	lw	t5,240(sp)
    5316:	5845                	li	a6,-15
    5318:	5f50                	lw	a2,60(a4)
    531a:	205f 2d28 3031      	0x30312d28205f
    5320:	3132                	fld	ft2,296(sp)
    5322:	0029                	c.addi	zero,10
    5324:	5f5f 4953 455a      	0x455a49535f5f
    532a:	545f 0020 535f      	0x535f0020545f
    5330:	45475f43          	0x45475f43
    5334:	4754                	lw	a3,12(a4)
    5336:	5f52                	lw	t5,52(sp)
    5338:	5f52                	lw	t5,52(sp)
    533a:	455a4953          	0x455a4953
    533e:	4d5f 5841 3520      	0x352058414d5f
    5344:	0030                	addi	a2,sp,8
    5346:	735f 6565 0064      	0x646565735f
    534c:	5f5f 7270 6e69      	0x6e6972705f5f
    5352:	6674                	flw	fa3,76(a2)
    5354:	6c30                	flw	fa2,88(s0)
    5356:	6b69                	lui	s6,0x1a
    5358:	2865                	jal	5410 <_data-0x1abf0>
    535a:	6d66                	flw	fs10,88(sp)
    535c:	6174                	flw	fa3,68(a0)
    535e:	6772                	flw	fa4,28(sp)
    5360:	662c                	flw	fa1,72(a2)
    5362:	7269                	lui	tp,0xffffa
    5364:	61767473          	csrrci	s0,0x617,12
    5368:	6172                	flw	ft2,28(sp)
    536a:	6772                	flw	fa4,28(sp)
    536c:	2029                	jal	5376 <_data-0x1ac8a>
    536e:	5f00                	lw	s0,56(a4)
    5370:	5450                	lw	a2,44(s0)
    5372:	5248                	lw	a0,36(a2)
    5374:	4145                	li	sp,17
    5376:	5f44                	lw	s1,60(a4)
    5378:	554d                	li	a0,-13
    537a:	4554                	lw	a3,12(a0)
    537c:	5f58                	lw	a4,60(a4)
    537e:	4e49                	li	t3,18
    5380:	5449                	li	s0,-14
    5382:	4149                	li	sp,18
    5384:	494c                	lw	a1,20(a0)
    5386:	455a                	lw	a0,148(sp)
    5388:	2052                	fld	ft0,272(sp)
    538a:	2828                	fld	fa0,80(s0)
    538c:	7470                	flw	fa2,108(s0)
    538e:	7268                	flw	fa0,100(a2)
    5390:	6165                	addi	sp,sp,112
    5392:	5f64                	lw	s1,124(a4)
    5394:	756d                	lui	a0,0xffffb
    5396:	6574                	flw	fa3,76(a0)
    5398:	5f78                	lw	a4,124(a4)
    539a:	2974                	fld	fa3,208(a0)
    539c:	3020                	fld	fs0,96(s0)
    539e:	4678                	lw	a4,76(a2)
    53a0:	4646                	lw	a2,80(sp)
    53a2:	4646                	lw	a2,80(sp)
    53a4:	4646                	lw	a2,80(sp)
    53a6:	2946                	fld	fs2,80(sp)
    53a8:	5f00                	lw	s0,56(a4)
    53aa:	465f 544c 3436      	0x3436544c465f
    53b0:	5f58                	lw	a4,60(a4)
    53b2:	494d                	li	s2,19
    53b4:	5f4e                	lw	t5,240(sp)
    53b6:	5845                	li	a6,-15
    53b8:	5f50                	lw	a2,60(a4)
    53ba:	205f 2d28 3631      	0x36312d28205f
    53c0:	29313833          	0x29313833
    53c4:	5f00                	lw	s0,56(a4)
    53c6:	465f 544c 3233      	0x3233544c465f
    53cc:	445f 4749 5f5f      	0x5f5f4749445f
    53d2:	3620                	fld	fs0,104(a2)
    53d4:	5f00                	lw	s0,56(a4)
    53d6:	6b656573          	csrrsi	a0,0x6b6,10
    53da:	5f00                	lw	s0,56(a4)
    53dc:	6c5f 636f 5f6b      	0x5f6b636f6c5f
    53e2:	7274                	flw	fa3,100(a2)
    53e4:	5f79                	li	t5,-2
    53e6:	6361                	lui	t1,0x18
    53e8:	7571                	lui	a0,0xffffc
    53ea:	7269                	lui	tp,0xffffa
    53ec:	5f65                	li	t5,-7
    53ee:	6572                	flw	fa0,28(sp)
    53f0:	73727563          	bleu	s7,tp,5b1a <_data-0x1a4e6>
    53f4:	7669                	lui	a2,0xffffa
    53f6:	2865                	jal	54ae <_data-0x1ab52>
    53f8:	6f6c                	flw	fa1,92(a4)
    53fa:	20296b63          	bltu	s2,sp,5610 <_data-0x1a9f0>
    53fe:	5f28                	lw	a0,120(a4)
    5400:	54534143          	0x54534143
    5404:	565f 494f 2044      	0x2044494f565f
    540a:	2930                	fld	fa2,80(a0)
    540c:	5f00                	lw	s0,56(a4)
    540e:	645f 6165 3264      	0x32646165645f
    5414:	5f20                	lw	s0,120(a4)
    5416:	615f 7474 6972      	0x69727474615f
    541c:	7562                	flw	fa0,56(sp)
    541e:	6574                	flw	fa3,76(a0)
    5420:	5f5f 2828 5f5f      	0x5f5f28285f5f
    5426:	6f6e                	flw	ft10,216(sp)
    5428:	6572                	flw	fa0,28(sp)
    542a:	7574                	flw	fa3,108(a0)
    542c:	6e72                	flw	ft8,28(sp)
    542e:	5f5f 2929 5f00      	0x5f0029295f5f
    5434:	585f4353          	0x585f4353
    5438:	5342                	lw	t1,48(sp)
    543a:	5f35                	li	t5,-19
    543c:	504c                	lw	a1,36(s0)
    543e:	3436                	fld	fs0,360(sp)
    5440:	4f5f 4646 3436      	0x343646464f5f
    5446:	5f20                	lw	s0,120(a4)
    5448:	565f4353          	0x565f4353
    544c:	504c5f37          	lui	t5,0x504c5
    5450:	3436                	fld	fs0,360(sp)
    5452:	4f5f 4646 3436      	0x343646464f5f
    5458:	5f00                	lw	s0,56(a4)
    545a:	325f4353          	0x325f4353
    545e:	505f 5342 4c5f      	0x4c5f5342505f
    5464:	5441434f          	0x5441434f
    5468:	2045                	jal	5508 <_data-0x1aaf8>
    546a:	3131                	jal	5076 <_data-0x1af8a>
    546c:	0036                	0x36
    546e:	5f5f 6f63 706d      	0x706d6f635f5f
    5474:	7261                	lui	tp,0xffff8
    5476:	665f 5f6e 5f74      	0x5f745f6e665f
    547c:	6564                	flw	fs1,76(a0)
    547e:	6966                	flw	fs2,88(sp)
    5480:	656e                	flw	fa0,216(sp)
    5482:	2064                	fld	fs1,192(s0)
    5484:	5f00                	lw	s0,56(a4)
    5486:	585f4353          	0x585f4353
    548a:	4e45504f          	fnmadd.q	ft0,fa0,ft4,fs1,unknown
    548e:	4c5f 4745 4341      	0x434147454c5f
    5494:	2059                	jal	551a <_data-0x1aae6>
    5496:	3839                	jal	4cb4 <_data-0x1b34c>
    5498:	5f00                	lw	s0,56(a4)
    549a:	4d5f 5349 5f43      	0x5f4353494d5f
    54a0:	4956                	lw	s2,84(sp)
    54a2:	4c424953          	0x4c424953
    54a6:	2045                	jal	5546 <_data-0x1aaba>
    54a8:	0031                	c.addi	zero,12
    54aa:	5f5f 5845 0050      	0x5058455f5f
    54b0:	5f5f 5358 5254      	0x525453585f5f
    54b6:	4e49                	li	t3,18
    54b8:	29782847          	fmsub.s	fa6,fa6,fs7,ft5,rdn
    54bc:	5f20                	lw	s0,120(a4)
    54be:	535f 5254 4e49      	0x4e495254535f
    54c4:	29782847          	fmsub.s	fa6,fa6,fs7,ft5,rdn
    54c8:	5f00                	lw	s0,56(a4)
    54ca:	4c5f 4244 5f4c      	0x5f4c42444c5f
    54d0:	4148                	lw	a0,4(a0)
    54d2:	45445f53          	0x45445f53
    54d6:	4f4e                	lw	t5,208(sp)
    54d8:	4d52                	lw	s10,20(sp)
    54da:	5f5f 3120 4900      	0x490031205f5f
    54e0:	544e                	lw	s0,240(sp)
    54e2:	5f38                	lw	a4,120(a4)
    54e4:	494d                	li	s2,19
    54e6:	204e                	fld	ft0,208(sp)
    54e8:	2d28                	fld	fa0,88(a0)
    54ea:	5f5f 4e49 3854      	0x38544e495f5f
    54f0:	4d5f 5841 5f5f      	0x5f5f58414d5f
    54f6:	2d20                	fld	fs0,88(a0)
    54f8:	3120                	fld	fs0,96(a0)
    54fa:	0029                	c.addi	zero,10
    54fc:	5f5f 6377 6268      	0x626863775f5f
    5502:	5f00                	lw	s0,56(a4)
    5504:	475f 4343 485f      	0x485f4343475f
    550a:	5641                	li	a2,-16
    550c:	5f45                	li	t5,-15
    550e:	434e5953          	0x434e5953
    5512:	435f 4d4f 4150      	0x41504d4f435f
    5518:	4552                	lw	a0,20(sp)
    551a:	415f 444e 535f      	0x535f444e415f
    5520:	5f504157          	0x5f504157
    5524:	2034                	fld	fa3,64(s0)
    5526:	0031                	c.addi	zero,12
    5528:	5f5f 4c46 3354      	0x33544c465f5f
    552e:	5832                	lw	a6,44(sp)
    5530:	4d5f 4e49 5f5f      	0x5f5f4e494d5f
    5536:	3220                	fld	fs0,96(a2)
    5538:	322e                	fld	ft4,232(sp)
    553a:	3532                	fld	fa0,296(sp)
    553c:	3730                	fld	fa2,104(a4)
    553e:	38353833          	0x38353833
    5542:	3035                	jal	4d6e <_data-0x1b292>
    5544:	31303237          	lui	tp,0x31303
    5548:	30333833          	0x30333833
    554c:	3039                	jal	4d5a <_data-0x1b2a6>
    554e:	3332                	fld	ft6,296(sp)
    5550:	3732                	fld	fa4,296(sp)
    5552:	3731                	jal	545e <_data-0x1aba2>
    5554:	34323333          	0x34323333
    5558:	3430                	fld	fa2,104(s0)
    555a:	3630                	fld	fa2,104(a2)
    555c:	2d65                	jal	5c14 <_data-0x1a3ec>
    555e:	46383033          	0x46383033
    5562:	00783233          	sltu	tp,a6,t2
    5566:	5f5f 4542 4947      	0x494745425f5f
    556c:	5f4e                	lw	t5,240(sp)
    556e:	4544                	lw	s1,12(a0)
    5570:	20534c43          	fmadd.s	fs8,ft6,ft5,ft4,rmm
    5574:	5f00                	lw	s0,56(a4)
    5576:	555f 4e49 3654      	0x36544e49555f
    557c:	5f34                	lw	a3,120(a4)
    557e:	29632843          	fmadd.s	fa6,ft6,fs6,ft5,rdn
    5582:	6320                	flw	fs0,64(a4)
    5584:	2320                	fld	fs0,64(a4)
    5586:	4c552023          	sw	t0,1216(a0) # ffffc4c0 <__EH_FRAME_BEGIN__+0x7fffb218>
    558a:	004c                	addi	a1,sp,4
    558c:	525f 4545 544e      	0x544e4545525f
    5592:	435f 4548 4b43      	0x4b434548435f
    5598:	4d5f 5349 2843      	0x284353494d5f
    559e:	7470                	flw	fa2,108(s0)
    55a0:	2972                	fld	fs2,280(sp)
    55a2:	0020                	addi	s0,sp,8
    55a4:	5f5f 4e47 4355      	0x43554e475f5f
    55aa:	565f 5f41 494c      	0x494c5f41565f
    55b0:	435f5453          	0x435f5453
    55b4:	41504d4f          	fnmadd.s	fs10,ft0,fs5,fs0,rmm
    55b8:	4954                	lw	a3,20(a0)
    55ba:	4942                	lw	s2,16(sp)
    55bc:	494c                	lw	a1,20(a0)
    55be:	5954                	lw	a3,52(a0)
    55c0:	3120                	fld	fs0,96(a0)
    55c2:	5f00                	lw	s0,56(a4)
    55c4:	495f 544e 4c5f      	0x4c5f544e495f
    55ca:	4145                	li	sp,17
    55cc:	32335453          	0x32335453
    55d0:	545f 5059 5f45      	0x5f455059545f
    55d6:	205f 6f6c 676e      	0x676e6f6c205f
    55dc:	6920                	flw	fs0,80(a0)
    55de:	746e                	flw	fs0,248(sp)
    55e0:	5f00                	lw	s0,56(a4)
    55e2:	626d                	lui	tp,0x1b
    55e4:	6f74                	flw	fa3,92(a4)
    55e6:	735f6377          	0x735f6377
    55ea:	6174                	flw	fa3,68(a0)
    55ec:	6574                	flw	fa3,76(a0)
    55ee:	6f00                	flw	fs0,24(a4)
    55f0:	7470                	flw	fa2,108(s0)
    55f2:	0074706f          	j	4cdf8 <__global_pointer$+0x2bdc8>
    55f6:	5f5f 4955 544e      	0x544e49555f5f
    55fc:	4c5f 4145 5453      	0x545341454c5f
    5602:	3436                	fld	fs0,360(sp)
    5604:	4d5f 5841 5f5f      	0x5f5f58414d5f
    560a:	3020                	fld	fs0,96(s0)
    560c:	6678                	flw	fa4,76(a2)
    560e:	6666                	flw	fa2,88(sp)
    5610:	6666                	flw	fa2,88(sp)
    5612:	6666                	flw	fa2,88(sp)
    5614:	6666                	flw	fa2,88(sp)
    5616:	6666                	flw	fa2,88(sp)
    5618:	6666                	flw	fa2,88(sp)
    561a:	6666                	flw	fa2,88(sp)
    561c:	5566                	lw	a0,120(sp)
    561e:	4c4c                	lw	a1,28(s0)
    5620:	5f00                	lw	s0,56(a4)
    5622:	465f 544c 3231      	0x3231544c465f
    5628:	5f38                	lw	a4,120(a4)
    562a:	4148                	lw	a0,4(a0)
    562c:	4e495f53          	0x4e495f53
    5630:	4946                	lw	s2,80(sp)
    5632:	494e                	lw	s2,208(sp)
    5634:	5954                	lw	a3,52(a0)
    5636:	5f5f 3120 5f00      	0x5f0031205f5f
    563c:	555f 4e49 5f54      	0x5f544e49555f
    5642:	4146                	lw	sp,80(sp)
    5644:	34365453          	0x34365453
    5648:	4d5f 5841 5f5f      	0x5f5f58414d5f
    564e:	3020                	fld	fs0,96(s0)
    5650:	6678                	flw	fa4,76(a2)
    5652:	6666                	flw	fa2,88(sp)
    5654:	6666                	flw	fa2,88(sp)
    5656:	6666                	flw	fa2,88(sp)
    5658:	6666                	flw	fa2,88(sp)
    565a:	6666                	flw	fa2,88(sp)
    565c:	6666                	flw	fa2,88(sp)
    565e:	6666                	flw	fa2,88(sp)
    5660:	5566                	lw	a0,120(sp)
    5662:	4c4c                	lw	a1,28(s0)
    5664:	5f00                	lw	s0,56(a4)
    5666:	535f 424d 2046      	0x2046424d535f
    566c:	7830                	flw	fa2,112(s0)
    566e:	3030                	fld	fa2,96(s0)
    5670:	3038                	fld	fa4,96(s0)
    5672:	5f00                	lw	s0,56(a4)
    5674:	4e5f 5745 494c      	0x494c57454e5f
    567a:	5f42                	lw	t5,48(sp)
    567c:	4150                	lw	a2,4(a0)
    567e:	4354                	lw	a3,4(a4)
    5680:	4c48                	lw	a0,28(s0)
    5682:	5645                	li	a2,-15
    5684:	4c45                	li	s8,17
    5686:	5f5f 3020 5f00      	0x5f0030205f5f
    568c:	4e5f4353          	0x4e5f4353
    5690:	5250                	lw	a2,36(a2)
    5692:	5345434f          	fnmadd.d	ft6,fa0,fs4,fa0,rmm
    5696:	53524f53          	0x53524f53
    569a:	4f5f 4c4e 204e      	0x204e4c4e4f5f
    56a0:	3031                	jal	4eac <_data-0x1b154>
    56a2:	5f00                	lw	s0,56(a4)
    56a4:	545f4353          	0x545f4353
    56a8:	4e5a                	lw	t3,148(sp)
    56aa:	4d41                	li	s10,16
    56ac:	5f45                	li	t5,-15
    56ae:	414d                	li	sp,19
    56b0:	2058                	fld	fa4,128(s0)
    56b2:	3032                	fld	ft0,296(sp)
    56b4:	5f00                	lw	s0,56(a4)
    56b6:	4f5f 4452 5245      	0x524544524f5f
    56bc:	4c5f 5449 4c54      	0x4c5454494c5f
    56c2:	5f45                	li	t5,-15
    56c4:	4e45                	li	t3,17
    56c6:	4944                	lw	s1,20(a0)
    56c8:	4e41                	li	t3,16
    56ca:	5f5f 3120 3332      	0x333231205f5f
    56d0:	0034                	addi	a3,sp,8
    56d2:	5f5f 6973 657a      	0x657a69735f5f
    56d8:	745f 5f00 435f      	0x435f5f00745f
    56de:	55535f43          	0x55535f43
    56e2:	5050                	lw	a2,36(s0)
    56e4:	5354524f          	fnmadd.d	ft4,fs0,fs5,fa0,unknown
    56e8:	495f 4c4e 4e49      	0x4e494c4e495f
    56ee:	2045                	jal	578e <_data-0x1a872>
    56f0:	0031                	c.addi	zero,12
    56f2:	5f5f 4f44 5354      	0x53544f445f5f
    56f8:	2c20                	fld	fs0,88(s0)
    56fa:	2e20                	fld	fs0,88(a2)
    56fc:	2e2e                	fld	ft8,200(sp)
    56fe:	5f00                	lw	s0,56(a4)
    5700:	445f 4345 3436      	0x34364345445f
    5706:	4d5f 4e41 5f54      	0x5f544e414d5f
    570c:	4944                	lw	s1,20(a0)
    570e:	205f5f47          	fmsub.s	ft10,ft10,ft5,ft4,unknown
    5712:	3631                	jal	521e <_data-0x1ade2>
    5714:	5f00                	lw	s0,56(a4)
    5716:	525f4353          	0x525f4353
    571a:	4145                	li	sp,17
    571c:	544c                	lw	a1,44(s0)
    571e:	4d49                	li	s10,18
    5720:	5f45                	li	t5,-15
    5722:	4e474953          	0x4e474953
    5726:	4c41                	li	s8,16
    5728:	39322053          	0x39322053
    572c:	5f00                	lw	s0,56(a4)
    572e:	615f 6c6c 636f      	0x636f6c6c615f
    5734:	735f 7a69 2865      	0x28657a69735f
    573a:	2978                	fld	fa4,208(a0)
    573c:	5f20                	lw	s0,120(a4)
    573e:	615f 7474 6972      	0x69727474615f
    5744:	7562                	flw	fa0,56(sp)
    5746:	6574                	flw	fa3,76(a0)
    5748:	5f5f 2828 5f5f      	0x5f5f28285f5f
    574e:	6c61                	lui	s8,0x18
    5750:	6f6c                	flw	fa1,92(a4)
    5752:	69735f63          	ble	s7,t1,5df0 <_data-0x1a210>
    5756:	657a                	flw	fa0,156(sp)
    5758:	5f5f 7828 2929      	0x292978285f5f
    575e:	0029                	c.addi	zero,10
    5760:	535f 5f43 5241      	0x52415f43535f
    5766:	414d5f47          	fmsub.s	ft10,fs10,fs4,fs0,unknown
    576a:	2058                	fld	fa4,128(s0)
    576c:	0030                	addi	a2,sp,8
    576e:	5f5f 4853 5452      	0x545248535f5f
    5774:	4d5f 5841 5f5f      	0x5f5f58414d5f
    577a:	3020                	fld	fs0,96(s0)
    577c:	3778                	fld	fa4,232(a4)
    577e:	6666                	flw	fa2,88(sp)
    5780:	0066                	0x66
    5782:	5f5f 454c 5341      	0x5341454c5f5f
    5788:	3654                	fld	fa3,168(a2)
    578a:	2034                	fld	fa3,64(s0)
    578c:	6c22                	flw	fs8,8(sp)
    578e:	226c                	fld	fa1,192(a2)
    5790:	5f00                	lw	s0,56(a4)
    5792:	4552                	lw	a0,20(sp)
    5794:	4e45                	li	t3,17
    5796:	5f54                	lw	a3,60(a4)
    5798:	52534357          	0x52534357
    579c:	4f54                	lw	a3,28(a4)
    579e:	424d                	li	tp,19
    57a0:	54535f53          	0x54535f53
    57a4:	5441                	li	s0,-16
    57a6:	2845                	jal	5856 <_data-0x1a7aa>
    57a8:	7470                	flw	fa2,108(s0)
    57aa:	2972                	fld	fs2,280(sp)
    57ac:	2820                	fld	fs0,80(s0)
    57ae:	7028                	flw	fa0,96(s0)
    57b0:	7274                	flw	fa3,100(a2)
    57b2:	2d29                	jal	5dcc <_data-0x1a234>
    57b4:	5f3e                	lw	t5,236(sp)
    57b6:	656e                	flw	fa0,216(sp)
    57b8:	725f2e77          	0x725f2e77
    57bc:	6565                	lui	a0,0x19
    57be:	746e                	flw	fs0,248(sp)
    57c0:	5f2e                	lw	t5,232(sp)
    57c2:	72736377          	0x72736377
    57c6:	6f74                	flw	fa3,92(a4)
    57c8:	626d                	lui	tp,0x1b
    57ca:	74735f73          	csrrwi	t5,0x747,6
    57ce:	7461                	lui	s0,0xffff8
    57d0:	2965                	jal	5c88 <_data-0x1a378>
    57d2:	5f00                	lw	s0,56(a4)
    57d4:	505f 5254 4944      	0x49445254505f
    57da:	4646                	lw	a2,80(sp)
    57dc:	545f 5059 5f45      	0x5f455059545f
    57e2:	205f 6e69 0074      	0x746e69205f
    57e8:	535f 5a49 5f45      	0x5f455a49535f
    57ee:	5f54                	lw	a3,60(a4)
    57f0:	4544                	lw	s1,12(a0)
    57f2:	4946                	lw	s2,80(sp)
    57f4:	454e                	lw	a0,208(sp)
    57f6:	2044                	fld	fs1,128(s0)
    57f8:	5f00                	lw	s0,56(a4)
    57fa:	575f 4e49 5f54      	0x5f544e49575f
    5800:	414d                	li	sp,19
    5802:	5f58                	lw	a4,60(a4)
    5804:	205f 7830 6666      	0x66667830205f
    580a:	6666                	flw	fa2,88(sp)
    580c:	6666                	flw	fa2,88(sp)
    580e:	6666                	flw	fa2,88(sp)
    5810:	0055                	c.addi	zero,21
    5812:	5f5f 4e47 5f55      	0x5f554e475f5f
    5818:	4956                	lw	s2,84(sp)
    581a:	4c424953          	0x4c424953
    581e:	2045                	jal	58be <_data-0x1a742>
    5820:	0030                	addi	a2,sp,8
    5822:	5f5f 5450 4452      	0x445254505f5f
    5828:	4649                	li	a2,18
    582a:	5f46                	lw	t5,112(sp)
    582c:	2054                	fld	fa3,128(s0)
    582e:	5f00                	lw	s0,56(a4)
    5830:	4552                	lw	a0,20(sp)
    5832:	4e45                	li	t3,17
    5834:	5f54                	lw	a3,60(a4)
    5836:	4f544357          	0x4f544357
    583a:	424d                	li	tp,19
    583c:	535f 4154 4554      	0x45544154535f
    5842:	7028                	flw	fa0,96(s0)
    5844:	7274                	flw	fa3,100(a2)
    5846:	2029                	jal	5850 <_data-0x1a7b0>
    5848:	2828                	fld	fa0,80(s0)
    584a:	7470                	flw	fa2,108(s0)
    584c:	2972                	fld	fs2,280(sp)
    584e:	3e2d                	jal	5388 <_data-0x1ac78>
    5850:	6e5f 7765 5f2e      	0x5f2e77656e5f
    5856:	6572                	flw	fa0,28(sp)
    5858:	6e65                	lui	t3,0x19
    585a:	2e74                	fld	fa3,216(a2)
    585c:	775f 7463 6d6f      	0x6d6f7463775f
    5862:	5f62                	lw	t5,56(sp)
    5864:	74617473          	csrrci	s0,0x746,2
    5868:	2965                	jal	5d20 <_data-0x1a2e0>
    586a:	5f00                	lw	s0,56(a4)
    586c:	7364                	flw	fs1,100(a4)
    586e:	61685f6f          	jal	t5,8ae84 <__global_pointer$+0x69e54>
    5872:	646e                	flw	fs0,216(sp)
    5874:	656c                	flw	fa1,76(a0)
    5876:	7000                	flw	fs0,32(s0)
    5878:	7968                	flw	fa0,116(a0)
    587a:	72646173          	csrrsi	sp,0x726,8
    587e:	7020                	flw	fs0,96(s0)
    5880:	7968                	flw	fa0,116(a0)
    5882:	72646173          	csrrsi	sp,0x726,8
    5886:	745f 5f00 495f      	0x495f5f00745f
    588c:	544e                	lw	s0,240(sp)
    588e:	465f 5341 3154      	0x31545341465f
    5894:	5f36                	lw	t5,108(sp)
    5896:	5954                	lw	a3,52(a0)
    5898:	4550                	lw	a2,12(a0)
    589a:	5f5f 6920 746e      	0x746e69205f5f
    58a0:	5f00                	lw	s0,56(a4)
    58a2:	4955                	li	s2,21
    58a4:	544e                	lw	s0,240(sp)
    58a6:	414d                	li	sp,19
    58a8:	5f58                	lw	a4,60(a4)
    58aa:	5f54                	lw	a3,60(a4)
    58ac:	4544                	lw	s1,12(a0)
    58ae:	52414c43          	fmadd.d	fs8,ft2,ft4,fa0,rmm
    58b2:	4445                	li	s0,17
    58b4:	0020                	addi	s0,sp,8
    58b6:	725f 6e61 3464      	0x34646e61725f
    58bc:	0038                	addi	a4,sp,8
    58be:	5f5f 4955 544e      	0x544e49555f5f
    58c4:	4c5f 4145 5453      	0x545341454c5f
    58ca:	3631                	jal	53d6 <_data-0x1ac2a>
    58cc:	545f 5059 5f45      	0x5f455059545f
    58d2:	205f 6873 726f      	0x726f6873205f
    58d8:	2074                	fld	fa3,192(s0)
    58da:	6e75                	lui	t3,0x1d
    58dc:	6e676973          	csrrsi	s2,0x6e6,14
    58e0:	6465                	lui	s0,0x19
    58e2:	6920                	flw	fs0,80(a0)
    58e4:	746e                	flw	fs0,248(sp)
    58e6:	5f00                	lw	s0,56(a4)
    58e8:	4449                	li	s0,18
    58ea:	545f 445f 4345      	0x4345445f545f
    58f0:	414c                	lw	a1,4(a0)
    58f2:	4552                	lw	a0,20(sp)
    58f4:	2044                	fld	fs1,128(s0)
    58f6:	5f00                	lw	s0,56(a4)
    58f8:	4e49                	li	t3,18
    58fa:	4d54                	lw	a3,28(a0)
    58fc:	5841                	li	a6,-16
    58fe:	545f 445f 4345      	0x4345445f545f
    5904:	414c                	lw	a1,4(a0)
    5906:	4552                	lw	a0,20(sp)
    5908:	2044                	fld	fs1,128(s0)
    590a:	5f00                	lw	s0,56(a4)
    590c:	435f 4148 3152      	0x31524148435f
    5912:	5f36                	lw	t5,108(sp)
    5914:	5954                	lw	a3,52(a0)
    5916:	4550                	lw	a2,12(a0)
    5918:	5f5f 7320 6f68      	0x6f6873205f5f
    591e:	7472                	flw	fs0,60(sp)
    5920:	7520                	flw	fs0,104(a0)
    5922:	736e                	flw	ft6,248(sp)
    5924:	6769                	lui	a4,0x1a
    5926:	656e                	flw	fa0,216(sp)
    5928:	2064                	fld	fs1,192(s0)
    592a:	6e69                	lui	t3,0x1a
    592c:	0074                	addi	a3,sp,12
    592e:	535f 5f43 5346      	0x53465f43535f
    5934:	4e59                	li	t3,22
    5936:	32322043          	fmadd.d	ft0,ft4,ft3,ft6,rdn
    593a:	5f00                	lw	s0,56(a4)
    593c:	535f 4452 3020      	0x30204452535f
    5942:	3078                	fld	fa4,224(s0)
    5944:	3030                	fld	fa2,96(s0)
    5946:	0034                	addi	a3,sp,8
    5948:	5f5f 4c46 3354      	0x33544c465f5f
    594e:	5832                	lw	a6,44(sp)
    5950:	445f 4749 5f5f      	0x5f5f4749445f
    5956:	3120                	fld	fs0,96(a0)
    5958:	0035                	c.addi	zero,13
    595a:	5f5f 6973 6e67      	0x6e6769735f5f
    5960:	6465                	lui	s0,0x19
    5962:	7320                	flw	fs0,96(a4)
    5964:	6769                	lui	a4,0x1a
    5966:	656e                	flw	fa0,216(sp)
    5968:	0064                	addi	s1,sp,12
    596a:	535f 5f43 5441      	0x54415f43535f
    5970:	5845                	li	a6,-15
    5972:	5449                	li	s0,-14
    5974:	4d5f 5841 3520      	0x352058414d5f
    597a:	0035                	c.addi	zero,13
    597c:	525f 4545 544e      	0x544e4545525f
    5982:	415f 4353 4954      	0x49544353415f
    5988:	454d                	li	a0,19
    598a:	425f 4655 7028      	0x70284655425f
    5990:	7274                	flw	fa3,100(a2)
    5992:	2029                	jal	599c <_data-0x1a664>
    5994:	2828                	fld	fa0,80(s0)
    5996:	7470                	flw	fa2,108(s0)
    5998:	2972                	fld	fs2,280(sp)
    599a:	3e2d                	jal	54d4 <_data-0x1ab2c>
    599c:	6e5f 7765 5f2e      	0x5f2e77656e5f
    59a2:	6572                	flw	fa0,28(sp)
    59a4:	6e65                	lui	t3,0x19
    59a6:	2e74                	fld	fa3,216(a2)
    59a8:	615f 6373 6974      	0x69746373615f
    59ae:	656d                	lui	a0,0x1b
    59b0:	625f 6675 0029      	0x296675625f
    59b6:	425f 4b4c 4e43      	0x4e434b4c425f
    59bc:	5f54                	lw	a3,60(a4)
    59be:	5f54                	lw	a3,60(a4)
    59c0:	4544                	lw	s1,12(a0)
    59c2:	52414c43          	fmadd.d	fs8,ft2,ft4,fa0,rmm
    59c6:	4445                	li	s0,17
    59c8:	0020                	addi	s0,sp,8
    59ca:	5f5f 4946 494e      	0x494e49465f5f
    59d0:	4554                	lw	a3,12(a0)
    59d2:	4d5f 5441 5f48      	0x5f4854414d5f
    59d8:	594c4e4f          	fnmadd.s	ft8,fs8,fs4,fa1,rmm
    59dc:	5f5f 3020 5f00      	0x5f0030205f5f
    59e2:	495f 544e 465f      	0x465f544e495f
    59e8:	5341                	li	t1,-16
    59ea:	3154                	fld	fa3,160(a0)
    59ec:	5f36                	lw	t5,108(sp)
    59ee:	414d                	li	sp,19
    59f0:	5f58                	lw	a4,60(a4)
    59f2:	205f 7830 6637      	0x66377830205f
    59f8:	6666                	flw	fa2,88(sp)
    59fa:	6666                	flw	fa2,88(sp)
    59fc:	6666                	flw	fa2,88(sp)
    59fe:	5f00                	lw	s0,56(a4)
    5a00:	685f 7661 5f65      	0x5f657661685f
    5a06:	6f6c                	flw	fa1,92(a4)
    5a08:	676e                	flw	fa4,216(sp)
    5a0a:	6f6c                	flw	fa1,92(a4)
    5a0c:	676e                	flw	fa4,216(sp)
    5a0e:	3436                	fld	fs0,360(sp)
    5a10:	3120                	fld	fs0,96(a0)
    5a12:	4900                	lw	s0,16(a0)
    5a14:	544e                	lw	s0,240(sp)
    5a16:	465f 5341 3154      	0x31545341465f
    5a1c:	5f36                	lw	t5,108(sp)
    5a1e:	494d                	li	s2,19
    5a20:	204e                	fld	ft0,208(sp)
    5a22:	2d28                	fld	fa0,88(a0)
    5a24:	5f5f 4e49 5f54      	0x5f544e495f5f
    5a2a:	4146                	lw	sp,80(sp)
    5a2c:	36315453          	0x36315453
    5a30:	4d5f 5841 5f5f      	0x5f5f58414d5f
    5a36:	2d20                	fld	fs0,88(a0)
    5a38:	3120                	fld	fs0,96(a0)
    5a3a:	0029                	c.addi	zero,10
    5a3c:	5f5f 4f53 5450      	0x54504f535f5f
    5a42:	3020                	fld	fs0,96(s0)
    5a44:	3078                	fld	fa4,224(s0)
    5a46:	3034                	fld	fa3,96(s0)
    5a48:	0030                	addi	a2,sp,8
    5a4a:	625f 6b6c 6973      	0x69736b6c625f
    5a50:	657a                	flw	fa0,156(sp)
    5a52:	5300                	lw	s0,32(a4)
    5a54:	4545                	li	a0,17
    5a56:	4e455f4b          	fnmsub.q	ft10,fa0,ft4,fs1,unknown
    5a5a:	2044                	fld	fs1,128(s0)
    5a5c:	0032                	0x32
    5a5e:	555f 4e49 3854      	0x38544e49555f
    5a64:	545f 445f 4345      	0x4345445f545f
    5a6a:	414c                	lw	a1,4(a0)
    5a6c:	4552                	lw	a0,20(sp)
    5a6e:	2044                	fld	fs1,128(s0)
    5a70:	5f00                	lw	s0,56(a4)
    5a72:	725f 7369 7663      	0x76637369725f
    5a78:	785f 656c 206e      	0x206e656c785f
    5a7e:	5f003233          	0x5f003233
    5a82:	4552                	lw	a0,20(sp)
    5a84:	4e45                	li	t3,17
    5a86:	5f54                	lw	a3,60(a4)
    5a88:	504d                	0x504d
    5a8a:	505f 5335 7028      	0x70285335505f
    5a90:	7274                	flw	fa3,100(a2)
    5a92:	2029                	jal	5a9c <_data-0x1a564>
    5a94:	2828                	fld	fa0,80(s0)
    5a96:	7470                	flw	fa2,108(s0)
    5a98:	2972                	fld	fs2,280(sp)
    5a9a:	3e2d                	jal	55d4 <_data-0x1aa2c>
    5a9c:	705f 7335 0029      	0x297335705f
    5aa2:	555f 4e49 5054      	0x50544e49555f
    5aa8:	5254                	lw	a3,36(a2)
    5aaa:	545f 445f 4345      	0x4345445f545f
    5ab0:	414c                	lw	a1,4(a0)
    5ab2:	4552                	lw	a0,20(sp)
    5ab4:	2044                	fld	fs1,128(s0)
    5ab6:	5f00                	lw	s0,56(a4)
    5ab8:	41484357          	0x41484357
    5abc:	5f52                	lw	t5,52(sp)
    5abe:	5f54                	lw	a3,60(a4)
    5ac0:	4544                	lw	s1,12(a0)
    5ac2:	4946                	lw	s2,80(sp)
    5ac4:	454e                	lw	a0,208(sp)
    5ac6:	2044                	fld	fs1,128(s0)
    5ac8:	5f00                	lw	s0,56(a4)
    5aca:	6162                	flw	ft2,24(sp)
    5acc:	5f006573          	csrrsi	a0,0x5f0,0
    5ad0:	555f 4e49 5054      	0x50544e49555f
    5ad6:	5254                	lw	a3,36(a2)
    5ad8:	4d5f 5841 5f5f      	0x5f5f58414d5f
    5ade:	3020                	fld	fs0,96(s0)
    5ae0:	6678                	flw	fa4,76(a2)
    5ae2:	6666                	flw	fa2,88(sp)
    5ae4:	6666                	flw	fa2,88(sp)
    5ae6:	6666                	flw	fa2,88(sp)
    5ae8:	5566                	lw	a0,120(sp)
    5aea:	5f00                	lw	s0,56(a4)
    5aec:	745f 7972 6f6c      	0x6f6c7972745f
    5af2:	5f736b63          	bltu	t1,s7,60e8 <_data-0x19f18>
    5af6:	72616873          	csrrsi	a6,0x726,2
    5afa:	6465                	lui	s0,0x19
    5afc:	2e28                	fld	fa0,88(a2)
    5afe:	2e2e                	fld	ft8,200(sp)
    5b00:	2029                	jal	5b0a <_data-0x1a4f6>
    5b02:	5f5f 6f6c 6b63      	0x6b636f6c5f5f
    5b08:	615f 6e6e 746f      	0x746f6e6e615f
    5b0e:	7461                	lui	s0,0xffff8
    5b10:	2865                	jal	5bc8 <_data-0x1a438>
    5b12:	72616873          	csrrsi	a6,0x726,2
    5b16:	6465                	lui	s0,0x19
    5b18:	745f 7972 6f6c      	0x6f6c7972745f
    5b1e:	665f6b63          	bltu	t5,t0,6194 <_data-0x19e6c>
    5b22:	6e75                	lui	t3,0x1d
    5b24:	6f697463          	bleu	s6,s2,620c <_data-0x19df4>
    5b28:	286e                	fld	fa6,216(sp)
    5b2a:	5f5f 4156 415f      	0x415f41565f5f
    5b30:	4752                	lw	a4,20(sp)
    5b32:	295f5f53          	0x295f5f53
    5b36:	0029                	c.addi	zero,10
    5b38:	5f5f 7468 6e6f      	0x6e6f74685f5f
    5b3e:	785f2873          	csrrs	a6,0x785,t5
    5b42:	2029                	jal	5b4c <_data-0x1a4b4>
    5b44:	5f5f 7362 6177      	0x617773625f5f
    5b4a:	3170                	fld	fa2,224(a0)
    5b4c:	2836                	fld	fa6,328(sp)
    5b4e:	785f 0029 706f      	0x706f0029785f
    5b54:	6574                	flw	fa3,76(a0)
    5b56:	7272                	flw	ft4,60(sp)
    5b58:	5f00                	lw	s0,56(a4)
    5b5a:	74727473          	csrrci	s0,0x747,4
    5b5e:	6c5f6b6f          	jal	s6,fca22 <__global_pointer$+0xdb9f2>
    5b62:	7361                	lui	t1,0xffff8
    5b64:	0074                	addi	a3,sp,12
    5b66:	525f 4545 544e      	0x544e4545525f
    5b6c:	545f 284d 7470      	0x7470284d545f
    5b72:	2972                	fld	fs2,280(sp)
    5b74:	2820                	fld	fs0,80(s0)
    5b76:	2826                	fld	fa6,72(sp)
    5b78:	7470                	flw	fa2,108(s0)
    5b7a:	2972                	fld	fs2,280(sp)
    5b7c:	3e2d                	jal	56b6 <_data-0x1a94a>
    5b7e:	6e5f 7765 5f2e      	0x5f2e77656e5f
    5b84:	6572                	flw	fa0,28(sp)
    5b86:	6e65                	lui	t3,0x19
    5b88:	2e74                	fld	fa3,216(a2)
    5b8a:	6c5f 636f 6c61      	0x6c61636f6c5f
    5b90:	6974                	flw	fa3,84(a0)
    5b92:	656d                	lui	a0,0x1b
    5b94:	625f 6675 0029      	0x296675625f
    5b9a:	5f5f 656e 6465      	0x6465656e5f5f
    5ba0:	695f 746e 7974      	0x7974746e695f
    5ba6:	6570                	flw	fa2,76(a0)
    5ba8:	525f0073          	0x525f0073
    5bac:	4545                	li	a0,17
    5bae:	544e                	lw	s0,240(sp)
    5bb0:	575f 5243 4f54      	0x4f545243575f
    5bb6:	424d                	li	tp,19
    5bb8:	535f 4154 4554      	0x45544154535f
    5bbe:	7028                	flw	fa0,96(s0)
    5bc0:	7274                	flw	fa3,100(a2)
    5bc2:	2029                	jal	5bcc <_data-0x1a434>
    5bc4:	2828                	fld	fa0,80(s0)
    5bc6:	7470                	flw	fa2,108(s0)
    5bc8:	2972                	fld	fs2,280(sp)
    5bca:	3e2d                	jal	5704 <_data-0x1a8fc>
    5bcc:	6e5f 7765 5f2e      	0x5f2e77656e5f
    5bd2:	6572                	flw	fa0,28(sp)
    5bd4:	6e65                	lui	t3,0x19
    5bd6:	2e74                	fld	fa3,216(a2)
    5bd8:	775f 7263 6f74      	0x6f747263775f
    5bde:	626d                	lui	tp,0x1b
    5be0:	735f 6174 6574      	0x65746174735f
    5be6:	0029                	c.addi	zero,10
    5be8:	5f5f 4955 544e      	0x544e49555f5f
    5bee:	4c5f 4145 5453      	0x545341454c5f
    5bf4:	5f38                	lw	a4,120(a4)
    5bf6:	414d                	li	sp,19
    5bf8:	5f58                	lw	a4,60(a4)
    5bfa:	205f 7830 6666      	0x66667830205f
    5c00:	5f00                	lw	s0,56(a4)
    5c02:	626d                	lui	tp,0x1b
    5c04:	7472                	flw	fs0,60(sp)
    5c06:	5f63776f          	jal	a4,3d1fc <__global_pointer$+0x1c1cc>
    5c0a:	74617473          	csrrci	s0,0x746,2
    5c0e:	0065                	c.addi	zero,25
    5c10:	5f5f 6f63 746e      	0x746e6f635f5f
    5c16:	6961                	lui	s2,0x18
    5c18:	656e                	flw	fa0,216(sp)
    5c1a:	6f72                	flw	ft10,28(sp)
    5c1c:	2866                	fld	fa6,88(sp)
    5c1e:	2c78                	fld	fa4,216(s0)
    5c20:	296d2c73          	csrrs	s8,0x296,s10
    5c24:	2820                	fld	fs0,80(s0)
    5c26:	6f63207b          	0x6f63207b
    5c2a:	736e                	flw	ft6,248(sp)
    5c2c:	2074                	fld	fa3,192(s0)
    5c2e:	6f76                	flw	ft10,92(sp)
    5c30:	616c                	flw	fa1,68(a0)
    5c32:	6974                	flw	fa3,84(a0)
    5c34:	656c                	flw	fa1,76(a0)
    5c36:	5f20                	lw	s0,120(a4)
    5c38:	745f 7079 6f65      	0x6f657079745f
    5c3e:	2866                	fld	fa6,88(sp)
    5c40:	2828                	fld	fa0,80(s0)
    5c42:	292a2073          	csrs	0x292,s4
    5c46:	2930                	fld	fa2,80(a0)
    5c48:	3e2d                	jal	5782 <_data-0x1a87e>
    5c4a:	296d                	jal	6104 <_data-0x19efc>
    5c4c:	2a20                	fld	fs0,80(a2)
    5c4e:	5f5f 2078 203d      	0x203d20785f5f
    5c54:	7828                	flw	fa0,112(s0)
    5c56:	3b29                	jal	5970 <_data-0x1a690>
    5c58:	5f20                	lw	s0,120(a4)
    5c5a:	445f 5145 4155      	0x41555145445f
    5c60:	494c                	lw	a1,20(a0)
    5c62:	5946                	lw	s2,112(sp)
    5c64:	7328                	flw	fa0,96(a4)
    5c66:	2a20                	fld	fs0,80(a2)
    5c68:	202c                	fld	fa1,64(s0)
    5c6a:	6328                	flw	fa0,64(a4)
    5c6c:	74736e6f          	jal	t3,3cbb2 <__global_pointer$+0x1bb82>
    5c70:	7620                	flw	fs0,104(a2)
    5c72:	74616c6f          	jal	s8,1c3b8 <_data-0x3c48>
    5c76:	6c69                	lui	s8,0x1a
    5c78:	2065                	jal	5d20 <_data-0x1a2e0>
    5c7a:	72616863          	bltu	sp,t1,63aa <_data-0x19c56>
    5c7e:	2a20                	fld	fs0,80(a2)
    5c80:	5f29                	li	t5,-22
    5c82:	785f 2d20 5f20      	0x5f202d20785f
    5c88:	6f5f 6666 6573      	0x657366666f5f
    5c8e:	6f74                	flw	fa3,92(a4)
    5c90:	2866                	fld	fa6,88(sp)
    5c92:	6d202c73          	csrr	s8,0x6d2
    5c96:	2929                	jal	60b0 <_data-0x19f50>
    5c98:	00297d3b          	0x297d3b
    5c9c:	555f 4e49 3354      	0x33544e49555f
    5ca2:	5f32                	lw	t5,44(sp)
    5ca4:	5f54                	lw	a3,60(a4)
    5ca6:	4544                	lw	s1,12(a0)
    5ca8:	52414c43          	fmadd.d	fs8,ft2,ft4,fa0,rmm
    5cac:	4445                	li	s0,17
    5cae:	0020                	addi	s0,sp,8
    5cb0:	544e4957          	0x544e4957
    5cb4:	4d5f 4e49 2820      	0x28204e494d5f
    5cba:	5f5f 4957 544e      	0x544e49575f5f
    5cc0:	4d5f 4e49 5f5f      	0x5f5f4e494d5f
    5cc6:	0029                	c.addi	zero,10
    5cc8:	425f 4453 535f      	0x535f4453425f
    5cce:	5a49                	li	s4,-14
    5cd0:	5f45                	li	t5,-15
    5cd2:	5f54                	lw	a3,60(a4)
    5cd4:	0020                	addi	s0,sp,8
    5cd6:	5450                	lw	a2,44(s0)
    5cd8:	5248                	lw	a0,36(a2)
    5cda:	4145                	li	sp,17
    5cdc:	5f44                	lw	s1,60(a4)
    5cde:	504f4353          	0x504f4353
    5ce2:	5f45                	li	t5,-15
    5ce4:	5250                	lw	a2,36(a2)
    5ce6:	5345434f          	fnmadd.d	ft6,fa0,fs4,fa0,rmm
    5cea:	00302053          	fadd.s	ft0,ft0,ft3,rdn
    5cee:	535f 5f43 4941      	0x49415f43535f
    5cf4:	52505f4f          	fnmadd.d	ft10,ft0,ft5,fa0,unknown
    5cf8:	4f49                	li	t5,18
    5cfa:	445f 4c45 4154      	0x41544c45445f
    5d00:	4d5f 5841 3320      	0x332058414d5f
    5d06:	0036                	0x36
    5d08:	535f 4454 4f49      	0x4f494454535f
    5d0e:	485f 205f 5f00      	0x5f00205f485f
    5d14:	6c66                	flw	fs8,88(sp)
    5d16:	5f6b636f          	jal	t1,bc30c <__global_pointer$+0x9b2dc>
    5d1a:	0074                	addi	a3,sp,12
    5d1c:	535f 5f43 5f32      	0x5f325f43535f
    5d22:	4250                	lw	a2,4(a2)
    5d24:	31312053          	0x31312053
    5d28:	5f5f0033          	0x5f5f0033
    5d2c:	4946                	lw	s2,80(sp)
    5d2e:	454c                	lw	a1,12(a0)
    5d30:	5f00                	lw	s0,56(a4)
    5d32:	585f4353          	0x585f4353
    5d36:	4e45504f          	fnmadd.q	ft0,fa0,ft4,fs1,unknown
    5d3a:	435f 5952 5450      	0x54505952435f
    5d40:	3920                	fld	fs0,112(a0)
    5d42:	0036                	0x36
    5d44:	535f 5f43 4854      	0x48545f43535f
    5d4a:	4552                	lw	a0,20(sp)
    5d4c:	4441                	li	s0,16
    5d4e:	535f 4f50 4152      	0x41524f50535f
    5d54:	4944                	lw	s1,20(a0)
    5d56:	45535f43          	0x45535f43
    5d5a:	5652                	lw	a2,52(sp)
    5d5c:	5245                	li	tp,-15
    5d5e:	3820                	fld	fs0,112(s0)
    5d60:	0031                	c.addi	zero,12
    5d62:	535f 5f43 5043      	0x50435f43535f
    5d68:	5455                	li	s0,-11
    5d6a:	4d49                	li	s10,18
    5d6c:	2045                	jal	5e0c <_data-0x1a1f4>
    5d6e:	3336                	fld	ft6,360(sp)
    5d70:	5f00                	lw	s0,56(a4)
    5d72:	545f4353          	0x545f4353
    5d76:	5248                	lw	a0,36(a2)
    5d78:	4145                	li	sp,17
    5d7a:	5f44                	lw	s1,60(a4)
    5d7c:	54555043          	0x54555043
    5d80:	4d49                	li	s10,18
    5d82:	2045                	jal	5e22 <_data-0x1a1de>
    5d84:	3038                	fld	fa4,96(s0)
    5d86:	5f00                	lw	s0,56(a4)
    5d88:	505f4353          	0x505f4353
    5d8c:	4741                	li	a4,16
    5d8e:	5f45                	li	t5,-15
    5d90:	455a4953          	0x455a4953
    5d94:	5f20                	lw	s0,120(a4)
    5d96:	505f4353          	0x505f4353
    5d9a:	4741                	li	a4,16
    5d9c:	5345                	li	t1,-15
    5d9e:	5a49                	li	s4,-14
    5da0:	0045                	c.addi	zero,17
    5da2:	6c61                	lui	s8,0x18
    5da4:	6f6c                	flw	fa1,92(a4)
    5da6:	73286163          	bltu	a6,s2,64c8 <_data-0x19b38>
    5daa:	7a69                	lui	s4,0xffffa
    5dac:	2965                	jal	6264 <_data-0x19d9c>
    5dae:	5f20                	lw	s0,120(a4)
    5db0:	625f 6975 746c      	0x746c6975625f
    5db6:	6e69                	lui	t3,0x1a
    5db8:	615f 6c6c 636f      	0x636f6c6c615f
    5dbe:	2861                	jal	5e56 <_data-0x1a1aa>
    5dc0:	657a6973          	csrrsi	s2,0x657,20
    5dc4:	0029                	c.addi	zero,10
    5dc6:	435f 4f4c 4b43      	0x4b434f4c435f
    5dcc:	4449                	li	s0,18
    5dce:	545f 205f 6e75      	0x6e75205f545f
    5dd4:	6e676973          	csrrsi	s2,0x6e6,14
    5dd8:	6465                	lui	s0,0x19
    5dda:	6c20                	flw	fs0,88(s0)
    5ddc:	00676e6f          	jal	t3,7bde2 <__global_pointer$+0x5adb2>
    5de0:	525f 4545 544e      	0x544e4545525f
    5de6:	435f 4548 4b43      	0x4b434548435f
    5dec:	545f 284d 7470      	0x7470284d545f
    5df2:	2972                	fld	fs2,280(sp)
    5df4:	0020                	addi	s0,sp,8
    5df6:	475f 4449 545f      	0x545f4449475f
    5dfc:	445f 4345 414c      	0x414c4345445f
    5e02:	4552                	lw	a0,20(sp)
    5e04:	2044                	fld	fs1,128(s0)
    5e06:	5f00                	lw	s0,56(a4)
    5e08:	685f 7361 625f      	0x625f7361685f
    5e0e:	6975                	lui	s2,0x1d
    5e10:	746c                	flw	fa1,108(s0)
    5e12:	6e69                	lui	t3,0x1a
    5e14:	7828                	flw	fa0,112(s0)
    5e16:	2029                	jal	5e20 <_data-0x1a1e0>
    5e18:	0030                	addi	a2,sp,8
    5e1a:	5f5f 4e49 5f54      	0x5f544e495f5f
    5e20:	41484357          	0x41484357
    5e24:	5f52                	lw	t5,52(sp)
    5e26:	5f54                	lw	a3,60(a4)
    5e28:	2048                	fld	fa0,128(s0)
    5e2a:	5f00                	lw	s0,56(a4)
    5e2c:	54534143          	0x54534143
    5e30:	565f 494f 2044      	0x2044494f565f
    5e36:	7628                	flw	fa0,104(a2)
    5e38:	2964696f          	jal	s2,4c0ce <__global_pointer$+0x2b09e>
    5e3c:	5f00                	lw	s0,56(a4)
    5e3e:	4d5f4353          	0x4d5f4353
    5e42:	4d45                	li	s10,17
    5e44:	4f4c                	lw	a1,28(a4)
    5e46:	525f4b43          	fmadd.d	fs6,ft10,ft5,fa0,rmm
    5e4a:	4e41                	li	t3,16
    5e4c:	32204547          	fmsub.d	fa0,ft0,ft2,ft6,rmm
    5e50:	0035                	c.addi	zero,13
    5e52:	4e49                	li	t3,18
    5e54:	5f54                	lw	a3,60(a4)
    5e56:	454c                	lw	a1,12(a0)
    5e58:	5341                	li	t1,-16
    5e5a:	3854                	fld	fa3,176(s0)
    5e5c:	4d5f 4e49 2820      	0x28204e494d5f
    5e62:	5f2d                	li	t5,-21
    5e64:	495f 544e 4c5f      	0x4c5f544e495f
    5e6a:	4145                	li	sp,17
    5e6c:	5f385453          	0x5f385453
    5e70:	414d                	li	sp,19
    5e72:	5f58                	lw	a4,60(a4)
    5e74:	205f 202d 2931      	0x2931202d205f
    5e7a:	5f00                	lw	s0,56(a4)
    5e7c:	4c5f4353          	0x4c5f4353
    5e80:	5645                	li	a2,-15
    5e82:	4c45                	li	s8,17
    5e84:	5f31                	li	t5,-20
    5e86:	4344                	lw	s1,4(a4)
    5e88:	4341                	li	t1,16
    5e8a:	4548                	lw	a0,12(a0)
    5e8c:	415f 5353 434f      	0x434f5353415f
    5e92:	3120                	fld	fs0,96(a0)
    5e94:	3932                	fld	fs2,296(sp)
    5e96:	5f00                	lw	s0,56(a4)
    5e98:	535f 4749 415f      	0x415f4749535f
    5e9e:	4f54                	lw	a3,28(a4)
    5ea0:	494d                	li	s2,19
    5ea2:	59545f43          	fmadd.s	ft10,fs0,fs5,fa1,unknown
    5ea6:	4550                	lw	a2,12(a0)
    5ea8:	5f5f 6920 746e      	0x746e69205f5f
    5eae:	5f00                	lw	s0,56(a4)
    5eb0:	3472                	fld	fs0,312(sp)
    5eb2:	0038                	addi	a4,sp,8
    5eb4:	575f 4e41 5f54      	0x5f544e41575f
    5eba:	4f49                	li	t5,18
    5ebc:	435f 3939 465f      	0x465f3939435f
    5ec2:	414d524f          	fnmadd.s	ft4,fs10,fs4,fs0,unknown
    5ec6:	5354                	lw	a3,36(a4)
    5ec8:	3120                	fld	fs0,96(a0)
    5eca:	4900                	lw	s0,16(a0)
    5ecc:	544e                	lw	s0,240(sp)
    5ece:	4d5f3233          	0x4d5f3233
    5ed2:	4e49                	li	t3,18
    5ed4:	2820                	fld	fs0,80(s0)
    5ed6:	5f2d                	li	t5,-21
    5ed8:	495f 544e 3233      	0x3233544e495f
    5ede:	4d5f 5841 5f5f      	0x5f5f58414d5f
    5ee4:	2d20                	fld	fs0,88(a0)
    5ee6:	3120                	fld	fs0,96(a0)
    5ee8:	0029                	c.addi	zero,10
    5eea:	475f 4343 575f      	0x575f4343475f
    5ef0:	52414843          	fmadd.d	fa6,ft2,ft4,fa0,rmm
    5ef4:	545f 0020 535f      	0x535f0020545f
    5efa:	45535f43          	0x45535f43
    5efe:	5f4d                	li	t5,-13
    5f00:	534e                	lw	t1,240(sp)
    5f02:	4d45                	li	s10,17
    5f04:	414d5f53          	0x414d5f53
    5f08:	2058                	fld	fa4,128(s0)
    5f0a:	3631                	jal	5a16 <_data-0x1a5ea>
    5f0c:	5f00                	lw	s0,56(a4)
    5f0e:	445f 4c42 4d5f      	0x4d5f4c42445f
    5f14:	4e49                	li	t3,18
    5f16:	5f5f 2820 6428      	0x642828205f5f
    5f1c:	6c62756f          	jal	a0,2d5e2 <__global_pointer$+0xc5b2>
    5f20:	2965                	jal	63d8 <_data-0x19c28>
    5f22:	2e32                	fld	ft8,264(sp)
    5f24:	3232                	fld	ft4,296(sp)
    5f26:	3035                	jal	5752 <_data-0x1a8ae>
    5f28:	35383337          	lui	t1,0x35383
    5f2c:	3538                	fld	fa4,104(a0)
    5f2e:	3730                	fld	fa2,104(a4)
    5f30:	3032                	fld	ft0,296(sp)
    5f32:	3331                	jal	5c3e <_data-0x1a3c2>
    5f34:	3338                	fld	fa4,96(a4)
    5f36:	3930                	fld	fa2,112(a0)
    5f38:	3230                	fld	fa2,96(a2)
    5f3a:	31373233          	0x31373233
    5f3e:	32333337          	lui	t1,0x32333
    5f42:	3034                	fld	fa3,96(s0)
    5f44:	3034                	fld	fa3,96(s0)
    5f46:	6536                	flw	fa0,76(sp)
    5f48:	332d                	jal	5c72 <_data-0x1a38e>
    5f4a:	3830                	fld	fa2,112(s0)
    5f4c:	294c                	fld	fa1,144(a0)
    5f4e:	5f00                	lw	s0,56(a4)
    5f50:	725f 7369 7663      	0x76637369725f
    5f56:	615f 6f74 696d      	0x696d6f74615f
    5f5c:	00312063          	0x312063
    5f60:	5f5f 4c46 3654      	0x36544c465f5f
    5f66:	5834                	lw	a3,112(s0)
    5f68:	4d5f 4e49 5f5f      	0x5f5f4e494d5f
    5f6e:	3320                	fld	fs0,96(a4)
    5f70:	332e                	fld	ft6,232(sp)
    5f72:	3236                	fld	ft4,360(sp)
    5f74:	3031                	jal	5780 <_data-0x1a880>
    5f76:	33343133          	0x33343133
    5f7a:	3131                	jal	5b86 <_data-0x1a47a>
    5f7c:	3032                	fld	ft0,296(sp)
    5f7e:	3339                	jal	5c8c <_data-0x1a374>
    5f80:	3035                	jal	57ac <_data-0x1a854>
    5f82:	3236                	fld	ft4,360(sp)
    5f84:	3236                	fld	ft4,360(sp)
    5f86:	3736                	fld	fa4,360(sp)
    5f88:	37313837          	lui	a6,0x37313
    5f8c:	37313233          	0x37313233
    5f90:	3235                	jal	58bc <_data-0x1a744>
    5f92:	3036                	fld	ft0,360(sp)
    5f94:	2d65                	jal	664c <_data-0x199b4>
    5f96:	3934                	fld	fa3,112(a0)
    5f98:	36463233          	0x36463233
    5f9c:	7834                	flw	fa3,112(s0)
    5f9e:	5f00                	lw	s0,56(a4)
    5fa0:	545f4353          	0x545f4353
    5fa4:	4152                	lw	sp,20(sp)
    5fa6:	495f4543          	fmadd.s	fa0,ft10,fs5,fs1,rmm
    5faa:	484e                	lw	a6,208(sp)
    5fac:	5245                	li	tp,-15
    5fae:	5449                	li	s0,-14
    5fb0:	3820                	fld	fs0,112(s0)
    5fb2:	0036                	0x36
    5fb4:	5f5f 4357 4148      	0x414843575f5f
    5fba:	5f52                	lw	t5,52(sp)
    5fbc:	414d                	li	sp,19
    5fbe:	5f58                	lw	a4,60(a4)
    5fc0:	205f 7830 6637      	0x66377830205f
    5fc6:	6666                	flw	fa2,88(sp)
    5fc8:	6666                	flw	fa2,88(sp)
    5fca:	6666                	flw	fa2,88(sp)
    5fcc:	5f00                	lw	s0,56(a4)
    5fce:	5f535953          	0x5f535953
    5fd2:	5954                	lw	a3,52(a0)
    5fd4:	4550                	lw	a2,12(a0)
    5fd6:	44465f53          	0x44465f53
    5fda:	535f 5445 0020      	0x205445535f
    5fe0:	645f 7461 0061      	0x617461645f
    5fe6:	535f 5f43 5254      	0x52545f43535f
    5fec:	4341                	li	t1,16
    5fee:	5f45                	li	t5,-15
    5ff0:	5f535953          	0x5f535953
    5ff4:	414d                	li	sp,19
    5ff6:	2058                	fld	fa4,128(s0)
    5ff8:	3938                	fld	fa4,112(a0)
    5ffa:	5500                	lw	s0,40(a0)
    5ffc:	4e49                	li	t3,18
    5ffe:	3154                	fld	fa3,160(a0)
    6000:	5f36                	lw	t5,108(sp)
    6002:	414d                	li	sp,19
    6004:	2058                	fld	fa4,128(s0)
    6006:	5f28                	lw	a0,120(a4)
    6008:	555f 4e49 3154      	0x31544e49555f
    600e:	5f36                	lw	t5,108(sp)
    6010:	414d                	li	sp,19
    6012:	5f58                	lw	a4,60(a4)
    6014:	295f 5f00 4f4e      	0x4f4e5f00295f
    601a:	5241                	li	tp,-16
    601c:	76205347          	fmsub.q	ft6,ft0,ft2,fa4,unknown
    6020:	0064696f          	jal	s2,4c026 <__global_pointer$+0x2aff6>
    6024:	4955                	li	s2,21
    6026:	544e                	lw	s0,240(sp)
    6028:	4c5f 4145 5453      	0x545341454c5f
    602e:	5f38                	lw	a4,120(a4)
    6030:	414d                	li	sp,19
    6032:	2058                	fld	fa4,128(s0)
    6034:	5f28                	lw	a0,120(a4)
    6036:	555f 4e49 5f54      	0x5f544e49555f
    603c:	454c                	lw	a1,12(a0)
    603e:	5341                	li	t1,-16
    6040:	3854                	fld	fa3,176(s0)
    6042:	4d5f 5841 5f5f      	0x5f5f58414d5f
    6048:	0029                	c.addi	zero,10
    604a:	5f5f 4e47 4355      	0x43554e475f5f
    6050:	4d5f 4e49 524f      	0x524f4e494d5f
    6056:	5f5f 3220 5f00      	0x5f0032205f5f
    605c:	4e41                	li	t3,16
    605e:	45444953          	0x45444953
    6062:	485f4c43          	fmadd.s	fs8,ft10,ft5,fs1,rmm
    6066:	205f 5f00 555f      	0x555f5f00205f
    606c:	4e49                	li	t3,18
    606e:	5f54                	lw	a3,60(a4)
    6070:	454c                	lw	a1,12(a0)
    6072:	5341                	li	t1,-16
    6074:	3354                	fld	fa3,160(a4)
    6076:	5f32                	lw	t5,44(sp)
    6078:	5954                	lw	a3,52(a0)
    607a:	4550                	lw	a2,12(a0)
    607c:	5f5f 6c20 6e6f      	0x6e6f6c205f5f
    6082:	6e752067          	0x6e752067
    6086:	6e676973          	csrrsi	s2,0x6e6,14
    608a:	6465                	lui	s0,0x19
    608c:	6920                	flw	fs0,80(a0)
    608e:	746e                	flw	fs0,248(sp)
    6090:	5f00                	lw	s0,56(a4)
    6092:	4c5f 4244 5f4c      	0x5f4c42444c5f
    6098:	494d                	li	s2,19
    609a:	5f4e                	lw	t5,240(sp)
    609c:	3031                	jal	58a8 <_data-0x1a758>
    609e:	455f 5058 5f5f      	0x5f5f5058455f
    60a4:	2820                	fld	fs0,80(s0)
    60a6:	342d                	jal	5ad0 <_data-0x1a530>
    60a8:	3339                	jal	5db6 <_data-0x1a24a>
    60aa:	2931                	jal	64c6 <_data-0x19b3a>
    60ac:	5f00                	lw	s0,56(a4)
    60ae:	725f 7165 6975      	0x69757165725f
    60b4:	6572                	flw	fa0,28(sp)
    60b6:	78655f73          	csrrwi	t5,0x786,10
    60ba:	73756c63          	bltu	a0,s7,67f2 <_data-0x1980e>
    60be:	7669                	lui	a2,0xffffa
    60c0:	2865                	jal	6178 <_data-0x19e88>
    60c2:	2e2e                	fld	ft8,200(sp)
    60c4:	292e                	fld	fs2,200(sp)
    60c6:	5f20                	lw	s0,120(a4)
    60c8:	6c5f 636f 5f6b      	0x5f6b636f6c5f
    60ce:	6e61                	lui	t3,0x18
    60d0:	6f6e                	flw	ft10,216(sp)
    60d2:	6174                	flw	fa3,68(a0)
    60d4:	6574                	flw	fa3,76(a0)
    60d6:	6528                	flw	fa0,72(a0)
    60d8:	6378                	flw	fa4,68(a4)
    60da:	756c                	flw	fa1,108(a0)
    60dc:	65766973          	csrrsi	s2,0x657,12
    60e0:	6c5f 636f 736b      	0x736b636f6c5f
    60e6:	725f 7165 6975      	0x69757165725f
    60ec:	6572                	flw	fa0,28(sp)
    60ee:	2864                	fld	fs1,208(s0)
    60f0:	5f5f 4156 415f      	0x415f41565f5f
    60f6:	4752                	lw	a4,20(sp)
    60f8:	295f5f53          	0x295f5f53
    60fc:	0029                	c.addi	zero,10
    60fe:	525f 4e41 3444      	0x34444e41525f
    6104:	5f38                	lw	a4,120(a4)
    6106:	554d                	li	a0,-13
    6108:	544c                	lw	a1,44(s0)
    610a:	315f 2820 7830      	0x78302820315f
    6110:	6564                	flw	fs1,76(a0)
    6112:	6365                	lui	t1,0x19
    6114:	0029                	c.addi	zero,10
    6116:	5f5f 4e49 4d54      	0x4d544e495f5f
    611c:	5841                	li	a6,-16
    611e:	545f 5059 5f45      	0x5f455059545f
    6124:	205f 6f6c 676e      	0x676e6f6c205f
    612a:	6c20                	flw	fs0,88(s0)
    612c:	20676e6f          	jal	t3,7c332 <__global_pointer$+0x5b302>
    6130:	6e69                	lui	t3,0x1a
    6132:	0074                	addi	a3,sp,12
    6134:	5f5f 4347 5f43      	0x5f4343475f5f
    613a:	5441                	li	s0,-16
    613c:	43494d4f          	fnmadd.d	fs10,fs2,fs4,fs0,rmm
    6140:	495f 544e 4c5f      	0x4c5f544e495f
    6146:	5f4b434f          	fnmadd.q	ft6,fs6,fs4,fa1,rmm
    614a:	5246                	lw	tp,112(sp)
    614c:	4545                	li	a0,17
    614e:	3220                	fld	fs0,96(a2)
    6150:	5f00                	lw	s0,56(a4)
    6152:	545f4353          	0x545f4353
    6156:	4152                	lw	sp,20(sp)
    6158:	4c5f4543          	0x4c5f4543
    615c:	3820474f          	fnmadd.s	fa4,ft0,ft2,ft7,rmm
    6160:	525f0037          	lui	zero,0x525f0
    6164:	4e41                	li	t3,16
    6166:	3444                	fld	fs1,168(s0)
    6168:	5f38                	lw	a4,120(a4)
    616a:	44454553          	0x44454553
    616e:	305f 2820 7830      	0x78302820305f
    6174:	65303333          	0x65303333
    6178:	0029                	c.addi	zero,10
    617a:	535f 4953 455a      	0x455a4953535f
    6180:	545f 445f 4345      	0x4345445f545f
    6186:	414c                	lw	a1,4(a0)
    6188:	4552                	lw	a0,20(sp)
    618a:	2044                	fld	fs1,128(s0)
    618c:	5f00                	lw	s0,56(a4)
    618e:	5f434347          	fmsub.q	ft6,ft6,fs4,fa1,rmm
    6192:	414d                	li	sp,19
    6194:	5f58                	lw	a4,60(a4)
    6196:	4c41                	li	s8,16
    6198:	4749                	li	a4,18
    619a:	5f4e                	lw	t5,240(sp)
    619c:	2054                	fld	fa3,128(s0)
    619e:	5f00                	lw	s0,56(a4)
    61a0:	4c5f 6e6f 2067      	0x20676e6f4c5f
    61a6:	6f6c                	flw	fa1,92(a4)
    61a8:	676e                	flw	fa4,216(sp)
    61aa:	6f00                	flw	fs0,24(a4)
    61ac:	7475                	lui	s0,0xffffd
    61ae:	63616d2f          	0x63616d2f
    61b2:	6968                	flw	fa0,84(a0)
    61b4:	656e                	flw	fa0,216(sp)
    61b6:	722d                	lui	tp,0xfffeb
    61b8:	7369                	lui	t1,0xffffa
    61ba:	632d7663          	bleu	s2,s10,67e6 <_data-0x1981a>
    61be:	6f6d6d6f          	jal	s10,dc8b4 <__global_pointer$+0xbb884>
    61c2:	2f6e                	fld	ft10,216(sp)
    61c4:	7865                	lui	a6,0xffff9
    61c6:	6d61                	lui	s10,0x18
    61c8:	6c70                	flw	fa2,92(s0)
    61ca:	2f65                	jal	6982 <_data-0x1967e>
    61cc:	6568                	flw	fa0,76(a0)
    61ce:	6c6c                	flw	fa1,92(s0)
    61d0:	65672f6f          	jal	t5,78826 <__global_pointer$+0x577f6>
    61d4:	656e                	flw	fa0,216(sp)
    61d6:	6972                	flw	fs2,28(sp)
    61d8:	65642f63          	0x65642f63
    61dc:	7562                	flw	fa0,56(sp)
    61de:	00632e67          	0x632e67
    61e2:	535f 4454 494c      	0x494c4454535f
    61e8:	5f42                	lw	t5,48(sp)
    61ea:	5f48                	lw	a0,60(a4)
    61ec:	0020                	addi	s0,sp,8
    61ee:	5f5f 4244 5f4c      	0x5f4c42445f5f
    61f4:	4148                	lw	a0,4(a0)
    61f6:	55515f53          	0x55515f53
    61fa:	4549                	li	a0,18
    61fc:	5f54                	lw	a3,60(a4)
    61fe:	414e                	lw	sp,208(sp)
    6200:	5f4e                	lw	t5,240(sp)
    6202:	205f 0031 4e49      	0x4e490031205f
    6208:	3354                	fld	fa3,160(a4)
    620a:	5f32                	lw	t5,44(sp)
    620c:	29782843          	fmadd.s	fa6,fa6,fs7,ft5,rdn
    6210:	5f20                	lw	s0,120(a4)
    6212:	495f 544e 3233      	0x3233544e495f
    6218:	435f 7828 0029      	0x297828435f
    621e:	5f5f 7470 7672      	0x767274705f5f
    6224:	6c61                	lui	s8,0x18
    6226:	6575                	lui	a0,0x1d
    6228:	0020                	addi	s0,sp,8
    622a:	4e5f 494f 4c4e      	0x4c4e494f4e5f
    6230:	4e49                	li	t3,18
    6232:	5f45                	li	t5,-15
    6234:	54415453          	0x54415453
    6238:	4349                	li	t1,18
    623a:	5f20                	lw	s0,120(a4)
    623c:	4f4e                	lw	t5,208(sp)
    623e:	4e49                	li	t3,18
    6240:	494c                	lw	a1,20(a0)
    6242:	454e                	lw	a0,208(sp)
    6244:	7320                	flw	fs0,96(a4)
    6246:	6174                	flw	fa3,68(a0)
    6248:	6974                	flw	fa3,84(a0)
    624a:	535f0063          	beq	t5,s5,676a <_data-0x19896>
    624e:	54545f43          	0x54545f43
    6252:	5f59                	li	t5,-10
    6254:	414e                	lw	sp,208(sp)
    6256:	454d                	li	a0,19
    6258:	4d5f 5841 3420      	0x342058414d5f
    625e:	0031                	c.addi	zero,12
    6260:	5f5f 4244 5f4c      	0x5f4c42445f5f
    6266:	4544                	lw	s1,12(a0)
    6268:	4f4e                	lw	t5,208(sp)
    626a:	4d52                	lw	s10,20(sp)
    626c:	4d5f 4e49 5f5f      	0x5f5f4e494d5f
    6272:	2820                	fld	fs0,80(s0)
    6274:	6428                	flw	fa0,72(s0)
    6276:	6c62756f          	jal	a0,2d93c <__global_pointer$+0xc90c>
    627a:	2965                	jal	6732 <_data-0x198ce>
    627c:	2e34                	fld	fa3,88(a2)
    627e:	3439                	jal	5c8c <_data-0x1a374>
    6280:	3630                	fld	fa2,104(a2)
    6282:	3635                	jal	5dae <_data-0x1a252>
    6284:	3534                	fld	fa3,104(a0)
    6286:	3438                	fld	fa4,104(s0)
    6288:	3231                	jal	5b94 <_data-0x1a46c>
    628a:	3634                	fld	fa3,104(a2)
    628c:	3435                	jal	5cb8 <_data-0x1a348>
    628e:	3134                	fld	fa3,96(a0)
    6290:	36353637          	lui	a2,0x36353
    6294:	3738                	fld	fa4,104(a4)
    6296:	3239                	jal	5ba4 <_data-0x1a45c>
    6298:	3638                	fld	fa4,104(a2)
    629a:	3238                	fld	fa4,96(a2)
    629c:	3132                	fld	ft2,296(sp)
    629e:	65323733          	0x65323733
    62a2:	332d                	jal	5fcc <_data-0x1a034>
    62a4:	3432                	fld	fs0,296(sp)
    62a6:	294c                	fld	fa1,144(a0)
    62a8:	5500                	lw	s0,40(a0)
    62aa:	4e49                	li	t3,18
    62ac:	5f54                	lw	a3,60(a4)
    62ae:	454c                	lw	a1,12(a0)
    62b0:	5341                	li	t1,-16
    62b2:	3354                	fld	fa3,160(a4)
    62b4:	5f32                	lw	t5,44(sp)
    62b6:	414d                	li	sp,19
    62b8:	2058                	fld	fa4,128(s0)
    62ba:	5f28                	lw	a0,120(a4)
    62bc:	555f 4e49 5f54      	0x5f544e49555f
    62c2:	454c                	lw	a1,12(a0)
    62c4:	5341                	li	t1,-16
    62c6:	3354                	fld	fa3,160(a4)
    62c8:	5f32                	lw	t5,44(sp)
    62ca:	414d                	li	sp,19
    62cc:	5f58                	lw	a4,60(a4)
    62ce:	295f 5f00 5553      	0x55535f00295f
    62d4:	4f434553          	0x4f434553
    62d8:	444e                	lw	s0,208(sp)
    62da:	5f545f53          	0x5f545f53
    62de:	4544                	lw	s1,12(a0)
    62e0:	52414c43          	fmadd.d	fs8,ft2,ft4,fa0,rmm
    62e4:	4445                	li	s0,17
    62e6:	0020                	addi	s0,sp,8
    62e8:	525f 4545 544e      	0x544e4545525f
    62ee:	435f 4548 4b43      	0x4b434548435f
    62f4:	455f 454d 4752      	0x4752454d455f
    62fa:	4e45                	li	t3,17
    62fc:	70285943          	fmadd.s	fs2,fa6,ft2,fa4,unknown
    6300:	7274                	flw	fa3,100(a2)
    6302:	2029                	jal	630c <_data-0x19cf4>
    6304:	5f00                	lw	s0,56(a4)
    6306:	465f 544c 3231      	0x3231544c465f
    630c:	5f38                	lw	a4,120(a4)
    630e:	4544                	lw	s1,12(a0)
    6310:	4f4e                	lw	t5,208(sp)
    6312:	4d52                	lw	s10,20(sp)
    6314:	4d5f 4e49 5f5f      	0x5f5f4e494d5f
    631a:	3620                	fld	fs0,104(a2)
    631c:	342e                	fld	fs0,232(sp)
    631e:	37313537          	lui	a0,0x37313
    6322:	3135                	jal	5f4e <_data-0x1a0b2>
    6324:	3931                	jal	5f40 <_data-0x1a0c0>
    6326:	3334                	fld	fa3,96(a4)
    6328:	3038                	fld	fa4,96(s0)
    632a:	3532                	fld	fa0,296(sp)
    632c:	3131                	jal	5f38 <_data-0x1a0c8>
    632e:	3930                	fld	fa2,112(a0)
    6330:	3432                	fld	fs0,296(sp)
    6332:	3334                	fld	fa3,96(a4)
    6334:	3938                	fld	fa4,112(a0)
    6336:	3835                	jal	5b72 <_data-0x1a48e>
    6338:	3232                	fld	ft4,296(sp)
    633a:	36343637          	lui	a2,0x36343
    633e:	3535                	jal	616a <_data-0x19e96>
    6340:	2d65                	jal	69f8 <_data-0x19608>
    6342:	3934                	fld	fa3,112(a0)
    6344:	3636                	fld	fa2,360(sp)
    6346:	3146                	fld	ft2,112(sp)
    6348:	3832                	fld	fa6,296(sp)
    634a:	7300                	flw	fs0,32(a4)
    634c:	6474                	flw	fa3,76(s0)
    634e:	2074756f          	jal	a0,4dd54 <__global_pointer$+0x2cd24>
    6352:	5f28                	lw	a0,120(a4)
    6354:	4552                	lw	a0,20(sp)
    6356:	4e45                	li	t3,17
    6358:	2d54                	fld	fa3,152(a0)
    635a:	5f3e                	lw	t5,236(sp)
    635c:	6f647473          	csrrci	s0,0x6f6,8
    6360:	7475                	lui	s0,0xffffd
    6362:	0029                	c.addi	zero,10
    6364:	505f 5f43 494c      	0x494c5f43505f
    636a:	4b4e                	lw	s6,208(sp)
    636c:	4d5f 5841 3020      	0x302058414d5f
    6372:	6300                	flw	fs0,0(a4)
    6374:	6168                	flw	fa0,68(a0)
    6376:	2072                	fld	ft0,280(sp)
    6378:	5f00302b          	0x5f00302b
    637c:	495f 544e 5450      	0x5450544e495f
    6382:	5f52                	lw	t5,52(sp)
    6384:	5954                	lw	a3,52(a0)
    6386:	4550                	lw	a2,12(a0)
    6388:	5f5f 6920 746e      	0x746e69205f5f
    638e:	5f00                	lw	s0,56(a4)
    6390:	555f 4e49 5054      	0x50544e49555f
    6396:	5254                	lw	a3,36(a2)
    6398:	545f 5059 5f45      	0x5f455059545f
    639e:	205f 6e75 6973      	0x69736e75205f
    63a4:	64656e67          	0x64656e67
    63a8:	6920                	flw	fs0,80(a0)
    63aa:	746e                	flw	fs0,248(sp)
    63ac:	5f00                	lw	s0,56(a4)
    63ae:	545f4353          	0x545f4353
    63b2:	4d49                	li	s10,18
    63b4:	4f45                	li	t5,17
    63b6:	5455                	li	s0,-11
    63b8:	32382053          	0x32382053
    63bc:	5f00                	lw	s0,56(a4)
    63be:	4350                	lw	a2,4(a4)
    63c0:	525f 4345 4d5f      	0x4d5f4345525f
    63c6:	4e49                	li	t3,18
    63c8:	585f 4546 5f52      	0x5f524546585f
    63ce:	455a4953          	0x455a4953
    63d2:	3120                	fld	fs0,96(a0)
    63d4:	0038                	addi	a4,sp,8
    63d6:	5f5f 4552 4947      	0x494745525f5f
    63dc:	52455453          	0x52455453
    63e0:	505f 4552 4946      	0x49464552505f
    63e6:	5f58                	lw	a4,60(a4)
    63e8:	205f 5f00 445f      	0x445f5f00205f
    63ee:	4345                	li	t1,17
    63f0:	3231                	jal	5cfc <_data-0x1a304>
    63f2:	5f38                	lw	a4,120(a4)
    63f4:	4e425553          	0x4e425553
    63f8:	414d524f          	fnmadd.s	ft4,fs10,fs4,fs0,unknown
    63fc:	5f4c                	lw	a1,60(a4)
    63fe:	494d                	li	s2,19
    6400:	5f4e                	lw	t5,240(sp)
    6402:	205f 2e30 3030      	0x30302e30205f
    6408:	3030                	fld	fa2,96(s0)
    640a:	3030                	fld	fa2,96(s0)
    640c:	3030                	fld	fa2,96(s0)
    640e:	3030                	fld	fa2,96(s0)
    6410:	3030                	fld	fa2,96(s0)
    6412:	3030                	fld	fa2,96(s0)
    6414:	3030                	fld	fa2,96(s0)
    6416:	3030                	fld	fa2,96(s0)
    6418:	3030                	fld	fa2,96(s0)
    641a:	3030                	fld	fa2,96(s0)
    641c:	3030                	fld	fa2,96(s0)
    641e:	3030                	fld	fa2,96(s0)
    6420:	3030                	fld	fa2,96(s0)
    6422:	3030                	fld	fa2,96(s0)
    6424:	3030                	fld	fa2,96(s0)
    6426:	4531                	li	a0,12
    6428:	362d                	jal	5f52 <_data-0x1a0ae>
    642a:	3431                	jal	5e36 <_data-0x1a1ca>
    642c:	004c4433          	xor	s0,s8,tp
    6430:	5f5f 4244 5f4c      	0x5f4c42445f5f
    6436:	4944                	lw	s1,20(a0)
    6438:	205f5f47          	fmsub.s	ft10,ft10,ft5,ft4,unknown
    643c:	3531                	jal	6248 <_data-0x19db8>
    643e:	5f00                	lw	s0,56(a4)
    6440:	4955                	li	s2,21
    6442:	544e                	lw	s0,240(sp)
    6444:	3631                	jal	5f50 <_data-0x1a0b0>
    6446:	545f 445f 4345      	0x4345445f545f
    644c:	414c                	lw	a1,4(a0)
    644e:	4552                	lw	a0,20(sp)
    6450:	2044                	fld	fs1,128(s0)
    6452:	5f00                	lw	s0,56(a4)
    6454:	525f 5343 4449      	0x44495343525f
    645a:	7328                	flw	fa0,96(a4)
    645c:	2029                	jal	6466 <_data-0x19b9a>
    645e:	75727473          	csrrci	s0,0x757,4
    6462:	5f207463          	bleu	s2,zero,6a4a <_data-0x195b6>
    6466:	685f 6361 006b      	0x6b6361685f
    646c:	5f5f 656e 6465      	0x6465656e5f5f
    6472:	705f 7274 6964      	0x69647274705f
    6478:	6666                	flw	fa2,88(sp)
    647a:	745f 0020 4e5f      	0x4e5f0020745f
    6480:	5745                	li	a4,-15
    6482:	494c                	lw	a1,20(a0)
    6484:	5f42                	lw	t5,48(sp)
    6486:	49445453          	0x49445453
    648a:	20485f4f          	fnmadd.s	ft10,fa6,ft4,ft4,unknown
    648e:	5f00                	lw	s0,56(a4)
    6490:	5f535953          	0x5f535953
    6494:	535f 4749 4553      	0x45534749535f
    649a:	5f54                	lw	a3,60(a4)
    649c:	5f48                	lw	a0,60(a4)
    649e:	0020                	addi	s0,sp,8
    64a0:	5f5f 4953 455a      	0x455a49535f5f
    64a6:	535f464f          	fnmadd.d	fa2,ft10,fs5,fa0,rmm
    64aa:	5a49                	li	s4,-14
    64ac:	5f45                	li	t5,-15
    64ae:	5f54                	lw	a3,60(a4)
    64b0:	205f 0034 535f      	0x535f0034205f
    64b6:	42585f43          	fmadd.d	ft10,fa6,ft5,fs0,unknown
    64ba:	4c5f3553          	0x4c5f3553
    64be:	4250                	lw	a2,4(a2)
    64c0:	4749                	li	a4,18
    64c2:	4f5f 4646 4942      	0x494246464f5f
    64c8:	535f2047          	fmsub.d	ft0,ft10,fs5,fa0,rdn
    64cc:	37565f43          	fmadd.q	ft10,fa2,fs5,ft6,unknown
    64d0:	4c5f 4250 4749      	0x474942504c5f
    64d6:	4f5f 4646 4942      	0x494246464f5f
    64dc:	5f5f0047          	fmsub.q	ft0,ft10,fs5,fa1,rne
    64e0:	43554e47          	fmsub.d	ft8,fa0,fs5,fs0,rmm
    64e4:	494c                	lw	a1,20(a0)
    64e6:	5f5f454b          	fnmsub.q	fa0,ft10,fs5,fa1,rmm
    64ea:	4f5f 4646 4553      	0x455346464f5f
    64f0:	4f54                	lw	a3,28(a4)
    64f2:	2046                	fld	ft0,80(sp)
    64f4:	0031                	c.addi	zero,12
    64f6:	5f5f 4544 3143      	0x314345445f5f
    64fc:	3832                	fld	fa6,296(sp)
    64fe:	4d5f 4e49 5f5f      	0x5f5f4e494d5f
    6504:	3120                	fld	fs0,96(a0)
    6506:	2d45                	jal	6bb6 <_data-0x1944a>
    6508:	3136                	fld	ft2,360(sp)
    650a:	3334                	fld	fa3,96(a4)
    650c:	4c44                	lw	s1,28(s0)
    650e:	5f00                	lw	s0,56(a4)
    6510:	495f 544e 3436      	0x3436544e495f
    6516:	435f 6328 2029      	0x20296328435f
    651c:	23232063          	0x23232063
    6520:	4c20                	lw	s0,88(s0)
    6522:	004c                	addi	a1,sp,4
    6524:	4148                	lw	a0,4(a0)
    6526:	4556                	lw	a0,84(sp)
    6528:	495f 494e 4654      	0x4654494e495f
    652e:	4e49                	li	t3,18
    6530:	5f49                	li	t5,-14
    6532:	5241                	li	tp,-16
    6534:	4152                	lw	sp,20(sp)
    6536:	2059                	jal	65bc <_data-0x19a44>
    6538:	0031                	c.addi	zero,12
    653a:	5f5f 4c46 3654      	0x36544c465f5f
    6540:	5f34                	lw	a3,120(a4)
    6542:	5045                	0x5045
    6544:	4f4c4953          	0x4f4c4953
    6548:	5f4e                	lw	t5,240(sp)
    654a:	205f 2e32 3232      	0x32322e32205f
    6550:	3430                	fld	fa2,104(s0)
    6552:	3634                	fld	fa3,104(a2)
    6554:	3430                	fld	fa2,104(s0)
    6556:	3239                	jal	5e64 <_data-0x1a19c>
    6558:	3035                	jal	5d84 <_data-0x1a27c>
    655a:	30333133          	0x30333133
    655e:	3038                	fld	fa4,96(s0)
    6560:	3438                	fld	fa4,104(s0)
    6562:	33363237          	lui	tp,0x33363
    6566:	31363333          	0x31363333
    656a:	3138                	fld	fa4,96(a0)
    656c:	3436                	fld	fs0,360(sp)
    656e:	3630                	fld	fa2,104(a2)
    6570:	6532                	flw	fa0,12(sp)
    6572:	312d                	jal	619c <_data-0x19e64>
    6574:	4636                	lw	a2,76(sp)
    6576:	3436                	fld	fs0,360(sp)
    6578:	4600                	lw	s0,8(a2)
    657a:	5f44                	lw	s1,60(a4)
    657c:	455a                	lw	a0,148(sp)
    657e:	4f52                	lw	t5,20(sp)
    6580:	7028                	flw	fa0,96(s0)
    6582:	2029                	jal	658c <_data-0x19a74>
    6584:	5f28                	lw	a0,120(a4)
    6586:	655f 7478 6e65      	0x6e657478655f
    658c:	6e6f6973          	csrrsi	s2,0x6e6,30
    6590:	5f5f 2820 6f76      	0x6f7628205f5f
    6596:	6469                	lui	s0,0x1a
    6598:	2829                	jal	65b2 <_data-0x19a4e>
    659a:	6973207b          	0x6973207b
    659e:	657a                	flw	fa0,156(sp)
    65a0:	745f 5f20 695f      	0x695f5f20745f
    65a6:	6863203b          	0x6863203b
    65aa:	7261                	lui	tp,0xffff8
    65ac:	2a20                	fld	fs0,80(a2)
    65ae:	5f5f 6d74 2070      	0x20706d745f5f
    65b4:	203d                	jal	65e2 <_data-0x19a1e>
    65b6:	6328                	flw	fa0,64(a4)
    65b8:	6168                	flw	fa0,68(a0)
    65ba:	2072                	fld	ft0,280(sp)
    65bc:	292a                	fld	fs2,136(sp)
    65be:	3b70                	fld	fa2,240(a4)
    65c0:	6620                	flw	fs0,72(a2)
    65c2:	2820726f          	jal	tp,d844 <_data-0x127bc>
    65c6:	5f5f 2069 203d      	0x203d20695f5f
    65cc:	3b30                	fld	fa2,112(a4)
    65ce:	5f20                	lw	s0,120(a4)
    65d0:	695f 3c20 7320      	0x73203c20695f
    65d6:	7a69                	lui	s4,0xffffa
    65d8:	6f65                	lui	t5,0x19
    65da:	2066                	fld	ft0,88(sp)
    65dc:	2a28                	fld	fa0,80(a2)
    65de:	7028                	flw	fa0,96(s0)
    65e0:	2929                	jal	69fa <_data-0x19606>
    65e2:	2b2b203b          	0x2b2b203b
    65e6:	5f5f 2969 2a20      	0x2a2029695f5f
    65ec:	5f5f 6d74 2b70      	0x2b706d745f5f
    65f2:	203d202b          	0x203d202b
    65f6:	3b30                	fld	fa2,112(a4)
    65f8:	7d20                	flw	fs0,120(a0)
    65fa:	2929                	jal	6a14 <_data-0x195ec>
    65fc:	4900                	lw	s0,16(a0)
    65fe:	544e                	lw	s0,240(sp)
    6600:	4c5f 4145 5453      	0x545341454c5f
    6606:	4d5f3233          	0x4d5f3233
    660a:	4e49                	li	t3,18
    660c:	2820                	fld	fs0,80(s0)
    660e:	5f2d                	li	t5,-21
    6610:	495f 544e 4c5f      	0x4c5f544e495f
    6616:	4145                	li	sp,17
    6618:	32335453          	0x32335453
    661c:	4d5f 5841 5f5f      	0x5f5f58414d5f
    6622:	2d20                	fld	fs0,88(a0)
    6624:	3120                	fld	fs0,96(a0)
    6626:	0029                	c.addi	zero,10
    6628:	5f5f 4e45 5f44      	0x5f444e455f5f
    662e:	4544                	lw	s1,12(a0)
    6630:	20534c43          	fmadd.s	fs8,ft6,ft5,ft4,rmm
    6634:	5f00                	lw	s0,56(a4)
    6636:	545f4353          	0x545f4353
    663a:	5248                	lw	a0,36(a2)
    663c:	4145                	li	sp,17
    663e:	5f44                	lw	s1,60(a4)
    6640:	5250                	lw	a2,36(a2)
    6642:	4f49                	li	t5,18
    6644:	495f 484e 5245      	0x5245484e495f
    664a:	5449                	li	s0,-14
    664c:	3420                	fld	fs0,104(s0)
    664e:	0036                	0x36
    6650:	5f5f 414d 4843      	0x4843414d5f5f
    6656:	4e49                	li	t3,18
    6658:	5f45                	li	t5,-15
    665a:	4e45                	li	t3,17
    665c:	4944                	lw	s1,20(a0)
    665e:	4e41                	li	t3,16
    6660:	485f 5f5f 0020      	0x205f5f485f
    6666:	535f 5f43 4854      	0x48545f43535f
    666c:	4552                	lw	a0,20(sp)
    666e:	4441                	li	s0,16
    6670:	525f 424f 5355      	0x5355424f525f
    6676:	5f54                	lw	a3,60(a4)
    6678:	5250                	lw	a2,36(a2)
    667a:	4f49                	li	t5,18
    667c:	495f 484e 5245      	0x5245484e495f
    6682:	5449                	li	s0,-14
    6684:	3120                	fld	fs0,96(a0)
    6686:	3232                	fld	ft4,296(sp)
    6688:	5f00                	lw	s0,56(a4)
    668a:	4d5f4353          	0x4d5f4353
    668e:	4d45                	li	s10,17
    6690:	4f4c                	lw	a1,28(a4)
    6692:	32204b43          	fmadd.d	fs6,ft0,ft2,ft6,rmm
    6696:	0034                	addi	a3,sp,8
    6698:	445f 4645 4e55      	0x4e554645445f
    669e:	565f 494f 2844      	0x2844494f565f
    66a4:	616e                	flw	ft2,216(sp)
    66a6:	656d                	lui	a0,0x1b
    66a8:	2029                	jal	66b2 <_data-0x1994e>
    66aa:	616e                	flw	ft2,216(sp)
    66ac:	656d                	lui	a0,0x1b
    66ae:	5f28                	lw	a0,120(a4)
    66b0:	4f4e                	lw	t5,208(sp)
    66b2:	5241                	li	tp,-16
    66b4:	00295347          	fmsub.s	ft6,fs2,ft2,ft0,unknown
    66b8:	6466                	flw	fs0,88(sp)
    66ba:	735f 7465 5f20      	0x5f207465735f
    66c0:	7974                	flw	fa3,116(a0)
    66c2:	6570                	flw	fa2,76(a0)
    66c4:	64665f73          	csrrwi	t5,0x646,12
    66c8:	735f 7465 7500      	0x75007465735f
    66ce:	736e                	flw	ft6,248(sp)
    66d0:	6769                	lui	a4,0x1a
    66d2:	656e                	flw	fa0,216(sp)
    66d4:	0064                	addi	s1,sp,12
    66d6:	5f5f 4347 5f43      	0x5f4343475f5f
    66dc:	5441                	li	s0,-16
    66de:	43494d4f          	fnmadd.d	fs10,fs2,fs4,fs0,rmm
    66e2:	435f 4148 3152      	0x31524148435f
    66e8:	5f36                	lw	t5,108(sp)
    66ea:	5f54                	lw	a3,60(a4)
    66ec:	4f4c                	lw	a1,28(a4)
    66ee:	465f4b43          	fmadd.q	fs6,ft10,ft5,fs0,rmm
    66f2:	4552                	lw	a0,20(sp)
    66f4:	2045                	jal	6794 <_data-0x1986c>
    66f6:	0031                	c.addi	zero,12
    66f8:	6d5f 6c62 6e65      	0x6e656c626d5f
    66fe:	735f 6174 6574      	0x65746174735f
    6704:	5f00                	lw	s0,56(a4)
    6706:	49525453          	0x49525453
    670a:	474e                	lw	a4,208(sp)
    670c:	485f 205f 5f00      	0x5f00205f485f
    6712:	705f 5f74 7567      	0x75675f74705f
    6718:	7261                	lui	tp,0xffff8
    671a:	6564                	flw	fs1,76(a0)
    671c:	5f64                	lw	s1,124(a4)
    671e:	7962                	flw	fs2,56(sp)
    6720:	7828                	flw	fa0,112(s0)
    6722:	2029                	jal	672c <_data-0x198d4>
    6724:	5f5f 6f6c 6b63      	0x6b636f6c5f5f
    672a:	615f 6e6e 746f      	0x746f6e6e615f
    6730:	7461                	lui	s0,0xffff8
    6732:	2865                	jal	67ea <_data-0x19816>
    6734:	7470                	flw	fa2,108(s0)
    6736:	675f 6175 6472      	0x64726175675f
    673c:	6465                	lui	s0,0x19
    673e:	625f 2879 2978      	0x29782879625f
    6744:	0029                	c.addi	zero,10
    6746:	5f5f 7567 7261      	0x726175675f5f
    674c:	6564                	flw	fs1,76(a0)
    674e:	5f64                	lw	s1,124(a4)
    6750:	7962                	flw	fs2,56(sp)
    6752:	7828                	flw	fa0,112(s0)
    6754:	2029                	jal	675e <_data-0x198a2>
    6756:	5f5f 6f6c 6b63      	0x6b636f6c5f5f
    675c:	615f 6e6e 746f      	0x746f6e6e615f
    6762:	7461                	lui	s0,0xffff8
    6764:	2865                	jal	681c <_data-0x197e4>
    6766:	72617567          	0x72617567
    676a:	6564                	flw	fs1,76(a0)
    676c:	5f64                	lw	s1,124(a4)
    676e:	7962                	flw	fs2,56(sp)
    6770:	7828                	flw	fa0,112(s0)
    6772:	2929                	jal	6b8c <_data-0x19474>
    6774:	5f00                	lw	s0,56(a4)
    6776:	4552                	lw	a0,20(sp)
    6778:	4e45                	li	t3,17
    677a:	5f54                	lw	a3,60(a4)
    677c:	4e49                	li	t3,18
    677e:	5449                	li	s0,-14
    6780:	505f 5254 5a5f      	0x5a5f5254505f
    6786:	5245                	li	tp,-15
    6788:	2844454f          	fnmadd.s	fa0,fs0,ft4,ft5,rmm
    678c:	6176                	flw	ft2,92(sp)
    678e:	2972                	fld	fs2,280(sp)
    6790:	7b20                	flw	fs0,112(a4)
    6792:	2820                	fld	fs0,80(s0)
    6794:	6176                	flw	ft2,92(sp)
    6796:	2972                	fld	fs2,280(sp)
    6798:	3e2d                	jal	62d2 <_data-0x19d2e>
    679a:	735f 6474 6e69      	0x6e696474735f
    67a0:	3d20                	fld	fs0,120(a0)
    67a2:	2620                	fld	fs0,72(a2)
    67a4:	7628                	flw	fa0,104(a2)
    67a6:	7261                	lui	tp,0xffff8
    67a8:	2d29                	jal	6dc2 <_data-0x1923e>
    67aa:	5f3e                	lw	t5,236(sp)
    67ac:	735f 5b66 5d30      	0x5d305b66735f
    67b2:	7628203b          	0x7628203b
    67b6:	7261                	lui	tp,0xffff8
    67b8:	2d29                	jal	6dd2 <_data-0x1922e>
    67ba:	5f3e                	lw	t5,236(sp)
    67bc:	6f647473          	csrrci	s0,0x6f6,8
    67c0:	7475                	lui	s0,0xffffd
    67c2:	3d20                	fld	fs0,120(a0)
    67c4:	2620                	fld	fs0,72(a2)
    67c6:	7628                	flw	fa0,104(a2)
    67c8:	7261                	lui	tp,0xffff8
    67ca:	2d29                	jal	6de4 <_data-0x1921c>
    67cc:	5f3e                	lw	t5,236(sp)
    67ce:	735f 5b66 5d31      	0x5d315b66735f
    67d4:	7628203b          	0x7628203b
    67d8:	7261                	lui	tp,0xffff8
    67da:	2d29                	jal	6df4 <_data-0x1920c>
    67dc:	5f3e                	lw	t5,236(sp)
    67de:	65647473          	csrrci	s0,0x656,8
    67e2:	7272                	flw	ft4,60(sp)
    67e4:	3d20                	fld	fs0,120(a0)
    67e6:	2620                	fld	fs0,72(a2)
    67e8:	7628                	flw	fa0,104(a2)
    67ea:	7261                	lui	tp,0xffff8
    67ec:	2d29                	jal	6e06 <_data-0x191fa>
    67ee:	5f3e                	lw	t5,236(sp)
    67f0:	735f 5b66 5d32      	0x5d325b66735f
    67f6:	7628203b          	0x7628203b
    67fa:	7261                	lui	tp,0xffff8
    67fc:	2d29                	jal	6e16 <_data-0x191ea>
    67fe:	5f3e                	lw	t5,236(sp)
    6800:	656e                	flw	fa0,216(sp)
    6802:	725f2e77          	0x725f2e77
    6806:	6565                	lui	a0,0x19
    6808:	746e                	flw	fs0,248(sp)
    680a:	5f2e                	lw	t5,232(sp)
    680c:	6172                	flw	ft2,28(sp)
    680e:	646e                	flw	fs0,216(sp)
    6810:	6e5f 7865 2074      	0x207478656e5f
    6816:	203d                	jal	6844 <_data-0x197bc>
    6818:	3b31                	jal	6534 <_data-0x19acc>
    681a:	2820                	fld	fs0,80(s0)
    681c:	6176                	flw	ft2,92(sp)
    681e:	2972                	fld	fs2,280(sp)
    6820:	3e2d                	jal	635a <_data-0x19ca6>
    6822:	6e5f 7765 5f2e      	0x5f2e77656e5f
    6828:	6572                	flw	fa0,28(sp)
    682a:	6e65                	lui	t3,0x19
    682c:	2e74                	fld	fa3,216(a2)
    682e:	725f 3834 5f2e      	0x5f2e3834725f
    6834:	64656573          	csrrsi	a0,0x646,10
    6838:	205d305b          	0x205d305b
    683c:	203d                	jal	686a <_data-0x19796>
    683e:	525f 4e41 3444      	0x34444e41525f
    6844:	5f38                	lw	a4,120(a4)
    6846:	44454553          	0x44454553
    684a:	305f 203b 7628      	0x7628203b305f
    6850:	7261                	lui	tp,0xffff8
    6852:	2d29                	jal	6e6c <_data-0x19194>
    6854:	5f3e                	lw	t5,236(sp)
    6856:	656e                	flw	fa0,216(sp)
    6858:	725f2e77          	0x725f2e77
    685c:	6565                	lui	a0,0x19
    685e:	746e                	flw	fs0,248(sp)
    6860:	5f2e                	lw	t5,232(sp)
    6862:	3472                	fld	fs0,312(sp)
    6864:	2e38                	fld	fa4,88(a2)
    6866:	735f 6565 5b64      	0x5b646565735f
    686c:	5d31                	li	s10,-20
    686e:	3d20                	fld	fs0,120(a0)
    6870:	5f20                	lw	s0,120(a4)
    6872:	4152                	lw	sp,20(sp)
    6874:	444e                	lw	s0,208(sp)
    6876:	3834                	fld	fa3,112(s0)
    6878:	535f 4545 5f44      	0x5f444545535f
    687e:	3b31                	jal	659a <_data-0x19a66>
    6880:	2820                	fld	fs0,80(s0)
    6882:	6176                	flw	ft2,92(sp)
    6884:	2972                	fld	fs2,280(sp)
    6886:	3e2d                	jal	63c0 <_data-0x19c40>
    6888:	6e5f 7765 5f2e      	0x5f2e77656e5f
    688e:	6572                	flw	fa0,28(sp)
    6890:	6e65                	lui	t3,0x19
    6892:	2e74                	fld	fa3,216(a2)
    6894:	725f 3834 5f2e      	0x5f2e3834725f
    689a:	64656573          	csrrsi	a0,0x646,10
    689e:	205d325b          	0x205d325b
    68a2:	203d                	jal	68d0 <_data-0x19730>
    68a4:	525f 4e41 3444      	0x34444e41525f
    68aa:	5f38                	lw	a4,120(a4)
    68ac:	44454553          	0x44454553
    68b0:	325f 203b 7628      	0x7628203b325f
    68b6:	7261                	lui	tp,0xffff8
    68b8:	2d29                	jal	6ed2 <_data-0x1912e>
    68ba:	5f3e                	lw	t5,236(sp)
    68bc:	656e                	flw	fa0,216(sp)
    68be:	725f2e77          	0x725f2e77
    68c2:	6565                	lui	a0,0x19
    68c4:	746e                	flw	fs0,248(sp)
    68c6:	5f2e                	lw	t5,232(sp)
    68c8:	3472                	fld	fs0,312(sp)
    68ca:	2e38                	fld	fa4,88(a2)
    68cc:	6d5f 6c75 5b74      	0x5b746c756d5f
    68d2:	5d30                	lw	a2,120(a0)
    68d4:	3d20                	fld	fs0,120(a0)
    68d6:	5f20                	lw	s0,120(a4)
    68d8:	4152                	lw	sp,20(sp)
    68da:	444e                	lw	s0,208(sp)
    68dc:	3834                	fld	fa3,112(s0)
    68de:	4d5f 4c55 5f54      	0x5f544c554d5f
    68e4:	3b30                	fld	fa2,112(a4)
    68e6:	2820                	fld	fs0,80(s0)
    68e8:	6176                	flw	ft2,92(sp)
    68ea:	2972                	fld	fs2,280(sp)
    68ec:	3e2d                	jal	6426 <_data-0x19bda>
    68ee:	6e5f 7765 5f2e      	0x5f2e77656e5f
    68f4:	6572                	flw	fa0,28(sp)
    68f6:	6e65                	lui	t3,0x19
    68f8:	2e74                	fld	fa3,216(a2)
    68fa:	725f 3834 5f2e      	0x5f2e3834725f
    6900:	756d                	lui	a0,0xffffb
    6902:	746c                	flw	fa1,108(s0)
    6904:	205d315b          	0x205d315b
    6908:	203d                	jal	6936 <_data-0x196ca>
    690a:	525f 4e41 3444      	0x34444e41525f
    6910:	5f38                	lw	a4,120(a4)
    6912:	554d                	li	a0,-13
    6914:	544c                	lw	a1,44(s0)
    6916:	315f 203b 7628      	0x7628203b315f
    691c:	7261                	lui	tp,0xffff8
    691e:	2d29                	jal	6f38 <_data-0x190c8>
    6920:	5f3e                	lw	t5,236(sp)
    6922:	656e                	flw	fa0,216(sp)
    6924:	725f2e77          	0x725f2e77
    6928:	6565                	lui	a0,0x19
    692a:	746e                	flw	fs0,248(sp)
    692c:	5f2e                	lw	t5,232(sp)
    692e:	3472                	fld	fs0,312(sp)
    6930:	2e38                	fld	fa4,88(a2)
    6932:	6d5f 6c75 5b74      	0x5b746c756d5f
    6938:	5d32                	lw	s10,44(sp)
    693a:	3d20                	fld	fs0,120(a0)
    693c:	5f20                	lw	s0,120(a4)
    693e:	4152                	lw	sp,20(sp)
    6940:	444e                	lw	s0,208(sp)
    6942:	3834                	fld	fa3,112(s0)
    6944:	4d5f 4c55 5f54      	0x5f544c554d5f
    694a:	3b32                	fld	fs6,296(sp)
    694c:	2820                	fld	fs0,80(s0)
    694e:	6176                	flw	ft2,92(sp)
    6950:	2972                	fld	fs2,280(sp)
    6952:	3e2d                	jal	648c <_data-0x19b74>
    6954:	6e5f 7765 5f2e      	0x5f2e77656e5f
    695a:	6572                	flw	fa0,28(sp)
    695c:	6e65                	lui	t3,0x19
    695e:	2e74                	fld	fa3,216(a2)
    6960:	725f 3834 5f2e      	0x5f2e3834725f
    6966:	6461                	lui	s0,0x18
    6968:	2064                	fld	fs1,192(s0)
    696a:	203d                	jal	6998 <_data-0x19668>
    696c:	525f 4e41 3444      	0x34444e41525f
    6972:	5f38                	lw	a4,120(a4)
    6974:	4441                	li	s0,16
    6976:	3b44                	fld	fs1,176(a4)
    6978:	7d20                	flw	fs0,120(a0)
    697a:	5f00                	lw	s0,56(a4)
    697c:	555f 4e49 3154      	0x31544e49555f
    6982:	5f36                	lw	t5,108(sp)
    6984:	29632843          	fmadd.s	fa6,ft6,fs6,ft5,rdn
    6988:	6320                	flw	fs0,64(a4)
    698a:	5f00                	lw	s0,56(a4)
    698c:	4552                	lw	a0,20(sp)
    698e:	4e45                	li	t3,17
    6990:	5f54                	lw	a3,60(a4)
    6992:	4e49                	li	t3,18
    6994:	5449                	li	s0,-14
    6996:	415f 4554 4958      	0x49584554415f
    699c:	2054                	fld	fa3,128(s0)
    699e:	4e5f 4c55 2c4c      	0x2c4c4c554e5f
    69a4:	5f20                	lw	s0,120(a4)
    69a6:	5441                	li	s0,-16
    69a8:	5845                	li	a6,-15
    69aa:	5449                	li	s0,-14
    69ac:	495f 494e 2c54      	0x2c54494e495f
    69b2:	5f00                	lw	s0,56(a4)
    69b4:	435f 5f43 5553      	0x55535f43435f
    69ba:	5050                	lw	a2,36(s0)
    69bc:	5354524f          	fnmadd.d	ft4,fs0,fs5,fa0,unknown
    69c0:	5f5f 495f 4c4e      	0x4c4e495f5f5f
    69c6:	4e49                	li	t3,18
    69c8:	5f45                	li	t5,-15
    69ca:	205f 0031 5f5f      	0x5f5f0031205f
    69d0:	656c6373          	csrrsi	t1,0x656,24
    69d4:	7261                	lui	tp,0xffff8
    69d6:	7265                	lui	tp,0xffff9
    69d8:	2872                	fld	fa6,280(sp)
    69da:	2970                	fld	fa2,208(a0)
    69dc:	2820                	fld	fs0,80(s0)
    69de:	7628                	flw	fa0,104(a2)
    69e0:	2964696f          	jal	s2,4cc76 <__global_pointer$+0x2bc46>
    69e4:	2828                	fld	fa0,80(s0)
    69e6:	2970                	fld	fa2,208(a0)
    69e8:	3e2d                	jal	6522 <_data-0x19ade>
    69ea:	665f 616c 7367      	0x7367616c665f
    69f0:	2620                	fld	fs0,72(a2)
    69f2:	203d                	jal	6a20 <_data-0x195e0>
    69f4:	287e                	fld	fa6,472(sp)
    69f6:	5f5f 4553 5252      	0x525245535f5f
    69fc:	5f7c                	lw	a5,124(a4)
    69fe:	535f 4f45 2946      	0x29464f45535f
    6a04:	2929                	jal	6e1e <_data-0x191e2>
    6a06:	5f00                	lw	s0,56(a4)
    6a08:	4350                	lw	a2,4(a4)
    6a0a:	465f 4c49 5345      	0x53454c49465f
    6a10:	5a49                	li	s4,-14
    6a12:	4245                	li	tp,17
    6a14:	5449                	li	s0,-14
    6a16:	32312053          	0x32312053
    6a1a:	5f00                	lw	s0,56(a4)
    6a1c:	705f 6972 746e      	0x746e6972705f
    6a22:	6c66                	flw	fs8,88(sp)
    6a24:	6b69                	lui	s6,0x1a
    6a26:	2865                	jal	6ade <_data-0x19522>
    6a28:	6d66                	flw	fs10,88(sp)
    6a2a:	6174                	flw	fa3,68(a0)
    6a2c:	6772                	flw	fa4,28(sp)
    6a2e:	662c                	flw	fa1,72(a2)
    6a30:	7269                	lui	tp,0xffffa
    6a32:	61767473          	csrrci	s0,0x617,12
    6a36:	6172                	flw	ft2,28(sp)
    6a38:	6772                	flw	fa4,28(sp)
    6a3a:	2029                	jal	6a44 <_data-0x195bc>
    6a3c:	5f5f 7461 7274      	0x727474615f5f
    6a42:	6269                	lui	tp,0x1a
    6a44:	7475                	lui	s0,0xffffd
    6a46:	5f65                	li	t5,-7
    6a48:	285f 5f28 665f      	0x665f5f28285f
    6a4e:	616d726f          	jal	tp,de064 <__global_pointer$+0xbd034>
    6a52:	5f74                	lw	a3,124(a4)
    6a54:	205f 5f28 705f      	0x705f5f28205f
    6a5a:	6972                	flw	fs2,28(sp)
    6a5c:	746e                	flw	fs0,248(sp)
    6a5e:	5f66                	lw	t5,120(sp)
    6a60:	2c5f 6620 746d      	0x746d66202c5f
    6a66:	7261                	lui	tp,0xffff8
    6a68:	66202c67          	0x66202c67
    6a6c:	7269                	lui	tp,0xffffa
    6a6e:	61767473          	csrrci	s0,0x617,12
    6a72:	6172                	flw	ft2,28(sp)
    6a74:	6772                	flw	fa4,28(sp)
    6a76:	2929                	jal	6e90 <_data-0x19170>
    6a78:	0029                	c.addi	zero,10
    6a7a:	4e49                	li	t3,18
    6a7c:	5054                	lw	a3,36(s0)
    6a7e:	5254                	lw	a3,36(a2)
    6a80:	4d5f 5841 2820      	0x282058414d5f
    6a86:	5f5f 4e49 5054      	0x50544e495f5f
    6a8c:	5254                	lw	a3,36(a2)
    6a8e:	4d5f 5841 5f5f      	0x5f5f58414d5f
    6a94:	0029                	c.addi	zero,10
    6a96:	5f5f 6166 7473      	0x747361665f5f
    6a9c:	6c6c6163          	bltu	s8,t1,715e <_data-0x18ea2>
    6aa0:	5f20                	lw	s0,120(a4)
    6aa2:	615f 7474 6972      	0x69727474615f
    6aa8:	7562                	flw	fa0,56(sp)
    6aaa:	6574                	flw	fa3,76(a0)
    6aac:	5f5f 2828 5f5f      	0x5f5f28285f5f
    6ab2:	6166                	flw	ft2,88(sp)
    6ab4:	61637473          	csrrci	s0,0x616,6
    6ab8:	6c6c                	flw	fa1,92(s0)
    6aba:	5f5f 2929 4600      	0x460029295f5f
    6ac0:	5f44                	lw	s1,60(a4)
    6ac2:	53544553          	0x53544553
    6ac6:	5a49                	li	s4,-14
    6ac8:	2045                	jal	6b68 <_data-0x19498>
    6aca:	3436                	fld	fs0,360(sp)
    6acc:	5f00                	lw	s0,56(a4)
    6ace:	6c5f 636f 5f6b      	0x5f6b636f6c5f
    6ad4:	6e61                	lui	t3,0x18
    6ad6:	6f6e                	flw	ft10,216(sp)
    6ad8:	6174                	flw	fa3,68(a0)
    6ada:	6574                	flw	fa3,76(a0)
    6adc:	7828                	flw	fa0,112(s0)
    6ade:	2029                	jal	6ae8 <_data-0x19518>
    6ae0:	5f00                	lw	s0,56(a4)
    6ae2:	545f4353          	0x545f4353
    6ae6:	4152                	lw	sp,20(sp)
    6ae8:	38204543          	fmadd.s	fa0,ft0,ft2,ft7,rmm
    6aec:	5f5f0033          	0x5f5f0033
    6af0:	5441                	li	s0,-16
    6af2:	43494d4f          	fnmadd.d	fs10,fs2,fs4,fs0,rmm
    6af6:	525f 4c45 5841      	0x58414c45525f
    6afc:	4445                	li	s0,17
    6afe:	3020                	fld	fs0,96(s0)
    6b00:	5f00                	lw	s0,56(a4)
    6b02:	5441                	li	s0,-16
    6b04:	5254                	lw	a3,36(a2)
    6b06:	4249                	li	tp,18
    6b08:	5455                	li	s0,-11
    6b0a:	2845                	jal	6bba <_data-0x19446>
    6b0c:	7461                	lui	s0,0xffff8
    6b0e:	7274                	flw	fa3,100(a2)
    6b10:	5f202973          	csrr	s2,0x5f2
    6b14:	615f 7474 6972      	0x69727474615f
    6b1a:	7562                	flw	fa0,56(sp)
    6b1c:	6574                	flw	fa3,76(a0)
    6b1e:	5f5f 2820 7461      	0x746128205f5f
    6b24:	7274                	flw	fa3,100(a2)
    6b26:	5f002973          	csrr	s2,0x5f0
    6b2a:	465f 5341 3854      	0x38545341465f
    6b30:	0020                	addi	s0,sp,8
    6b32:	544e4957          	0x544e4957
    6b36:	4d5f 5841 2820      	0x282058414d5f
    6b3c:	5f5f 4957 544e      	0x544e49575f5f
    6b42:	4d5f 5841 5f5f      	0x5f5f58414d5f
    6b48:	0029                	c.addi	zero,10
    6b4a:	5f5f 5441 5254      	0x525454415f5f
    6b50:	4249                	li	tp,18
    6b52:	5455                	li	s0,-11
    6b54:	5f45                	li	t5,-15
    6b56:	4d49                	li	s10,18
    6b58:	5550                	lw	a2,44(a0)
    6b5a:	4552                	lw	a0,20(sp)
    6b5c:	505f 5254 5f5f      	0x5f5f5254505f
    6b62:	0020                	addi	s0,sp,8
    6b64:	5f5f 4244 5f4c      	0x5f4c42445f5f
    6b6a:	4148                	lw	a0,4(a0)
    6b6c:	4e495f53          	0x4e495f53
    6b70:	4946                	lw	s2,80(sp)
    6b72:	494e                	lw	s2,208(sp)
    6b74:	5954                	lw	a3,52(a0)
    6b76:	5f5f 3120 5f00      	0x5f0031205f5f
    6b7c:	675f 756e 695f      	0x695f756e675f
    6b82:	6c6e                	flw	fs8,216(sp)
    6b84:	6e69                	lui	t3,0x1a
    6b86:	2065                	jal	6c2e <_data-0x193d2>
    6b88:	5f5f 7461 7274      	0x727474615f5f
    6b8e:	6269                	lui	tp,0x1a
    6b90:	7475                	lui	s0,0xffffd
    6b92:	5f65                	li	t5,-7
    6b94:	285f 5f28 675f      	0x675f5f28285f
    6b9a:	756e                	flw	fa0,248(sp)
    6b9c:	695f 6c6e 6e69      	0x6e696c6e695f
    6ba2:	5f65                	li	t5,-7
    6ba4:	2c5f 5f20 615f      	0x615f5f202c5f
    6baa:	7472                	flw	fs0,60(sp)
    6bac:	6669                	lui	a2,0x1a
    6bae:	6369                	lui	t1,0x1a
    6bb0:	6169                	addi	sp,sp,208
    6bb2:	5f6c                	lw	a1,124(a4)
    6bb4:	295f 0029 5f5f      	0x5f5f0029295f
    6bba:	5f474953          	0x5f474953
    6bbe:	5441                	li	s0,-16
    6bc0:	43494d4f          	fnmadd.d	fs10,fs2,fs4,fs0,rmm
    6bc4:	4d5f 5841 5f5f      	0x5f5f58414d5f
    6bca:	3020                	fld	fs0,96(s0)
    6bcc:	3778                	fld	fa4,232(a4)
    6bce:	6666                	flw	fa2,88(sp)
    6bd0:	6666                	flw	fa2,88(sp)
    6bd2:	6666                	flw	fa2,88(sp)
    6bd4:	0066                	0x66
    6bd6:	5f5f 4c46 3654      	0x36544c465f5f
    6bdc:	5f34                	lw	a3,120(a4)
    6bde:	414d                	li	sp,19
    6be0:	544e                	lw	s0,240(sp)
    6be2:	445f 4749 5f5f      	0x5f5f4749445f
    6be8:	3520                	fld	fs0,104(a0)
    6bea:	535f0033          	0x535f0033
    6bee:	4f585f43          	fmadd.q	ft10,fa6,fs5,fs1,unknown
    6bf2:	4550                	lw	a2,12(a0)
    6bf4:	5f4e                	lw	t5,240(sp)
    6bf6:	4552                	lw	a0,20(sp)
    6bf8:	4c41                	li	s8,16
    6bfa:	4954                	lw	a3,20(a0)
    6bfc:	454d                	li	a0,19
    6bfe:	3920                	fld	fs0,112(a0)
    6c00:	0039                	c.addi	zero,14
    6c02:	535f 5f43 4850      	0x48505f43535f
    6c08:	5359                	li	t1,-10
    6c0a:	505f 4741 5345      	0x53454741505f
    6c10:	3120                	fld	fs0,96(a0)
    6c12:	0031                	c.addi	zero,12
    6c14:	5f5f 6172 676e      	0x676e61725f5f
    6c1a:	6f65                	lui	t5,0x19
    6c1c:	2866                	fld	fa6,88(sp)
    6c1e:	7974                	flw	fa3,116(a0)
    6c20:	6570                	flw	fa2,76(a0)
    6c22:	732c                	flw	fa1,96(a4)
    6c24:	6174                	flw	fa3,68(a0)
    6c26:	7472                	flw	fs0,60(sp)
    6c28:	652c                	flw	fa1,72(a0)
    6c2a:	646e                	flw	fs0,216(sp)
    6c2c:	2029                	jal	6c36 <_data-0x193ca>
    6c2e:	5f28                	lw	a0,120(a4)
    6c30:	6f5f 6666 6573      	0x657366666f5f
    6c36:	6f74                	flw	fa3,92(a4)
    6c38:	2866                	fld	fa6,88(sp)
    6c3a:	7974                	flw	fa3,116(a0)
    6c3c:	6570                	flw	fa2,76(a0)
    6c3e:	202c                	fld	fa1,64(s0)
    6c40:	6e65                	lui	t3,0x19
    6c42:	2964                	fld	fs1,208(a0)
    6c44:	2d20                	fld	fs0,88(a0)
    6c46:	5f20                	lw	s0,120(a4)
    6c48:	6f5f 6666 6573      	0x657366666f5f
    6c4e:	6f74                	flw	fa3,92(a4)
    6c50:	2866                	fld	fa6,88(sp)
    6c52:	7974                	flw	fa3,116(a0)
    6c54:	6570                	flw	fa2,76(a0)
    6c56:	202c                	fld	fa1,64(s0)
    6c58:	72617473          	csrrci	s0,0x726,2
    6c5c:	2974                	fld	fa3,208(a0)
    6c5e:	0029                	c.addi	zero,10
    6c60:	6f627573          	csrrci	a0,0x6f6,4
    6c64:	7470                	flw	fa2,108(s0)
    6c66:	7261                	lui	tp,0xffff8
    6c68:	535f0067          	jr	1333(t5) # 19535 <_data-0x6acb>
    6c6c:	42585f43          	fmadd.d	ft10,fa6,ft5,fs0,unknown
    6c70:	495f3553          	0x495f3553
    6c74:	504c                	lw	a1,36(s0)
    6c76:	4f5f3233          	0x4f5f3233
    6c7a:	4646                	lw	a2,80(sp)
    6c7c:	4942                	lw	s2,16(sp)
    6c7e:	535f2047          	fmsub.d	ft0,ft10,fs5,fa0,rdn
    6c82:	37565f43          	fmadd.q	ft10,fa2,fs5,ft6,unknown
    6c86:	495f 504c 3233      	0x3233504c495f
    6c8c:	4f5f 4646 4942      	0x494246464f5f
    6c92:	49540047          	fmsub.s	ft0,fs0,fs5,fs1,rne
    6c96:	454d                	li	a0,19
    6c98:	43455053          	0x43455053
    6c9c:	545f 5f4f 4954      	0x49545f4f545f
    6ca2:	454d                	li	a0,19
    6ca4:	4156                	lw	sp,84(sp)
    6ca6:	284c                	fld	fa1,144(s0)
    6ca8:	7674                	flw	fa3,108(a2)
    6caa:	742c                	flw	fa1,104(s0)
    6cac:	64202973          	csrr	s2,0x642
    6cb0:	207b206f          	j	b96b6 <__global_pointer$+0x98686>
    6cb4:	7428                	flw	fa0,104(s0)
    6cb6:	2976                	fld	fs2,344(sp)
    6cb8:	3e2d                	jal	67f2 <_data-0x1980e>
    6cba:	7674                	flw	fa3,108(a2)
    6cbc:	735f 6365 3d20      	0x3d206365735f
    6cc2:	2820                	fld	fs0,80(s0)
    6cc4:	7374                	flw	fa3,100(a4)
    6cc6:	2d29                	jal	72e0 <_data-0x18d20>
    6cc8:	743e                	flw	fs0,236(sp)
    6cca:	5f76                	lw	t5,124(sp)
    6ccc:	3b636573          	csrrsi	a0,pmpaddr6,6
    6cd0:	2820                	fld	fs0,80(s0)
    6cd2:	7674                	flw	fa3,108(a2)
    6cd4:	2d29                	jal	72ee <_data-0x18d12>
    6cd6:	743e                	flw	fs0,236(sp)
    6cd8:	5f76                	lw	t5,124(sp)
    6cda:	7375                	lui	t1,0xffffd
    6cdc:	6365                	lui	t1,0x19
    6cde:	3d20                	fld	fs0,120(a0)
    6ce0:	2820                	fld	fs0,80(s0)
    6ce2:	7374                	flw	fa3,100(a4)
    6ce4:	2d29                	jal	72fe <_data-0x18d02>
    6ce6:	743e                	flw	fs0,236(sp)
    6ce8:	5f76                	lw	t5,124(sp)
    6cea:	736e                	flw	ft6,248(sp)
    6cec:	6365                	lui	t1,0x19
    6cee:	2f20                	fld	fs0,88(a4)
    6cf0:	3120                	fld	fs0,96(a0)
    6cf2:	3030                	fld	fa2,96(s0)
    6cf4:	3b30                	fld	fa2,112(a4)
    6cf6:	7d20                	flw	fs0,120(a0)
    6cf8:	7720                	flw	fs0,104(a4)
    6cfa:	6968                	flw	fa0,84(a0)
    6cfc:	656c                	flw	fa1,76(a0)
    6cfe:	2820                	fld	fs0,80(s0)
    6d00:	2930                	fld	fa2,80(a0)
    6d02:	5f00                	lw	s0,56(a4)
    6d04:	535f 5a49 4f45      	0x4f455a49535f
    6d0a:	5f46                	lw	t5,112(sp)
    6d0c:	4c46                	lw	s8,80(sp)
    6d0e:	5f54414f          	fnmadd.q	ft2,fs0,fs5,fa1,rmm
    6d12:	205f 0034 495f      	0x495f0034205f
    6d18:	544e                	lw	s0,240(sp)
    6d1a:	5f38                	lw	a4,120(a4)
    6d1c:	5f54                	lw	a3,60(a4)
    6d1e:	4544                	lw	s1,12(a0)
    6d20:	52414c43          	fmadd.d	fs8,ft2,ft4,fa0,rmm
    6d24:	4445                	li	s0,17
    6d26:	0020                	addi	s0,sp,8
    6d28:	5f5f 4544 3643      	0x364345445f5f
    6d2e:	5f34                	lw	a3,120(a4)
    6d30:	494d                	li	s2,19
    6d32:	5f4e                	lw	t5,240(sp)
    6d34:	205f 4531 332d      	0x332d4531205f
    6d3a:	3338                	fld	fa4,96(a4)
    6d3c:	4444                	lw	s1,12(s0)
    6d3e:	5f00                	lw	s0,56(a4)
    6d40:	6e5f 6565 5f64      	0x5f6465656e5f
    6d46:	7470                	flw	fa2,108(s0)
    6d48:	6472                	flw	fs0,28(sp)
    6d4a:	6669                	lui	a2,0x1a
    6d4c:	5f66                	lw	t5,120(sp)
    6d4e:	0074                	addi	a3,sp,12
    6d50:	5f5f 4244 5f4c      	0x5f4c42445f5f
    6d56:	4544                	lw	s1,12(a0)
    6d58:	414d4943          	fmadd.s	fs2,fs10,fs4,fs0,rmm
    6d5c:	5f4c                	lw	a1,60(a4)
    6d5e:	4944                	lw	s1,20(a0)
    6d60:	205f5f47          	fmsub.s	ft10,ft10,ft5,ft4,unknown
    6d64:	3731                	jal	6c70 <_data-0x19390>
    6d66:	5f00                	lw	s0,56(a4)
    6d68:	616d                	addi	sp,sp,240
    6d6a:	7778                	flw	fa4,108(a4)
    6d6c:	7364                	flw	fs1,100(a4)
    6d6e:	5f00                	lw	s0,56(a4)
    6d70:	495f4353          	0x495f4353
    6d74:	4d5f564f          	0x4d5f564f
    6d78:	5841                	li	a6,-16
    6d7a:	3620                	fld	fs0,104(a2)
    6d7c:	0036                	0x36
    6d7e:	5f5f 6168 6576      	0x657661685f5f
    6d84:	6c5f 6e6f 3367      	0x33676e6f6c5f
    6d8a:	2032                	fld	ft0,264(sp)
    6d8c:	0031                	c.addi	zero,12
    6d8e:	5f5f 6673 7265      	0x726566735f5f
    6d94:	6f72                	flw	ft10,28(sp)
    6d96:	2872                	fld	fa6,280(sp)
    6d98:	2970                	fld	fa2,208(a0)
    6d9a:	2820                	fld	fs0,80(s0)
    6d9c:	6928                	flw	fa0,80(a0)
    6d9e:	746e                	flw	fs0,248(sp)
    6da0:	2829                	jal	6dba <_data-0x19246>
    6da2:	2828                	fld	fa0,80(s0)
    6da4:	2970                	fld	fa2,208(a0)
    6da6:	3e2d                	jal	68e0 <_data-0x19720>
    6da8:	665f 616c 7367      	0x7367616c665f
    6dae:	2620                	fld	fs0,72(a2)
    6db0:	5f20                	lw	s0,120(a4)
    6db2:	535f 5245 2952      	0x29525245535f
    6db8:	2120                	fld	fs0,64(a0)
    6dba:	203d                	jal	6de8 <_data-0x19218>
    6dbc:	2930                	fld	fa2,80(a0)
    6dbe:	0029                	c.addi	zero,10
    6dc0:	475f 4f4c 4142      	0x41424f4c475f
    6dc6:	5f4c                	lw	a1,60(a4)
    6dc8:	4552                	lw	a0,20(sp)
    6dca:	4e45                	li	t3,17
    6dcc:	2054                	fld	fa3,128(s0)
    6dce:	675f 6f6c 6162      	0x61626f6c675f
    6dd4:	5f6c                	lw	a1,124(a4)
    6dd6:	6d69                	lui	s10,0x1a
    6dd8:	7570                	flw	fa2,108(a0)
    6dda:	6572                	flw	fa0,28(sp)
    6ddc:	705f 7274 5f00      	0x5f007274705f
    6de2:	554e                	lw	a0,240(sp)
    6de4:	4c4c                	lw	a1,28(s0)
    6de6:	3020                	fld	fs0,96(s0)
    6de8:	5f00                	lw	s0,56(a4)
    6dea:	665f 656c 6178      	0x6178656c665f
    6df0:	7272                	flw	ft4,60(sp)
    6df2:	5b20                	lw	s0,112(a4)
    6df4:	5d30                	lw	a2,120(a0)
    6df6:	5f00                	lw	s0,56(a4)
    6df8:	745f 5f6d 6579      	0x65795f6d745f
    6dfe:	7261                	lui	tp,0xffff8
    6e00:	5f00                	lw	s0,56(a4)
    6e02:	6c5f 636f 5f6b      	0x5f6b636f6c5f
    6e08:	6572                	flw	fa0,28(sp)
    6e0a:	656c                	flw	fa1,76(a0)
    6e0c:	7361                	lui	t1,0xffff8
    6e0e:	5f65                	li	t5,-7
    6e10:	6572                	flw	fa0,28(sp)
    6e12:	73727563          	bleu	s7,tp,753c <_data-0x18ac4>
    6e16:	7669                	lui	a2,0xffffa
    6e18:	2865                	jal	6ed0 <_data-0x19130>
    6e1a:	6f6c                	flw	fa1,92(a4)
    6e1c:	20296b63          	bltu	s2,sp,7032 <_data-0x18fce>
    6e20:	5f28                	lw	a0,120(a4)
    6e22:	54534143          	0x54534143
    6e26:	565f 494f 2044      	0x2044494f565f
    6e2c:	2930                	fld	fa2,80(a0)
    6e2e:	5f00                	lw	s0,56(a4)
    6e30:	4552                	lw	a0,20(sp)
    6e32:	4441                	li	s0,16
    6e34:	575f 4952 4554      	0x45544952575f
    6e3a:	525f 5445 5255      	0x52555445525f
    6e40:	5f4e                	lw	t5,240(sp)
    6e42:	5954                	lw	a3,52(a0)
    6e44:	4550                	lw	a2,12(a0)
    6e46:	5f20                	lw	s0,120(a4)
    6e48:	7a697373          	csrrci	t1,0x7a6,18
    6e4c:	5f65                	li	t5,-7
    6e4e:	0074                	addi	a3,sp,12
    6e50:	4955                	li	s2,21
    6e52:	544e                	lw	s0,240(sp)
    6e54:	3436                	fld	fs0,360(sp)
    6e56:	435f 7828 2029      	0x20297828435f
    6e5c:	5f5f 4955 544e      	0x544e49555f5f
    6e62:	3436                	fld	fs0,360(sp)
    6e64:	435f 7828 0029      	0x297828435f
    6e6a:	5f5f 4e49 3154      	0x31544e495f5f
    6e70:	5f36                	lw	t5,108(sp)
    6e72:	414d                	li	sp,19
    6e74:	5f58                	lw	a4,60(a4)
    6e76:	205f 7830 6637      	0x66377830205f
    6e7c:	6666                	flw	fa2,88(sp)
    6e7e:	5f00                	lw	s0,56(a4)
    6e80:	535f 5359 435f      	0x435f5359535f
    6e86:	49464e4f          	fnmadd.s	ft8,fa2,fs4,fs1,rmm
    6e8a:	5f485f47          	fmsub.q	ft10,fa6,fs4,fa1,unknown
    6e8e:	205f 5f00 445f      	0x445f5f00205f
    6e94:	5645                	li	a2,-15
    6e96:	54414c4f          	0x54414c4f
    6e9a:	4c49                	li	s8,18
    6e9c:	2845                	jal	6f4c <_data-0x190b4>
    6e9e:	7974                	flw	fa3,116(a0)
    6ea0:	6570                	flw	fa2,76(a0)
    6ea2:	762c                	flw	fa1,104(a2)
    6ea4:	7261                	lui	tp,0xffff8
    6ea6:	2029                	jal	6eb0 <_data-0x19150>
    6ea8:	2828                	fld	fa0,80(s0)
    6eaa:	7974                	flw	fa3,116(a0)
    6eac:	6570                	flw	fa2,76(a0)
    6eae:	2829                	jal	6ec8 <_data-0x19138>
    6eb0:	5f5f 6975 746e      	0x746e69755f5f
    6eb6:	7470                	flw	fa2,108(s0)
    6eb8:	5f72                	lw	t5,60(sp)
    6eba:	2974                	fld	fa3,208(a0)
    6ebc:	7628                	flw	fa0,104(a2)
    6ebe:	74616c6f          	jal	s8,1d604 <_data-0x29fc>
    6ec2:	6c69                	lui	s8,0x1a
    6ec4:	2065                	jal	6f6c <_data-0x19094>
    6ec6:	6f76                	flw	ft10,92(sp)
    6ec8:	6469                	lui	s0,0x1a
    6eca:	2a20                	fld	fs0,80(a2)
    6ecc:	2829                	jal	6ee6 <_data-0x1911a>
    6ece:	6176                	flw	ft2,92(sp)
    6ed0:	2972                	fld	fs2,280(sp)
    6ed2:	0029                	c.addi	zero,10
    6ed4:	5f5f 7973 5f6d      	0x5f6d79735f5f
    6eda:	706d6f63          	bltu	s10,t1,75f8 <_data-0x18a08>
    6ede:	7461                	lui	s0,0xffff8
    6ee0:	7328                	flw	fa0,96(a4)
    6ee2:	6d79                	lui	s10,0x1e
    6ee4:	692c                	flw	fa1,80(a0)
    6ee6:	706d                	0x706d
    6ee8:	2c6c                	fld	fa1,216(s0)
    6eea:	6576                	flw	fa0,92(sp)
    6eec:	6972                	flw	fs2,28(sp)
    6eee:	2964                	fld	fs1,208(a0)
    6ef0:	5f20                	lw	s0,120(a4)
    6ef2:	615f 6d73 5f5f      	0x5f5f6d73615f
    6ef8:	2228                	fld	fa0,64(a2)
    6efa:	732e                	flw	ft6,232(sp)
    6efc:	6d79                	lui	s10,0x1e
    6efe:	6576                	flw	fa0,92(sp)
    6f00:	2072                	fld	ft0,280(sp)
    6f02:	2022                	fld	ft0,8(sp)
    6f04:	706d6923          	0x706d6923
    6f08:	206c                	fld	fa1,192(s0)
    6f0a:	2c22                	fld	fs8,8(sp)
    6f0c:	2220                	fld	fs0,64(a2)
    6f0e:	2320                	fld	fs0,64(a4)
    6f10:	206d7973          	csrrci	s2,0x206,26
    6f14:	4022                	0x4022
    6f16:	2022                	fld	ft0,8(sp)
    6f18:	72657623          	0x72657623
    6f1c:	6469                	lui	s0,0x1a
    6f1e:	0029                	c.addi	zero,10
    6f20:	5f5f 4e49 5f54      	0x5f544e495f5f
    6f26:	54444957          	0x54444957
    6f2a:	5f48                	lw	a0,60(a4)
    6f2c:	205f 3233 5f00      	0x5f003233205f
    6f32:	475f 554e 4c43      	0x4c43554e475f
    6f38:	4b49                	li	s6,18
    6f3a:	5f45                	li	t5,-15
    6f3c:	5542                	lw	a0,48(sp)
    6f3e:	4c49                	li	s8,18
    6f40:	4954                	lw	a3,20(a0)
    6f42:	5f4e                	lw	t5,240(sp)
    6f44:	41445453          	0x41445453
    6f48:	4752                	lw	a4,20(sp)
    6f4a:	3120                	fld	fs0,96(a0)
    6f4c:	5f00                	lw	s0,56(a4)
    6f4e:	725f 7365 6c75      	0x6c757365725f
    6f54:	5f74                	lw	a3,124(a4)
    6f56:	7375                	lui	t1,0xffffd
    6f58:	5f65                	li	t5,-7
    6f5a:	63656863          	bltu	a0,s6,758a <_data-0x18a76>
    6f5e:	5f5f206b          	0x5f5f206b
    6f62:	7461                	lui	s0,0xffff8
    6f64:	7274                	flw	fa3,100(a2)
    6f66:	6269                	lui	tp,0x1a
    6f68:	7475                	lui	s0,0xffffd
    6f6a:	5f65                	li	t5,-7
    6f6c:	285f 5f28 775f      	0x775f5f28285f
    6f72:	7261                	lui	tp,0xffff8
    6f74:	5f6e                	lw	t5,248(sp)
    6f76:	6e75                	lui	t3,0x1d
    6f78:	7375                	lui	t1,0xffffd
    6f7a:	6465                	lui	s0,0x19
    6f7c:	725f 7365 6c75      	0x6c757365725f
    6f82:	5f74                	lw	a3,124(a4)
    6f84:	295f 0029 5f5f      	0x5f5f0029295f
    6f8a:	6972                	flw	fs2,28(sp)
    6f8c:	5f766373          	csrrsi	t1,0x5f7,12
    6f90:	6c66                	flw	fs8,88(sp)
    6f92:	5f74616f          	jal	sp,4dd88 <__global_pointer$+0x2cd58>
    6f96:	6261                	lui	tp,0x18
    6f98:	5f69                	li	t5,-6
    6f9a:	6f64                	flw	fs1,92(a4)
    6f9c:	6275                	lui	tp,0x1d
    6f9e:	656c                	flw	fa1,76(a0)
    6fa0:	3120                	fld	fs0,96(a0)
    6fa2:	5f00                	lw	s0,56(a4)
    6fa4:	465f 544c 3231      	0x3231544c465f
    6faa:	5f38                	lw	a4,120(a4)
    6fac:	414d                	li	sp,19
    6fae:	544e                	lw	s0,240(sp)
    6fb0:	445f 4749 5f5f      	0x5f5f4749445f
    6fb6:	3120                	fld	fs0,96(a0)
    6fb8:	3331                	jal	6cc4 <_data-0x1933c>
    6fba:	5f00                	lw	s0,56(a4)
    6fbc:	4f49                	li	t5,18
    6fbe:	424c                	lw	a1,4(a2)
    6fc0:	2046                	fld	ft0,80(sp)
    6fc2:	0031                	c.addi	zero,12
    6fc4:	5f5f 7473 6672      	0x667274735f5f
    6fca:	6f6d                	lui	t5,0x1b
    6fcc:	6c6e                	flw	fs8,216(sp)
    6fce:	6b69                	lui	s6,0x1a
    6fd0:	2865                	jal	7088 <_data-0x18f78>
    6fd2:	6d66                	flw	fs10,88(sp)
    6fd4:	6174                	flw	fa3,68(a0)
    6fd6:	6772                	flw	fa4,28(sp)
    6fd8:	662c                	flw	fa1,72(a2)
    6fda:	7269                	lui	tp,0xffffa
    6fdc:	61767473          	csrrci	s0,0x617,12
    6fe0:	6172                	flw	ft2,28(sp)
    6fe2:	6772                	flw	fa4,28(sp)
    6fe4:	2029                	jal	6fee <_data-0x19012>
    6fe6:	5f5f 7461 7274      	0x727474615f5f
    6fec:	6269                	lui	tp,0x1a
    6fee:	7475                	lui	s0,0xffffd
    6ff0:	5f65                	li	t5,-7
    6ff2:	285f 5f28 665f      	0x665f5f28285f
    6ff8:	616d726f          	jal	tp,de60e <__global_pointer$+0xbd5de>
    6ffc:	5f74                	lw	a3,124(a4)
    6ffe:	205f 5f28 735f      	0x735f5f28205f
    7004:	7274                	flw	fa3,100(a2)
    7006:	6d66                	flw	fs10,88(sp)
    7008:	5f5f6e6f          	jal	t3,fddfc <__global_pointer$+0xdcdcc>
    700c:	202c                	fld	fa1,64(s0)
    700e:	6d66                	flw	fs10,88(sp)
    7010:	6174                	flw	fa3,68(a0)
    7012:	6772                	flw	fa4,28(sp)
    7014:	202c                	fld	fa1,64(s0)
    7016:	6966                	flw	fs2,88(sp)
    7018:	7372                	flw	ft6,60(sp)
    701a:	7674                	flw	fa3,108(a2)
    701c:	7261                	lui	tp,0xffff8
    701e:	7261                	lui	tp,0xffff8
    7020:	29292967          	0x29292967
    7024:	4200                	lw	s0,0(a2)
    7026:	4655                	li	a2,21
    7028:	205a4953          	0x205a4953
    702c:	3031                	jal	6838 <_data-0x197c8>
    702e:	3432                	fld	fs0,296(sp)
    7030:	5f00                	lw	s0,56(a4)
    7032:	465f 5341 3354      	0x33545341465f
    7038:	2032                	fld	ft0,264(sp)
    703a:	5f00                	lw	s0,56(a4)
    703c:	535f 4749 415f      	0x415f4749535f
    7042:	4f54                	lw	a3,28(a4)
    7044:	494d                	li	s2,19
    7046:	49575f43          	fmadd.s	ft10,fa4,fs5,fs1,unknown
    704a:	5444                	lw	s1,44(s0)
    704c:	5f48                	lw	a0,60(a4)
    704e:	205f 3233 5f00      	0x5f003233205f
    7054:	475f 554e 5f43      	0x5f43554e475f
    705a:	5250                	lw	a2,36(a2)
    705c:	5245                	li	tp,-15
    705e:	5145                	li	sp,-15
    7060:	5f5f 6d28 2c61      	0x2c616d285f5f
    7066:	696d                	lui	s2,0x1b
    7068:	2029                	jal	7072 <_data-0x18f8e>
    706a:	5f5f 4e47 4355      	0x43554e475f5f
    7070:	505f 4552 4552      	0x45524552505f
    7076:	2851                	jal	710a <_data-0x18ef6>
    7078:	616d                	addi	sp,sp,240
    707a:	202c                	fld	fa1,64(s0)
    707c:	696d                	lui	s2,0x1b
    707e:	0029                	c.addi	zero,10
    7080:	505f 5f43 5f32      	0x5f325f43505f
    7086:	4c4d5953          	0x4c4d5953
    708a:	4e49                	li	t3,18
    708c:	3120534b          	fnmsub.s	ft6,ft0,fs2,ft6,unknown
    7090:	535f0033          	0x535f0033
    7094:	48545f43          	fmadd.s	ft10,fs0,ft5,fs1,unknown
    7098:	4552                	lw	a0,20(sp)
    709a:	4441                	li	s0,16
    709c:	505f 4952 5f4f      	0x5f4f4952505f
    70a2:	4c494543          	0x4c494543
    70a6:	4e49                	li	t3,18
    70a8:	535f2047          	fmsub.d	ft0,ft10,fs5,fa0,rdn
    70ac:	48545f43          	fmadd.s	ft10,fs0,ft5,fs1,unknown
    70b0:	4552                	lw	a0,20(sp)
    70b2:	4441                	li	s0,16
    70b4:	505f 4952 5f4f      	0x5f4f4952505f
    70ba:	5250                	lw	a2,36(a2)
    70bc:	4345544f          	fnmadd.d	fs0,fa0,fs4,fs0,unknown
    70c0:	0054                	addi	a3,sp,4
    70c2:	45445453          	0x45445453
    70c6:	5252                	lw	tp,52(sp)
    70c8:	465f 4c49 4e45      	0x4e454c49465f
    70ce:	0032204f          	fnmadd.s	ft0,ft4,ft3,ft0,rdn
    70d2:	4955                	li	s2,21
    70d4:	544e                	lw	s0,240(sp)
    70d6:	435f3233          	0x435f3233
    70da:	7828                	flw	fa0,112(s0)
    70dc:	2029                	jal	70e6 <_data-0x18f1a>
    70de:	5f5f 4955 544e      	0x544e49555f5f
    70e4:	435f3233          	0x435f3233
    70e8:	7828                	flw	fa0,112(s0)
    70ea:	0029                	c.addi	zero,10
    70ec:	555f 4e49 3654      	0x36544e49555f
    70f2:	5f34                	lw	a3,120(a4)
    70f4:	5f54                	lw	a3,60(a4)
    70f6:	4544                	lw	s1,12(a0)
    70f8:	52414c43          	fmadd.d	fs8,ft2,ft4,fa0,rmm
    70fc:	4445                	li	s0,17
    70fe:	0020                	addi	s0,sp,8
    7100:	5f5f 6e75 6572      	0x65726e755f5f
    7106:	6361                	lui	t1,0x18
    7108:	6168                	flw	fa0,68(a0)
    710a:	6c62                	flw	fs8,24(sp)
    710c:	2865                	jal	71c4 <_data-0x18e3c>
    710e:	2029                	jal	7118 <_data-0x18ee8>
    7110:	5f5f 7562 6c69      	0x6c6975625f5f
    7116:	6974                	flw	fa3,84(a0)
    7118:	5f6e                	lw	t5,248(sp)
    711a:	6e75                	lui	t3,0x1d
    711c:	6572                	flw	fa0,28(sp)
    711e:	6361                	lui	t1,0x18
    7120:	6168                	flw	fa0,68(a0)
    7122:	6c62                	flw	fs8,24(sp)
    7124:	2865                	jal	71dc <_data-0x18e24>
    7126:	0029                	c.addi	zero,10
    7128:	6c5f 6662 6973      	0x697366626c5f
    712e:	657a                	flw	fa0,156(sp)
    7130:	5200                	lw	s0,32(a2)
    7132:	4f5f 204b 0034      	0x34204b4f5f
    7138:	5f5f 4953 455a      	0x455a49535f5f
    713e:	575f464f          	fnmadd.q	fa2,ft10,fs5,fa0,rmm
    7142:	4e49                	li	t3,18
    7144:	5f54                	lw	a3,60(a4)
    7146:	5f54                	lw	a3,60(a4)
    7148:	205f 0034 695f      	0x695f0034205f
    714e:	646e                	flw	fs0,216(sp)
    7150:	5f00                	lw	s0,56(a4)
    7152:	4e55                	li	t3,21
    7154:	5542                	lw	a0,48(sp)
    7156:	5f46                	lw	t5,112(sp)
    7158:	45525453          	0x45525453
    715c:	4d41                	li	s10,16
    715e:	4f5f 5450 3120      	0x312054504f5f
    7164:	7300                	flw	fs0,32(a4)
    7166:	7274                	flw	fa3,100(a2)
    7168:	656c                	flw	fa1,76(a0)
    716a:	006e                	0x6e
    716c:	5f5f 5453 4344      	0x434454535f5f
    7172:	5f5f 3120 5f00      	0x5f0031205f5f
    7178:	6c5f 636f 736b      	0x736b636f6c5f
    717e:	735f 6168 6572      	0x65726168735f
    7184:	2864                	fld	fs1,208(s0)
    7186:	2e2e                	fld	ft8,200(sp)
    7188:	292e                	fld	fs2,200(sp)
    718a:	5f20                	lw	s0,120(a4)
    718c:	6c5f 636f 5f6b      	0x5f6b636f6c5f
    7192:	6e61                	lui	t3,0x18
    7194:	6f6e                	flw	ft10,216(sp)
    7196:	6174                	flw	fa3,68(a0)
    7198:	6574                	flw	fa3,76(a0)
    719a:	7328                	flw	fa0,96(a4)
    719c:	6168                	flw	fa0,68(a0)
    719e:	6572                	flw	fa0,28(sp)
    71a0:	5f64                	lw	s1,124(a4)
    71a2:	6f6c                	flw	fa1,92(a4)
    71a4:	665f6b63          	bltu	t5,t0,781a <_data-0x187e6>
    71a8:	6e75                	lui	t3,0x1d
    71aa:	6f697463          	bleu	s6,s2,7892 <_data-0x1876e>
    71ae:	286e                	fld	fa6,216(sp)
    71b0:	5f5f 4156 415f      	0x415f41565f5f
    71b6:	4752                	lw	a4,20(sp)
    71b8:	295f5f53          	0x295f5f53
    71bc:	0029                	c.addi	zero,10
    71be:	565f 494f 2044      	0x2044494f565f
    71c4:	6f76                	flw	ft10,92(sp)
    71c6:	6469                	lui	s0,0x1a
    71c8:	5f00                	lw	s0,56(a4)
    71ca:	755f 756e 6573      	0x6573756e755f
    71d0:	2064                	fld	fs1,192(s0)
    71d2:	5f5f 7461 7274      	0x727474615f5f
    71d8:	6269                	lui	tp,0x1a
    71da:	7475                	lui	s0,0xffffd
    71dc:	5f65                	li	t5,-7
    71de:	285f 5f28 755f      	0x755f5f28285f
    71e4:	756e                	flw	fa0,248(sp)
    71e6:	5f646573          	csrrsi	a0,0x5f6,8
    71ea:	295f 0029 5f5f      	0x5f5f0029295f
    71f0:	4e49                	li	t3,18
    71f2:	5f54                	lw	a3,60(a4)
    71f4:	4146                	lw	sp,80(sp)
    71f6:	5f385453          	0x5f385453
    71fa:	414d                	li	sp,19
    71fc:	5f58                	lw	a4,60(a4)
    71fe:	205f 7830 6637      	0x66377830205f
    7204:	6666                	flw	fa2,88(sp)
    7206:	6666                	flw	fa2,88(sp)
    7208:	6666                	flw	fa2,88(sp)
    720a:	5f00                	lw	s0,56(a4)
    720c:	465f 544c 3233      	0x3233544c465f
    7212:	485f 5341 445f      	0x445f5341485f
    7218:	4e45                	li	t3,17
    721a:	5f4d524f          	fnmadd.q	ft4,fs10,fs4,fa1,unknown
    721e:	205f 0031 535f      	0x535f0031205f
    7224:	4f505f43          	fmadd.q	ft10,ft0,fs5,fs1,unknown
    7228:	5f584953          	0x5f584953
    722c:	3632                	fld	fa2,296(sp)
    722e:	565f 5245 4953      	0x49535245565f
    7234:	31204e4f          	fnmadd.s	ft8,ft0,fs2,ft6,rmm
    7238:	3034                	fld	fa3,96(s0)
    723a:	5f00                	lw	s0,56(a4)
    723c:	445f 4345 3233      	0x32334345445f
    7242:	4d5f 4e49 455f      	0x455f4e494d5f
    7248:	5058                	lw	a4,36(s0)
    724a:	5f5f 2820 392d      	0x392d28205f5f
    7250:	2934                	fld	fa3,80(a0)
    7252:	5f00                	lw	s0,56(a4)
    7254:	414d                	li	sp,19
    7256:	4e494843          	fmadd.q	fa6,fs2,ft4,fs1,rmm
    725a:	5f45                	li	t5,-15
    725c:	545f 5059 5345      	0x53455059545f
    7262:	485f 0020 5f5f      	0x5f5f0020485f
    7268:	4e49                	li	t3,18
    726a:	5f54                	lw	a3,60(a4)
    726c:	4146                	lw	sp,80(sp)
    726e:	32335453          	0x32335453
    7272:	575f 4449 4854      	0x48544449575f
    7278:	5f5f 3320 0032      	0x3233205f5f
    727e:	535f 5359 435f      	0x435f5359535f
    7284:	4544                	lw	s1,12(a0)
    7286:	5346                	lw	t1,112(sp)
    7288:	485f 205f 5f00      	0x5f00205f485f
    728e:	4152                	lw	sp,20(sp)
    7290:	444e                	lw	s0,208(sp)
    7292:	3834                	fld	fa3,112(s0)
    7294:	4d5f 4c55 5f54      	0x5f544c554d5f
    729a:	2030                	fld	fa2,64(s0)
    729c:	3028                	fld	fa0,96(s0)
    729e:	6578                	flw	fa4,76(a0)
    72a0:	3636                	fld	fa2,360(sp)
    72a2:	2964                	fld	fs1,208(a0)
    72a4:	5f00                	lw	s0,56(a4)
    72a6:	7369                	lui	t1,0xffffa
    72a8:	635f 6178 5f00      	0x5f006178635f
    72ae:	475f 554e 4c43      	0x4c43554e475f
    72b4:	4b49                	li	s6,18
    72b6:	5f45                	li	t5,-15
    72b8:	5542                	lw	a0,48(sp)
    72ba:	4c49                	li	s8,18
    72bc:	4954                	lw	a3,20(a0)
    72be:	5f4e                	lw	t5,240(sp)
    72c0:	4156                	lw	sp,84(sp)
    72c2:	4c41                	li	s8,16
    72c4:	5349                	li	t1,-14
    72c6:	2054                	fld	fa3,128(s0)
    72c8:	0031                	c.addi	zero,12
    72ca:	5f5f 4953 455a      	0x455a49535f5f
    72d0:	4c5f464f          	0x4c5f464f
    72d4:	5f474e4f          	fnmadd.q	ft8,fa4,fs4,fa1,rmm
    72d8:	4f44                	lw	s1,28(a4)
    72da:	4255                	li	tp,21
    72dc:	454c                	lw	a1,12(a0)
    72de:	5f5f 3120 0036      	0x3631205f5f
    72e4:	535f 5f43 5341      	0x53415f43535f
    72ea:	4e59                	li	t3,22
    72ec:	4f524843          	fmadd.q	fa6,ft4,fs5,fs1,rmm
    72f0:	4f4e                	lw	t5,208(sp)
    72f2:	5355                	li	t1,-11
    72f4:	495f 204f 3132      	0x3132204f495f
    72fa:	5f00                	lw	s0,56(a4)
    72fc:	656e                	flw	fa0,216(sp)
    72fe:	7478                	flw	fa4,108(s0)
    7300:	0066                	0x66
    7302:	5f5f 4e49 3354      	0x33544e495f5f
    7308:	2032                	fld	ft0,264(sp)
    730a:	6c22                	flw	fs8,8(sp)
    730c:	0022                	0x22
    730e:	6566                	flw	fa0,88(sp)
    7310:	7272                	flw	ft4,60(sp)
    7312:	755f726f          	jal	tp,ff266 <__global_pointer$+0xde236>
    7316:	6c6e                	flw	fs8,216(sp)
    7318:	656b636f          	jal	t1,bd96e <__global_pointer$+0x9c93e>
    731c:	2864                	fld	fs1,208(s0)
    731e:	2970                	fld	fa2,208(a0)
    7320:	5f20                	lw	s0,120(a4)
    7322:	735f 6566 7272      	0x72726566735f
    7328:	7028726f          	jal	tp,8ea2a <__global_pointer$+0x6d9fa>
    732c:	0029                	c.addi	zero,10
    732e:	74727473          	csrrci	s0,0x747,4
    7332:	2066646f          	jal	s0,6d538 <__global_pointer$+0x4c508>
    7336:	74727473          	csrrci	s0,0x747,4
    733a:	5f00666f          	jal	a2,d92a <_data-0x126d6>
    733e:	465f 544c 3231      	0x3231544c465f
    7344:	5f38                	lw	a4,120(a4)
    7346:	414d                	li	sp,19
    7348:	5f58                	lw	a4,60(a4)
    734a:	205f 2e31 3831      	0x38312e31205f
    7350:	3739                	jal	725e <_data-0x18da2>
    7352:	39343133          	0x39343133
    7356:	3335                	jal	7082 <_data-0x18f7e>
    7358:	3735                	jal	7284 <_data-0x18d7c>
    735a:	3332                	fld	ft6,296(sp)
    735c:	3731                	jal	7268 <_data-0x18d98>
    735e:	3536                	fld	fa0,360(sp)
    7360:	3830                	fld	fa2,112(s0)
    7362:	3735                	jal	728e <_data-0x18d72>
    7364:	3935                	jal	6fa0 <_data-0x19060>
    7366:	36363233          	0x36363233
    736a:	3832                	fld	fa6,296(sp)
    736c:	3030                	fld	fa2,96(s0)
    736e:	65323037          	lui	zero,0x65323
    7372:	3339342b          	0x3339342b
    7376:	4632                	lw	a2,12(sp)
    7378:	3231                	jal	6c84 <_data-0x1937c>
    737a:	0038                	addi	a4,sp,8
    737c:	5f5f 4955 544e      	0x544e49555f5f
    7382:	545f3233          	0x545f3233
    7386:	5059                	0x5059
    7388:	5f45                	li	t5,-15
    738a:	205f 6f6c 676e      	0x676e6f6c205f
    7390:	7520                	flw	fs0,104(a0)
    7392:	736e                	flw	ft6,248(sp)
    7394:	6769                	lui	a4,0x1a
    7396:	656e                	flw	fa0,216(sp)
    7398:	2064                	fld	fs1,192(s0)
    739a:	6e69                	lui	t3,0x1a
    739c:	0074                	addi	a3,sp,12
    739e:	5f5f 4e47 4355      	0x43554e475f5f
    73a4:	494c                	lw	a1,20(a0)
    73a6:	4d5f454b          	0x4d5f454b
    73aa:	5441                	li	s0,-16
    73ac:	5f48                	lw	a0,60(a4)
    73ae:	5542                	lw	a0,48(sp)
    73b0:	4c49                	li	s8,18
    73b2:	4954                	lw	a3,20(a0)
    73b4:	5f4e                	lw	t5,240(sp)
    73b6:	534e4f43          	fmadd.d	ft10,ft8,fs4,fa0,rmm
    73ba:	4154                	lw	a3,4(a0)
    73bc:	544e                	lw	s0,240(sp)
    73be:	5f002053          	0x5f002053
    73c2:	535f 5257 3020      	0x30205257535f
    73c8:	3078                	fld	fa4,224(s0)
    73ca:	3030                	fld	fa2,96(s0)
    73cc:	0038                	addi	a4,sp,8
    73ce:	535f 5f43 474e      	0x474e5f43535f
    73d4:	4f52                	lw	t5,20(sp)
    73d6:	5055                	0x5055
    73d8:	414d5f53          	0x414d5f53
    73dc:	2058                	fld	fa4,128(s0)
    73de:	464e0033          	0x464e0033
    73e2:	4244                	lw	s1,4(a2)
    73e4:	5449                	li	s0,-14
    73e6:	73282053          	0x73282053
    73ea:	7a69                	lui	s4,0xffffa
    73ec:	6f65                	lui	t5,0x19
    73ee:	2066                	fld	ft0,88(sp)
    73f0:	6628                	flw	fa0,72(a2)
    73f2:	5f64                	lw	s1,124(a4)
    73f4:	616d                	addi	sp,sp,240
    73f6:	20296b73          	csrrsi	s6,0x202,18
    73fa:	202a                	fld	ft0,136(sp)
    73fc:	2938                	fld	fa4,80(a0)
    73fe:	5f00                	lw	s0,56(a4)
    7400:	705f 7275 2065      	0x20657275705f
    7406:	5f5f 7461 7274      	0x727474615f5f
    740c:	6269                	lui	tp,0x1a
    740e:	7475                	lui	s0,0xffffd
    7410:	5f65                	li	t5,-7
    7412:	285f 5f28 705f      	0x705f5f28285f
    7418:	7275                	lui	tp,0xffffd
    741a:	5f65                	li	t5,-7
    741c:	295f 0029 5f5f      	0x5f5f0029295f
    7422:	4c46                	lw	s8,80(sp)
    7424:	3654                	fld	fa3,168(a2)
    7426:	5f34                	lw	a3,120(a4)
    7428:	414d                	li	sp,19
    742a:	5f58                	lw	a4,60(a4)
    742c:	205f 2e31 3937      	0x39372e31205f
    7432:	33393637          	lui	a2,0x33393
    7436:	3331                	jal	7142 <_data-0x18ebe>
    7438:	3834                	fld	fa3,112(s0)
    743a:	3236                	fld	ft4,360(sp)
    743c:	37353133          	0x37353133
    7440:	3830                	fld	fa2,112(s0)
    7442:	3431                	jal	6e4e <_data-0x191b2>
    7444:	3235                	jal	6d70 <_data-0x19290>
    7446:	33323437          	lui	s0,0x33323
    744a:	37313337          	lui	t1,0x37313
    744e:	3430                	fld	fa2,104(s0)
    7450:	65373533          	0x65373533
    7454:	3830332b          	0x3830332b
    7458:	3646                	fld	fa2,112(sp)
    745a:	0034                	addi	a3,sp,8
    745c:	726f6873          	csrrsi	a6,0x726,30
    7460:	2074                	fld	fa3,192(s0)
    7462:	5f00312b          	0x5f00312b
    7466:	5f434347          	fmsub.q	ft6,ft6,fs4,fa1,rmm
    746a:	455a4953          	0x455a4953
    746e:	545f 0020 5f5f      	0x5f5f0020545f
    7474:	535f4343          	fmadd.d	ft6,ft10,fs5,fa0,rmm
    7478:	5055                	0x5055
    747a:	4f50                	lw	a2,28(a4)
    747c:	5452                	lw	s0,52(sp)
    747e:	41575f53          	0x41575f53
    7482:	4e52                	lw	t3,20(sp)
    7484:	4e49                	li	t3,18
    7486:	00312047          	fmsub.s	ft0,ft2,ft3,ft0,rdn
    748a:	61656c63          	bltu	a0,s6,7aa2 <_data-0x1855e>
    748e:	6572                	flw	fa0,28(sp)
    7490:	7272                	flw	ft4,60(sp)
    7492:	7028                	flw	fa0,96(s0)
    7494:	2029                	jal	749e <_data-0x18b62>
    7496:	5f5f 6373 656c      	0x656c63735f5f
    749c:	7261                	lui	tp,0xffff8
    749e:	7265                	lui	tp,0xffff9
    74a0:	2872                	fld	fa6,280(sp)
    74a2:	2970                	fld	fa2,208(a0)
    74a4:	5f00                	lw	s0,56(a4)
    74a6:	6f6c                	flw	fa1,92(a4)
    74a8:	656c6163          	bltu	s8,s6,7aea <_data-0x18516>
    74ac:	5f00                	lw	s0,56(a4)
    74ae:	555f 6f4c 676e      	0x676e6f4c555f
    74b4:	5f00                	lw	s0,56(a4)
    74b6:	4552                	lw	a0,20(sp)
    74b8:	4e45                	li	t3,17
    74ba:	5f54                	lw	a3,60(a4)
    74bc:	43454843          	fmadd.d	fa6,fa0,fs4,fs0,rmm
    74c0:	41525f4b          	fnmsub.s	ft10,ft4,fs5,fs0,unknown
    74c4:	444e                	lw	s0,208(sp)
    74c6:	3834                	fld	fa3,112(s0)
    74c8:	7028                	flw	fa0,96(s0)
    74ca:	7274                	flw	fa3,100(a2)
    74cc:	2029                	jal	74d6 <_data-0x18b2a>
    74ce:	5f00                	lw	s0,56(a4)
    74d0:	4552                	lw	a0,20(sp)
    74d2:	4e45                	li	t3,17
    74d4:	5f54                	lw	a3,60(a4)
    74d6:	4e49                	li	t3,18
    74d8:	5449                	li	s0,-14
    74da:	7628                	flw	fa0,104(a2)
    74dc:	7261                	lui	tp,0xffff8
    74de:	2029                	jal	74e8 <_data-0x18b18>
    74e0:	2c30207b          	0x2c30207b
    74e4:	2620                	fld	fs0,72(a2)
    74e6:	7628                	flw	fa0,104(a2)
    74e8:	7261                	lui	tp,0xffff8
    74ea:	2e29                	jal	7804 <_data-0x187fc>
    74ec:	5f5f 6673 305b      	0x305b66735f5f
    74f2:	2c5d                	jal	77a8 <_data-0x18858>
    74f4:	2620                	fld	fs0,72(a2)
    74f6:	7628                	flw	fa0,104(a2)
    74f8:	7261                	lui	tp,0xffff8
    74fa:	2e29                	jal	7814 <_data-0x187ec>
    74fc:	5f5f 6673 315b      	0x315b66735f5f
    7502:	2c5d                	jal	77b8 <_data-0x18848>
    7504:	2620                	fld	fs0,72(a2)
    7506:	7628                	flw	fa0,104(a2)
    7508:	7261                	lui	tp,0xffff8
    750a:	2e29                	jal	7824 <_data-0x187dc>
    750c:	5f5f 6673 325b      	0x325b66735f5f
    7512:	2c5d                	jal	77c8 <_data-0x18838>
    7514:	3020                	fld	fs0,96(s0)
    7516:	202c                	fld	fa1,64(s0)
    7518:	2222                	fld	ft4,8(sp)
    751a:	202c                	fld	fa1,64(s0)
    751c:	2c30                	fld	fa2,88(s0)
    751e:	5f20                	lw	s0,120(a4)
    7520:	554e                	lw	a0,240(sp)
    7522:	4c4c                	lw	a1,28(s0)
    7524:	202c                	fld	fa1,64(s0)
    7526:	2c30                	fld	fa2,88(s0)
    7528:	5f20                	lw	s0,120(a4)
    752a:	554e                	lw	a0,240(sp)
    752c:	4c4c                	lw	a1,28(s0)
    752e:	202c                	fld	fa1,64(s0)
    7530:	4e5f 4c55 2c4c      	0x2c4c4c554e5f
    7536:	3020                	fld	fs0,96(s0)
    7538:	202c                	fld	fa1,64(s0)
    753a:	4e5f 4c55 2c4c      	0x2c4c4c554e5f
    7540:	5f20                	lw	s0,120(a4)
    7542:	554e                	lw	a0,240(sp)
    7544:	4c4c                	lw	a1,28(s0)
    7546:	202c                	fld	fa1,64(s0)
    7548:	2c30                	fld	fa2,88(s0)
    754a:	5f20                	lw	s0,120(a4)
    754c:	554e                	lw	a0,240(sp)
    754e:	4c4c                	lw	a1,28(s0)
    7550:	202c                	fld	fa1,64(s0)
    7552:	207b207b          	0x207b207b
    7556:	2c30                	fld	fa2,88(s0)
    7558:	5f20                	lw	s0,120(a4)
    755a:	554e                	lw	a0,240(sp)
    755c:	4c4c                	lw	a1,28(s0)
    755e:	202c                	fld	fa1,64(s0)
    7560:	2222                	fld	ft4,8(sp)
    7562:	202c                	fld	fa1,64(s0)
    7564:	202c307b          	0x202c307b
    7568:	2c30                	fld	fa2,88(s0)
    756a:	3020                	fld	fs0,96(s0)
    756c:	202c                	fld	fa1,64(s0)
    756e:	2c30                	fld	fa2,88(s0)
    7570:	3020                	fld	fs0,96(s0)
    7572:	202c                	fld	fa1,64(s0)
    7574:	2c30                	fld	fa2,88(s0)
    7576:	3020                	fld	fs0,96(s0)
    7578:	202c                	fld	fa1,64(s0)
    757a:	2c30                	fld	fa2,88(s0)
    757c:	3020                	fld	fs0,96(s0)
    757e:	2c7d                	jal	783c <_data-0x187c4>
    7580:	3020                	fld	fs0,96(s0)
    7582:	202c                	fld	fa1,64(s0)
    7584:	2c31                	jal	77a0 <_data-0x18860>
    7586:	7b20                	flw	fs0,112(a4)
    7588:	7b20                	flw	fs0,112(a4)
    758a:	525f 4e41 3444      	0x34444e41525f
    7590:	5f38                	lw	a4,120(a4)
    7592:	44454553          	0x44454553
    7596:	305f 202c 525f      	0x525f202c305f
    759c:	4e41                	li	t3,16
    759e:	3444                	fld	fs1,168(s0)
    75a0:	5f38                	lw	a4,120(a4)
    75a2:	44454553          	0x44454553
    75a6:	315f 202c 525f      	0x525f202c315f
    75ac:	4e41                	li	t3,16
    75ae:	3444                	fld	fs1,168(s0)
    75b0:	5f38                	lw	a4,120(a4)
    75b2:	44454553          	0x44454553
    75b6:	325f 2c7d 7b20      	0x7b202c7d325f
    75bc:	525f 4e41 3444      	0x34444e41525f
    75c2:	5f38                	lw	a4,120(a4)
    75c4:	554d                	li	a0,-13
    75c6:	544c                	lw	a1,44(s0)
    75c8:	305f 202c 525f      	0x525f202c305f
    75ce:	4e41                	li	t3,16
    75d0:	3444                	fld	fs1,168(s0)
    75d2:	5f38                	lw	a4,120(a4)
    75d4:	554d                	li	a0,-13
    75d6:	544c                	lw	a1,44(s0)
    75d8:	315f 202c 525f      	0x525f202c315f
    75de:	4e41                	li	t3,16
    75e0:	3444                	fld	fs1,168(s0)
    75e2:	5f38                	lw	a4,120(a4)
    75e4:	554d                	li	a0,-13
    75e6:	544c                	lw	a1,44(s0)
    75e8:	325f 2c7d 5f20      	0x5f202c7d325f
    75ee:	4152                	lw	sp,20(sp)
    75f0:	444e                	lw	s0,208(sp)
    75f2:	3834                	fld	fa3,112(s0)
    75f4:	415f 4444 7d20      	0x7d204444415f
    75fa:	202c                	fld	fa1,64(s0)
    75fc:	202c307b          	0x202c307b
    7600:	7d7d307b          	0x7d7d307b
    7604:	202c                	fld	fa1,64(s0)
    7606:	202c307b          	0x202c307b
    760a:	7d7d307b          	0x7d7d307b
    760e:	202c                	fld	fa1,64(s0)
    7610:	202c307b          	0x202c307b
    7614:	7d7d307b          	0x7d7d307b
    7618:	202c                	fld	fa1,64(s0)
    761a:	2222                	fld	ft4,8(sp)
    761c:	202c                	fld	fa1,64(s0)
    761e:	2222                	fld	ft4,8(sp)
    7620:	202c                	fld	fa1,64(s0)
    7622:	2c30                	fld	fa2,88(s0)
    7624:	7b20                	flw	fs0,112(a4)
    7626:	2c30                	fld	fa2,88(s0)
    7628:	7b20                	flw	fs0,112(a4)
    762a:	7d30                	flw	fa2,120(a0)
    762c:	2c7d                	jal	78ea <_data-0x18716>
    762e:	7b20                	flw	fs0,112(a4)
    7630:	2c30                	fld	fa2,88(s0)
    7632:	7b20                	flw	fs0,112(a4)
    7634:	7d30                	flw	fa2,120(a0)
    7636:	2c7d                	jal	78f4 <_data-0x1870c>
    7638:	7b20                	flw	fs0,112(a4)
    763a:	2c30                	fld	fa2,88(s0)
    763c:	7b20                	flw	fs0,112(a4)
    763e:	7d30                	flw	fa2,120(a0)
    7640:	2c7d                	jal	78fe <_data-0x18702>
    7642:	7b20                	flw	fs0,112(a4)
    7644:	2c30                	fld	fa2,88(s0)
    7646:	7b20                	flw	fs0,112(a4)
    7648:	7d30                	flw	fa2,120(a0)
    764a:	2c7d                	jal	7908 <_data-0x186f8>
    764c:	7b20                	flw	fs0,112(a4)
    764e:	2c30                	fld	fa2,88(s0)
    7650:	7b20                	flw	fs0,112(a4)
    7652:	7d30                	flw	fa2,120(a0)
    7654:	207d                	jal	7702 <_data-0x188fe>
    7656:	207d                	jal	7704 <_data-0x188fc>
    7658:	2c7d                	jal	7916 <_data-0x186ea>
    765a:	5f20                	lw	s0,120(a4)
    765c:	4552                	lw	a0,20(sp)
    765e:	4e45                	li	t3,17
    7660:	5f54                	lw	a3,60(a4)
    7662:	4e49                	li	t3,18
    7664:	5449                	li	s0,-14
    7666:	415f 4554 4958      	0x49584554415f
    766c:	2054                	fld	fa3,128(s0)
    766e:	4e5f 4c55 2c4c      	0x2c4c4c554e5f
    7674:	7b20                	flw	fs0,112(a4)
    7676:	4e5f 4c55 2c4c      	0x2c4c4c554e5f
    767c:	3020                	fld	fs0,96(s0)
    767e:	202c                	fld	fa1,64(s0)
    7680:	4e5f 4c55 7d4c      	0x7d4c4c554e5f
    7686:	7d20                	flw	fs0,120(a0)
    7688:	5f00                	lw	s0,56(a4)
    768a:	4e49                	li	t3,18
    768c:	3354                	fld	fa3,160(a4)
    768e:	5f32                	lw	t5,44(sp)
    7690:	5f54                	lw	a3,60(a4)
    7692:	4544                	lw	s1,12(a0)
    7694:	52414c43          	fmadd.d	fs8,ft2,ft4,fa0,rmm
    7698:	4445                	li	s0,17
    769a:	0020                	addi	s0,sp,8
    769c:	5f5f 4953 455a      	0x455a49535f5f
    76a2:	495f464f          	fnmadd.s	fa2,ft10,fs5,fs1,rmm
    76a6:	544e                	lw	s0,240(sp)
    76a8:	5f5f 3420 5f00      	0x5f0034205f5f
    76ae:	5342                	lw	t1,48(sp)
    76b0:	5f44                	lw	s1,60(a4)
    76b2:	41484357          	0x41484357
    76b6:	5f52                	lw	t5,52(sp)
    76b8:	5f54                	lw	a3,60(a4)
    76ba:	5f00                	lw	s0,56(a4)
    76bc:	435f 5f43 5553      	0x55535f43435f
    76c2:	5050                	lw	a2,36(s0)
    76c4:	5354524f          	fnmadd.d	ft4,fs0,fs5,fa0,unknown
    76c8:	565f 5241 4441      	0x44415241565f
    76ce:	4349                	li	t1,18
    76d0:	585f 5858 3120      	0x31205858585f
    76d6:	5f00                	lw	s0,56(a4)
    76d8:	4350                	lw	a2,4(a4)
    76da:	4d5f 5841 435f      	0x435f58414d5f
    76e0:	4e41                	li	t3,16
    76e2:	31204e4f          	fnmadd.s	ft8,ft0,fs2,ft6,rmm
    76e6:	5f00                	lw	s0,56(a4)
    76e8:	4954                	lw	a3,20(a0)
    76ea:	454d                	li	a0,19
    76ec:	5f52                	lw	t5,52(sp)
    76ee:	5f54                	lw	a3,60(a4)
    76f0:	4544                	lw	s1,12(a0)
    76f2:	52414c43          	fmadd.d	fs8,ft2,ft4,fa0,rmm
    76f6:	4445                	li	s0,17
    76f8:	0020                	addi	s0,sp,8
    76fa:	535f 5359 5f5f      	0x5f5f5359535f
    7700:	4e49                	li	t3,18
    7702:	5354                	lw	a3,36(a4)
    7704:	5055                	0x5055
    7706:	485f 0020 5f5f      	0x5f5f0020485f
    770c:	6b616577          	0x6b616577
    7710:	725f 6665 7265      	0x72656665725f
    7716:	6e65                	lui	t3,0x19
    7718:	73286563          	bltu	a6,s2,7e42 <_data-0x181be>
    771c:	6d79                	lui	s10,0x1e
    771e:	612c                	flw	fa1,64(a0)
    7720:	696c                	flw	fa1,84(a0)
    7722:	7361                	lui	t1,0xffff8
    7724:	2029                	jal	772e <_data-0x188d2>
    7726:	5f5f 7361 5f6d      	0x5f6d73615f5f
    772c:	285f 2e22 6577      	0x65772e22285f
    7732:	6b61                	lui	s6,0x18
    7734:	2220                	fld	fs0,64(a2)
    7736:	2320                	fld	fs0,64(a4)
    7738:	6c61                	lui	s8,0x18
    773a:	6169                	addi	sp,sp,208
    773c:	203b2973          	csrrs	s2,0x203,s6
    7740:	5f5f 7361 5f6d      	0x5f6d73615f5f
    7746:	285f 2e22 7165      	0x71652e22285f
    774c:	2075                	jal	77f8 <_data-0x18808>
    774e:	2022                	fld	ft0,8(sp)
    7750:	696c6123          	0x696c6123
    7754:	7361                	lui	t1,0xffff8
    7756:	2220                	fld	fs0,64(a2)
    7758:	202c                	fld	fa1,64(s0)
    775a:	2022                	fld	ft0,8(sp)
    775c:	6d797323          	0x6d797323
    7760:	0029                	c.addi	zero,10
    7762:	5f5f 4343 535f      	0x535f43435f5f
    7768:	5055                	0x5055
    776a:	4f50                	lw	a2,28(a4)
    776c:	5452                	lw	s0,52(sp)
    776e:	5f5f5f53          	0x5f5f5f53
    7772:	4e49                	li	t3,18
    7774:	494c                	lw	a1,20(a0)
    7776:	454e                	lw	a0,208(sp)
    7778:	3120                	fld	fs0,96(a0)
    777a:	5f00                	lw	s0,56(a4)
    777c:	545f4353          	0x545f4353
    7780:	5248                	lw	a0,36(a2)
    7782:	4145                	li	sp,17
    7784:	5f44                	lw	s1,60(a4)
    7786:	5250                	lw	a2,36(a2)
    7788:	5345434f          	fnmadd.d	ft6,fa0,fs4,fa0,rmm
    778c:	48535f53          	0x48535f53
    7790:	5241                	li	tp,-16
    7792:	4445                	li	s0,17
    7794:	3420                	fld	fs0,104(s0)
    7796:	0038                	addi	a4,sp,8
    7798:	725f 7365 6c75      	0x6c757365725f
    779e:	0074                	addi	a3,sp,12
    77a0:	4e49                	li	t3,18
    77a2:	5f54                	lw	a3,60(a4)
    77a4:	4146                	lw	sp,80(sp)
    77a6:	34365453          	0x34365453
    77aa:	4d5f 5841 2820      	0x282058414d5f
    77b0:	5f5f 4e49 5f54      	0x5f544e495f5f
    77b6:	4146                	lw	sp,80(sp)
    77b8:	34365453          	0x34365453
    77bc:	4d5f 5841 5f5f      	0x5f5f58414d5f
    77c2:	0029                	c.addi	zero,10
    77c4:	5f5f 4153 5050      	0x505041535f5f
    77ca:	3020                	fld	fs0,96(s0)
    77cc:	3078                	fld	fa4,224(s0)
    77ce:	3031                	jal	6fda <_data-0x19026>
    77d0:	0030                	addi	a2,sp,8
    77d2:	5f5f 6f6c 6b63      	0x6b636f6c5f5f
    77d8:	6261                	lui	tp,0x18
    77da:	656c                	flw	fa1,76(a0)
    77dc:	5f20                	lw	s0,120(a4)
    77de:	6c5f 636f 5f6b      	0x5f6b636f6c5f
    77e4:	6e61                	lui	t3,0x18
    77e6:	6f6e                	flw	ft10,216(sp)
    77e8:	6174                	flw	fa3,68(a0)
    77ea:	6574                	flw	fa3,76(a0)
    77ec:	6c28                	flw	fa0,88(s0)
    77ee:	616b636f          	jal	t1,bde04 <__global_pointer$+0x9cdd4>
    77f2:	6c62                	flw	fs8,24(sp)
    77f4:	2965                	jal	7cac <_data-0x18354>
    77f6:	5f00                	lw	s0,56(a4)
    77f8:	4f50                	lw	a2,28(a4)
    77fa:	5f584953          	0x5f584953
    77fe:	52554f53          	0x52554f53
    7802:	31204543          	fmadd.s	fa0,ft0,fs2,ft6,rmm
    7806:	5f00                	lw	s0,56(a4)
    7808:	4c5f 4244 5f4c      	0x5f4c42444c5f
    780e:	494d                	li	s2,19
    7810:	5f4e                	lw	t5,240(sp)
    7812:	205f 2e33 3633      	0x36332e33205f
    7818:	3132                	fld	ft2,296(sp)
    781a:	3330                	fld	fa2,96(a4)
    781c:	3431                	jal	7228 <_data-0x18dd8>
    781e:	32313133          	0x32313133
    7822:	3930                	fld	fa2,112(a0)
    7824:	36303533          	0x36303533
    7828:	3632                	fld	fa2,296(sp)
    782a:	3632                	fld	fa2,296(sp)
    782c:	31383737          	lui	a4,0x31383
    7830:	31323337          	lui	t1,0x31323
    7834:	36323537          	lui	a0,0x36323
    7838:	6530                	flw	fa2,72(a0)
    783a:	342d                	jal	7264 <_data-0x18d9c>
    783c:	3339                	jal	754a <_data-0x18ab6>
    783e:	4c32                	lw	s8,12(sp)
    7840:	5f00                	lw	s0,56(a4)
    7842:	555f 4e49 5f54      	0x5f544e49555f
    7848:	4146                	lw	sp,80(sp)
    784a:	36315453          	0x36315453
    784e:	545f 5059 5f45      	0x5f455059545f
    7854:	205f 6e75 6973      	0x69736e75205f
    785a:	64656e67          	0x64656e67
    785e:	6920                	flw	fs0,80(a0)
    7860:	746e                	flw	fs0,248(sp)
    7862:	5f00                	lw	s0,56(a4)
    7864:	475f 554e 5f43      	0x5f43554e475f
    786a:	43445453          	0x43445453
    786e:	495f 4c4e 4e49      	0x4e494c4e495f
    7874:	5f45                	li	t5,-15
    7876:	205f 0031 5f5f      	0x5f5f0031205f
    787c:	656e                	flw	fa0,216(sp)
    787e:	6465                	lui	s0,0x19
    7880:	775f 6e69 5f74      	0x5f746e69775f
    7886:	2074                	fld	fa3,192(s0)
    7888:	5f00                	lw	s0,56(a4)
    788a:	4a5f4353          	0x4a5f4353
    788e:	435f424f          	fnmadd.d	ft4,ft10,fs5,fs0,rmm
    7892:	52544e4f          	fnmadd.d	ft8,fs0,ft5,fa0,rmm
    7896:	35204c4f          	0x35204c4f
    789a:	5f00                	lw	s0,56(a4)
    789c:	535f 5a49 5f45      	0x5f455a49535f
    78a2:	54444957          	0x54444957
    78a6:	5f48                	lw	a0,60(a4)
    78a8:	205f 3233 5f00      	0x5f003233205f
    78ae:	735f 6966 656c      	0x656c6966735f
    78b4:	6f6e                	flw	ft10,216(sp)
    78b6:	7028                	flw	fa0,96(s0)
    78b8:	2029                	jal	78c2 <_data-0x1873e>
    78ba:	2828                	fld	fa0,80(s0)
    78bc:	2970                	fld	fa2,208(a0)
    78be:	3e2d                	jal	73f8 <_data-0x18c08>
    78c0:	665f 6c69 2965      	0x29656c69665f
    78c6:	5f00                	lw	s0,56(a4)
    78c8:	445f4353          	0x445f4353
    78cc:	4c45                	li	s8,17
    78ce:	5941                	li	s2,-16
    78d0:	4954                	lw	a3,20(a0)
    78d2:	454d                	li	a0,19
    78d4:	5f52                	lw	t5,52(sp)
    78d6:	414d                	li	sp,19
    78d8:	2058                	fld	fa4,128(s0)
    78da:	5f003733          	0x5f003733
    78de:	575f 4e49 5f54      	0x5f544e49575f
    78e4:	494d                	li	s2,19
    78e6:	5f4e                	lw	t5,240(sp)
    78e8:	205f 5530 5f00      	0x5f005530205f
    78ee:	545f4353          	0x545f4353
    78f2:	5248                	lw	a0,36(a2)
    78f4:	4145                	li	sp,17
    78f6:	5f44                	lw	s1,60(a4)
    78f8:	45464153          	0x45464153
    78fc:	465f 4e55 5443      	0x54434e55465f
    7902:	4f49                	li	t5,18
    7904:	534e                	lw	t1,240(sp)
    7906:	3420                	fld	fs0,104(s0)
    7908:	0039                	c.addi	zero,14
    790a:	6f5f 6666 745f      	0x745f66666f5f
    7910:	5f00                	lw	s0,56(a4)
    7912:	465f 544c 3436      	0x3436544c465f
    7918:	445f 4749 5f5f      	0x5f5f4749445f
    791e:	3120                	fld	fs0,96(a0)
    7920:	0035                	c.addi	zero,13
    7922:	5f5f 4544 3643      	0x364345445f5f
    7928:	5f34                	lw	a3,120(a4)
    792a:	5045                	0x5045
    792c:	4f4c4953          	0x4f4c4953
    7930:	5f4e                	lw	t5,240(sp)
    7932:	205f 4531 312d      	0x312d4531205f
    7938:	4435                	li	s0,13
    793a:	0044                	addi	s1,sp,4
    793c:	435f 4f4c 4b43      	0x4b434f4c435f
    7942:	4449                	li	s0,18
    7944:	545f 445f 4345      	0x4345445f545f
    794a:	414c                	lw	a1,4(a0)
    794c:	4552                	lw	a0,20(sp)
    794e:	2044                	fld	fs1,128(s0)
    7950:	5f00                	lw	s0,56(a4)
    7952:	465f 544c 4d5f      	0x4d5f544c465f
    7958:	4e49                	li	t3,18
    795a:	5f5f 3120 312e      	0x312e31205f5f
    7960:	39343537          	lui	a0,0x39343
    7964:	3334                	fld	fa3,96(a4)
    7966:	3035                	jal	7192 <_data-0x18e6e>
    7968:	3238                	fld	fa4,96(a2)
    796a:	3232                	fld	ft4,296(sp)
    796c:	3738                	fld	fa4,104(a4)
    796e:	3035                	jal	719a <_data-0x18e66>
    7970:	38363937          	lui	s2,0x38363
    7974:	35363337          	lui	t1,0x35363
    7978:	32323733          	0x32323733
    797c:	3232                	fld	ft4,296(sp)
    797e:	3534                	fld	fa3,104(a0)
    7980:	3836                	fld	fa6,360(sp)
    7982:	2d65                	jal	803a <_data-0x17fc6>
    7984:	00463833          	sltu	a6,a2,tp
    7988:	5f5f 4e49 5f54      	0x5f544e495f5f
    798e:	454c                	lw	a1,12(a0)
    7990:	5341                	li	t1,-16
    7992:	3854                	fld	fa3,176(s0)
    7994:	575f 4449 4854      	0x48544449575f
    799a:	5f5f 3820 5f00      	0x5f0038205f5f
    79a0:	725f 7369 7663      	0x76637369725f
    79a6:	665f 7173 7472      	0x74727173665f
    79ac:	3120                	fld	fs0,96(a0)
    79ae:	5f00                	lw	s0,56(a4)
    79b0:	6c5f 6e6f 5f67      	0x5f676e6f6c5f
    79b6:	6f64                	flw	fs1,92(a4)
    79b8:	6275                	lui	tp,0x1d
    79ba:	656c                	flw	fa1,76(a0)
    79bc:	745f 6c20 6e6f      	0x6e6f6c20745f
    79c2:	6f642067          	0x6f642067
    79c6:	6275                	lui	tp,0x1d
    79c8:	656c                	flw	fa1,76(a0)
    79ca:	5f00                	lw	s0,56(a4)
    79cc:	495f 544e 4c5f      	0x4c5f544e495f
    79d2:	4145                	li	sp,17
    79d4:	36315453          	0x36315453
    79d8:	545f 5059 5f45      	0x5f455059545f
    79de:	205f 6873 726f      	0x726f6873205f
    79e4:	2074                	fld	fa3,192(s0)
    79e6:	6e69                	lui	t3,0x1a
    79e8:	0074                	addi	a3,sp,12
    79ea:	615f 6464 6600      	0x66006464615f
    79f0:	6f72                	flw	ft10,28(sp)
    79f2:	6570                	flw	fa2,76(a0)
    79f4:	286e                	fld	fa6,216(sp)
    79f6:	5f5f 6f63 6b6f      	0x6b6f6f635f5f
    79fc:	6569                	lui	a0,0x1a
    79fe:	5f2c                	lw	a1,120(a4)
    7a00:	665f 296e 6620      	0x6620296e665f
    7a06:	6e75                	lui	t3,0x1d
    7a08:	6e65706f          	j	5f0ee <__global_pointer$+0x3e0be>
    7a0c:	5f28                	lw	a0,120(a4)
    7a0e:	635f 6f6f 696b      	0x696b6f6f635f
    7a14:	2c65                	jal	7ccc <_data-0x18334>
    7a16:	5f20                	lw	s0,120(a4)
    7a18:	665f 2c6e 2820      	0x28202c6e665f
    7a1e:	6e69                	lui	t3,0x1a
    7a20:	2074                	fld	fa3,192(s0)
    7a22:	2a28                	fld	fa0,80(a2)
    7a24:	2829                	jal	7a3e <_data-0x185c2>
    7a26:	2929                	jal	7e40 <_data-0x181c0>
    7a28:	2c30                	fld	fa2,88(s0)
    7a2a:	2820                	fld	fs0,80(s0)
    7a2c:	7066                	flw	ft0,120(sp)
    7a2e:	745f736f          	jal	t1,ff972 <__global_pointer$+0xde942>
    7a32:	2820                	fld	fs0,80(s0)
    7a34:	292a                	fld	fs2,136(sp)
    7a36:	2928                	fld	fa0,80(a0)
    7a38:	3029                	jal	7242 <_data-0x18dbe>
    7a3a:	202c                	fld	fa1,64(s0)
    7a3c:	6928                	flw	fa0,80(a0)
    7a3e:	746e                	flw	fs0,248(sp)
    7a40:	2820                	fld	fs0,80(s0)
    7a42:	292a                	fld	fs2,136(sp)
    7a44:	2928                	fld	fa0,80(a0)
    7a46:	3029                	jal	7250 <_data-0x18db0>
    7a48:	0029                	c.addi	zero,10
    7a4a:	6e75                	lui	t3,0x1d
    7a4c:	6e676973          	csrrsi	s2,0x6e6,14
    7a50:	6465                	lui	s0,0x19
    7a52:	2b20                	fld	fs0,80(a4)
    7a54:	0030                	addi	a2,sp,8
    7a56:	495f 544e 3631      	0x3631544e495f
    7a5c:	545f 445f 4345      	0x4345445f545f
    7a62:	414c                	lw	a1,4(a0)
    7a64:	4552                	lw	a0,20(sp)
    7a66:	2044                	fld	fs1,128(s0)
    7a68:	5f00                	lw	s0,56(a4)
    7a6a:	4c5f4353          	0x4c5f4353
    7a6e:	5645                	li	a2,-15
    7a70:	4c45                	li	s8,17
    7a72:	5f31                	li	t5,-20
    7a74:	4349                	li	t1,18
    7a76:	4341                	li	t1,16
    7a78:	4548                	lw	a0,12(a0)
    7a7a:	415f 5353 434f      	0x434f5353415f
    7a80:	3120                	fld	fs0,96(a0)
    7a82:	3632                	fld	fa2,296(sp)
    7a84:	5f00                	lw	s0,56(a4)
    7a86:	5450                	lw	a2,44(s0)
    7a88:	2052                	fld	ft0,272(sp)
    7a8a:	6f76                	flw	ft10,92(sp)
    7a8c:	6469                	lui	s0,0x1a
    7a8e:	2a20                	fld	fs0,80(a2)
    7a90:	5f00                	lw	s0,56(a4)
    7a92:	535f 504e 2054      	0x2054504e535f
    7a98:	7830                	flw	fa2,112(s0)
    7a9a:	3830                	fld	fa2,112(s0)
    7a9c:	3030                	fld	fa2,96(s0)
    7a9e:	5f00                	lw	s0,56(a4)
    7aa0:	745f 5f6d 6f68      	0x6f685f6d745f
    7aa6:	7275                	lui	tp,0xffffd
    7aa8:	5f00                	lw	s0,56(a4)
    7aaa:	4552                	lw	a0,20(sp)
    7aac:	4e45                	li	t3,17
    7aae:	5f54                	lw	a3,60(a4)
    7ab0:	44544547          	0x44544547
    7ab4:	5441                	li	s0,-16
    7ab6:	5f45                	li	t5,-15
    7ab8:	5245                	li	tp,-15
    7aba:	5f52                	lw	t5,52(sp)
    7abc:	2850                	fld	fa2,144(s0)
    7abe:	7470                	flw	fa2,108(s0)
    7ac0:	2972                	fld	fs2,280(sp)
    7ac2:	2820                	fld	fs0,80(s0)
    7ac4:	2826                	fld	fa6,72(sp)
    7ac6:	7028                	flw	fa0,96(s0)
    7ac8:	7274                	flw	fa3,100(a2)
    7aca:	2d29                	jal	80e4 <_data-0x17f1c>
    7acc:	5f3e                	lw	t5,236(sp)
    7ace:	656e                	flw	fa0,216(sp)
    7ad0:	725f2e77          	0x725f2e77
    7ad4:	6565                	lui	a0,0x19
    7ad6:	746e                	flw	fs0,248(sp)
    7ad8:	5f2e                	lw	t5,232(sp)
    7ada:	64746567          	0x64746567
    7ade:	7461                	lui	s0,0xffff8
    7ae0:	5f65                	li	t5,-7
    7ae2:	7265                	lui	tp,0xffff9
    7ae4:	2972                	fld	fs2,280(sp)
    7ae6:	0029                	c.addi	zero,10
    7ae8:	5f5f 4673 4c49      	0x4c4946735f5f
    7aee:	0045                	c.addi	zero,17
    7af0:	535f 5f43 3656      	0x36565f43535f
    7af6:	495f 504c 3233      	0x3233504c495f
    7afc:	4f5f 4646 3233      	0x323346464f5f
    7b02:	5f20                	lw	s0,120(a4)
    7b04:	565f4353          	0x565f4353
    7b08:	4c495f37          	lui	t5,0x4c495
    7b0c:	3350                	fld	fa2,160(a4)
    7b0e:	5f32                	lw	t5,44(sp)
    7b10:	3346464f          	fnmadd.d	fa2,fa2,fs4,ft6,rmm
    7b14:	0032                	0x32
    7b16:	425f 4749 455f      	0x455f4749425f
    7b1c:	444e                	lw	s0,208(sp)
    7b1e:	4149                	li	sp,18
    7b20:	204e                	fld	ft0,208(sp)
    7b22:	3334                	fld	fa3,96(a4)
    7b24:	3132                	fld	ft2,296(sp)
    7b26:	5700                	lw	s0,40(a4)
    7b28:	52414843          	fmadd.d	fa6,ft2,ft4,fa0,rmm
    7b2c:	4d5f 4e49 2820      	0x28204e494d5f
    7b32:	5f5f 4357 4148      	0x414843575f5f
    7b38:	5f52                	lw	t5,52(sp)
    7b3a:	494d                	li	s2,19
    7b3c:	5f4e                	lw	t5,240(sp)
    7b3e:	295f 5f00 6c5f      	0x6c5f5f00295f
    7b44:	5f6b636f          	jal	t1,be13a <__global_pointer$+0x9d10a>
    7b48:	6e69                	lui	t3,0x1a
    7b4a:	7469                	lui	s0,0xffffa
    7b4c:	725f 6365 7275      	0x72756365725f
    7b52:	65766973          	csrrsi	s2,0x657,12
    7b56:	6c28                	flw	fa0,88(s0)
    7b58:	296b636f          	jal	t1,bddee <__global_pointer$+0x9cdbe>
    7b5c:	2820                	fld	fs0,80(s0)
    7b5e:	435f 5341 5f54      	0x5f545341435f
    7b64:	4f56                	lw	t5,84(sp)
    7b66:	4449                	li	s0,18
    7b68:	3020                	fld	fs0,96(s0)
    7b6a:	0029                	c.addi	zero,10
    7b6c:	5f5f 6d74 775f      	0x775f6d745f5f
    7b72:	6164                	flw	fs1,68(a0)
    7b74:	0079                	c.addi	zero,30
    7b76:	5f5f 6f63 706d      	0x706d6f635f5f
    7b7c:	6c69                	lui	s8,0x1a
    7b7e:	7265                	lui	tp,0xffff9
    7b80:	6d5f 6d65 6162      	0x61626d656d5f
    7b86:	2872                	fld	fa6,280(sp)
    7b88:	2029                	jal	7b92 <_data-0x1846e>
    7b8a:	5f5f 7361 206d      	0x206d73615f5f
    7b90:	5f5f 6f76 616c      	0x616c6f765f5f
    7b96:	6974                	flw	fa3,84(a0)
    7b98:	656c                	flw	fa1,76(a0)
    7b9a:	2228                	fld	fa0,64(a2)
    7b9c:	2220                	fld	fs0,64(a2)
    7b9e:	3a20                	fld	fs0,112(a2)
    7ba0:	3a20                	fld	fs0,112(a2)
    7ba2:	3a20                	fld	fs0,112(a2)
    7ba4:	2220                	fld	fs0,64(a2)
    7ba6:	656d                	lui	a0,0x1b
    7ba8:	6f6d                	lui	t5,0x1b
    7baa:	7972                	flw	fs2,60(sp)
    7bac:	2922                	fld	fs2,8(sp)
    7bae:	5700                	lw	s0,40(a4)
    7bb0:	4f5f 204b 0032      	0x32204b4f5f
    7bb6:	5f5f 4c46 3654      	0x36544c465f5f
    7bbc:	5f34                	lw	a3,120(a4)
    7bbe:	4544                	lw	s1,12(a0)
    7bc0:	4f4e                	lw	t5,208(sp)
    7bc2:	4d52                	lw	s10,20(sp)
    7bc4:	4d5f 4e49 5f5f      	0x5f5f4e494d5f
    7bca:	3420                	fld	fs0,104(s0)
    7bcc:	392e                	fld	fs2,232(sp)
    7bce:	3034                	fld	fa3,96(s0)
    7bd0:	3536                	fld	fa0,360(sp)
    7bd2:	3436                	fld	fs0,360(sp)
    7bd4:	3835                	jal	7410 <_data-0x18bf0>
    7bd6:	3134                	fld	fa3,96(a0)
    7bd8:	3432                	fld	fs0,296(sp)
    7bda:	3536                	fld	fa0,360(sp)
    7bdc:	3434                	fld	fa3,104(s0)
    7bde:	3731                	jal	7aea <_data-0x18516>
    7be0:	3536                	fld	fa0,360(sp)
    7be2:	3836                	fld	fa6,360(sp)
    7be4:	38323937          	lui	s2,0x38323
    7be8:	3836                	fld	fa6,360(sp)
    7bea:	3232                	fld	ft4,296(sp)
    7bec:	3331                	jal	78f8 <_data-0x18708>
    7bee:	2d653237          	lui	tp,0x2d653
    7bf2:	46343233          	0x46343233
    7bf6:	3436                	fld	fs0,360(sp)
    7bf8:	5f00                	lw	s0,56(a4)
    7bfa:	645f 7461 7461      	0x74617461645f
    7c00:	7079                	0x7079
    7c02:	5f65                	li	t5,-7
    7c04:	7974                	flw	fa3,116(a0)
    7c06:	6570                	flw	fa2,76(a0)
    7c08:	745f 6761 6b28      	0x6b286761745f
    7c0e:	6e69                	lui	t3,0x1a
    7c10:	2c64                	fld	fs1,216(s0)
    7c12:	7974                	flw	fa3,116(a0)
    7c14:	6570                	flw	fa2,76(a0)
    7c16:	2029                	jal	7c20 <_data-0x183e0>
    7c18:	5f00                	lw	s0,56(a4)
    7c1a:	6e5f 6565 5f64      	0x5f6465656e5f
    7c20:	5f5f 6176 6c5f      	0x6c5f61765f5f
    7c26:	7369                	lui	t1,0xffffa
    7c28:	0074                	addi	a3,sp,12
    7c2a:	525f 4545 544e      	0x544e4545525f
    7c30:	535f 4749 414e      	0x414e4749535f
    7c36:	5f4c                	lw	a1,60(a4)
    7c38:	5542                	lw	a0,48(sp)
    7c3a:	2846                	fld	fa6,80(sp)
    7c3c:	7470                	flw	fa2,108(s0)
    7c3e:	2972                	fld	fs2,280(sp)
    7c40:	2820                	fld	fs0,80(s0)
    7c42:	7028                	flw	fa0,96(s0)
    7c44:	7274                	flw	fa3,100(a2)
    7c46:	2d29                	jal	8260 <_data-0x17da0>
    7c48:	5f3e                	lw	t5,236(sp)
    7c4a:	656e                	flw	fa0,216(sp)
    7c4c:	725f2e77          	0x725f2e77
    7c50:	6565                	lui	a0,0x19
    7c52:	746e                	flw	fs0,248(sp)
    7c54:	5f2e                	lw	t5,232(sp)
    7c56:	6e676973          	csrrsi	s2,0x6e6,14
    7c5a:	6c61                	lui	s8,0x18
    7c5c:	625f 6675 0029      	0x296675625f
    7c62:	5f5f 4953 455a      	0x455a49535f5f
    7c68:	4d5f 5841 5f5f      	0x5f5f58414d5f
    7c6e:	3020                	fld	fs0,96(s0)
    7c70:	6678                	flw	fa4,76(a2)
    7c72:	6666                	flw	fa2,88(sp)
    7c74:	6666                	flw	fa2,88(sp)
    7c76:	6666                	flw	fa2,88(sp)
    7c78:	5566                	lw	a0,120(sp)
    7c7a:	5f00                	lw	s0,56(a4)
    7c7c:	626d                	lui	tp,0x1b
    7c7e:	6f747273          	csrrci	tp,0x6f7,8
    7c82:	5f736377          	0x5f736377
    7c86:	74617473          	csrrci	s0,0x746,2
    7c8a:	0065                	c.addi	zero,25
    7c8c:	5f5f 4e49 3654      	0x36544e495f5f
    7c92:	2034                	fld	fa3,64(s0)
    7c94:	6c22                	flw	fs8,8(sp)
    7c96:	226c                	fld	fa1,192(a2)
    7c98:	5f00                	lw	s0,56(a4)
    7c9a:	4e49                	li	t3,18
    7c9c:	415f 4444 5f52      	0x5f524444415f
    7ca2:	5f54                	lw	a3,60(a4)
    7ca4:	4544                	lw	s1,12(a0)
    7ca6:	52414c43          	fmadd.d	fs8,ft2,ft4,fa0,rmm
    7caa:	4445                	li	s0,17
    7cac:	0020                	addi	s0,sp,8
    7cae:	535f 5f43 4854      	0x48545f43535f
    7cb4:	4552                	lw	a0,20(sp)
    7cb6:	4441                	li	s0,16
    7cb8:	415f 5454 5f52      	0x5f525454415f
    7cbe:	43415453          	0x43415453
    7cc2:	4444414b          	0x4444414b
    7cc6:	2052                	fld	ft0,272(sp)
    7cc8:	3334                	fld	fa3,96(a4)
    7cca:	5500                	lw	s0,40(a0)
    7ccc:	4e49                	li	t3,18
    7cce:	3854                	fld	fa3,176(s0)
    7cd0:	4d5f 5841 2820      	0x282058414d5f
    7cd6:	5f5f 4955 544e      	0x544e49555f5f
    7cdc:	5f38                	lw	a4,120(a4)
    7cde:	414d                	li	sp,19
    7ce0:	5f58                	lw	a4,60(a4)
    7ce2:	295f 5f00 4c5f      	0x4c5f5f00295f
    7ce8:	5f474e4f          	fnmadd.q	ft8,fa4,fs4,fa1,rmm
    7cec:	414d                	li	sp,19
    7cee:	5f58                	lw	a4,60(a4)
    7cf0:	205f 7830 6637      	0x66377830205f
    7cf6:	6666                	flw	fa2,88(sp)
    7cf8:	6666                	flw	fa2,88(sp)
    7cfa:	6666                	flw	fa2,88(sp)
    7cfc:	004c                	addi	a1,sp,4
    7cfe:	6974                	flw	fa3,84(a0)
    7d00:	656d                	lui	a0,0x1b
    7d02:	6372                	flw	ft6,28(sp)
    7d04:	706d                	0x706d
    7d06:	7428                	flw	fa0,104(s0)
    7d08:	7076                	flw	ft0,124(sp)
    7d0a:	752c                	flw	fa1,104(a0)
    7d0c:	7076                	flw	ft0,124(sp)
    7d0e:	632c                	flw	fa1,64(a4)
    7d10:	706d                	0x706d
    7d12:	2029                	jal	7d1c <_data-0x182e4>
    7d14:	2828                	fld	fa0,80(s0)
    7d16:	7428                	flw	fa0,104(s0)
    7d18:	7076                	flw	ft0,124(sp)
    7d1a:	2d29                	jal	8334 <_data-0x17ccc>
    7d1c:	743e                	flw	fs0,236(sp)
    7d1e:	5f76                	lw	t5,124(sp)
    7d20:	20636573          	csrrsi	a0,0x206,6
    7d24:	3d3d                	jal	7b62 <_data-0x1849e>
    7d26:	2820                	fld	fs0,80(s0)
    7d28:	7675                	lui	a2,0xffffd
    7d2a:	2970                	fld	fa2,208(a0)
    7d2c:	3e2d                	jal	7866 <_data-0x1879a>
    7d2e:	7674                	flw	fa3,108(a2)
    7d30:	735f 6365 2029      	0x20296365735f
    7d36:	2828203f 29707674 	0x297076742828203f
    7d3e:	3e2d                	jal	7878 <_data-0x18788>
    7d40:	7674                	flw	fa3,108(a2)
    7d42:	755f 6573 2063      	0x20636573755f
    7d48:	20706d63          	bltu	zero,t2,7f62 <_data-0x1809e>
    7d4c:	7528                	flw	fa0,104(a0)
    7d4e:	7076                	flw	ft0,124(sp)
    7d50:	2d29                	jal	836a <_data-0x17c96>
    7d52:	743e                	flw	fs0,236(sp)
    7d54:	5f76                	lw	t5,124(sp)
    7d56:	7375                	lui	t1,0xffffd
    7d58:	6365                	lui	t1,0x19
    7d5a:	2029                	jal	7d64 <_data-0x1829c>
    7d5c:	203a                	fld	ft0,392(sp)
    7d5e:	2828                	fld	fa0,80(s0)
    7d60:	7674                	flw	fa3,108(a2)
    7d62:	2970                	fld	fa2,208(a0)
    7d64:	3e2d                	jal	789e <_data-0x18762>
    7d66:	7674                	flw	fa3,108(a2)
    7d68:	735f 6365 6320      	0x63206365735f
    7d6e:	706d                	0x706d
    7d70:	2820                	fld	fs0,80(s0)
    7d72:	7675                	lui	a2,0xffffd
    7d74:	2970                	fld	fa2,208(a0)
    7d76:	3e2d                	jal	78b0 <_data-0x18750>
    7d78:	7674                	flw	fa3,108(a2)
    7d7a:	735f 6365 2929      	0x29296365735f
    7d80:	5f00                	lw	s0,56(a4)
    7d82:	585f4353          	0x585f4353
    7d86:	4e45504f          	fnmadd.q	ft0,fa0,ft4,fs1,unknown
    7d8a:	535f 5254 4145      	0x41455254535f
    7d90:	534d                	li	t1,-13
    7d92:	3120                	fld	fs0,96(a0)
    7d94:	3430                	fld	fa2,104(s0)
    7d96:	6c00                	flw	fs0,24(s0)
    7d98:	20676e6f          	jal	t3,7df9e <__global_pointer$+0x5cf6e>
    7d9c:	5f00342b          	0x5f00342b
    7da0:	4152                	lw	sp,20(sp)
    7da2:	444e                	lw	s0,208(sp)
    7da4:	3834                	fld	fa3,112(s0)
    7da6:	415f 4444 2820      	0x28204444415f
    7dac:	7830                	flw	fa2,112(s0)
    7dae:	3030                	fld	fa2,96(s0)
    7db0:	6230                	flw	fa2,64(a2)
    7db2:	0029                	c.addi	zero,10
    7db4:	5845                	li	a6,-15
    7db6:	5449                	li	s0,-14
    7db8:	465f 4941 554c      	0x554c4941465f
    7dbe:	4552                	lw	a0,20(sp)
    7dc0:	3120                	fld	fs0,96(a0)
    7dc2:	5f00                	lw	s0,56(a4)
    7dc4:	425f 4749 4547      	0x45474749425f
    7dca:	415f5453          	0x415f5453
    7dce:	494c                	lw	a1,20(a0)
    7dd0:	454d4e47          	0x454d4e47
    7dd4:	544e                	lw	s0,240(sp)
    7dd6:	5f5f 3120 0036      	0x3631205f5f
    7ddc:	535f 5f43 5254      	0x52545f43535f
    7de2:	4341                	li	t1,16
    7de4:	5f45                	li	t5,-15
    7de6:	414e                	lw	sp,208(sp)
    7de8:	454d                	li	a0,19
    7dea:	4d5f 5841 3820      	0x382058414d5f
    7df0:	0038                	addi	a4,sp,8
    7df2:	495f 544e 3233      	0x3233544e495f
    7df8:	455f 5f51 4f4c      	0x4f4c5f51455f
    7dfe:	474e                	lw	a4,208(sp)
    7e00:	0020                	addi	s0,sp,8
    7e02:	525f 4545 544e      	0x544e4545525f
    7e08:	415f 4353 4954      	0x49544353415f
    7e0e:	454d                	li	a0,19
    7e10:	535f 5a49 2045      	0x20455a49535f
    7e16:	3632                	fld	fa2,296(sp)
    7e18:	5000                	lw	s0,32(s0)
    7e1a:	5044                	lw	s1,36(s0)
    7e1c:	455f 444e 4149      	0x4149444e455f
    7e22:	204e                	fld	ft0,208(sp)
    7e24:	505f 5044 455f      	0x455f5044505f
    7e2a:	444e                	lw	s0,208(sp)
    7e2c:	4149                	li	sp,18
    7e2e:	004e                	0x4e
    7e30:	45484353          	0x45484353
    7e34:	5f44                	lw	s1,60(a4)
    7e36:	5252                	lw	tp,52(sp)
    7e38:	3220                	fld	fs0,96(a2)
    7e3a:	5f00                	lw	s0,56(a4)
    7e3c:	465f 544c 3233      	0x3233544c465f
    7e42:	5f58                	lw	a4,60(a4)
    7e44:	414d                	li	sp,19
    7e46:	544e                	lw	s0,240(sp)
    7e48:	445f 4749 5f5f      	0x5f5f4749445f
    7e4e:	3520                	fld	fs0,104(a0)
    7e50:	5f5f0033          	0x5f5f0033
    7e54:	41484357          	0x41484357
    7e58:	5f52                	lw	t5,52(sp)
    7e5a:	54444957          	0x54444957
    7e5e:	5f48                	lw	a0,60(a4)
    7e60:	205f 3233 5f00      	0x5f003233205f
    7e66:	4e49                	li	t3,18
    7e68:	3654                	fld	fa3,168(a2)
    7e6a:	5f34                	lw	a3,120(a4)
    7e6c:	5f54                	lw	a3,60(a4)
    7e6e:	4544                	lw	s1,12(a0)
    7e70:	52414c43          	fmadd.d	fs8,ft2,ft4,fa0,rmm
    7e74:	4445                	li	s0,17
    7e76:	0020                	addi	s0,sp,8
    7e78:	5f5f 6773 756c      	0x756c67735f5f
    7e7e:	0065                	c.addi	zero,25
    7e80:	61656c63          	bltu	a0,s6,8498 <_data-0x17b68>
    7e84:	6572                	flw	fa0,28(sp)
    7e86:	7272                	flw	ft4,60(sp)
    7e88:	755f 6c6e 636f      	0x636f6c6e755f
    7e8e:	2864656b          	0x2864656b
    7e92:	2970                	fld	fa2,208(a0)
    7e94:	5f20                	lw	s0,120(a4)
    7e96:	735f 6c63 6165      	0x61656c63735f
    7e9c:	6572                	flw	fa0,28(sp)
    7e9e:	7272                	flw	ft4,60(sp)
    7ea0:	7028                	flw	fa0,96(s0)
    7ea2:	0029                	c.addi	zero,10
    7ea4:	535f 5359 5f5f      	0x5f5f5359535f
    7eaa:	5450                	lw	a2,44(s0)
    7eac:	5248                	lw	a0,36(a2)
    7eae:	4145                	li	sp,17
    7eb0:	5444                	lw	s1,44(s0)
    7eb2:	5059                	0x5059
    7eb4:	5345                	li	t1,-15
    7eb6:	485f 205f 5f00      	0x5f00205f485f
    7ebc:	495f 544e 3631      	0x3631544e495f
    7ec2:	435f 6328 2029      	0x20296328435f
    7ec8:	535f0063          	beq	t5,s5,83e8 <_data-0x17c18>
    7ecc:	37565f43          	fmadd.q	ft10,fa2,fs5,ft6,unknown
    7ed0:	4c5f 4250 4749      	0x474942504c5f
    7ed6:	4f5f 4646 4942      	0x494246464f5f
    7edc:	35392047          	0x35392047
    7ee0:	5f00                	lw	s0,56(a4)
    7ee2:	4e41                	li	t3,16
    7ee4:	2044                	fld	fs1,128(s0)
    7ee6:	002c                	addi	a1,sp,8
    7ee8:	5f5f 7473 6672      	0x667274735f5f
    7eee:	6974                	flw	fa3,84(a0)
    7ef0:	656d                	lui	a0,0x1b
    7ef2:	696c                	flw	fa1,84(a0)
    7ef4:	6628656b          	0x6628656b
    7ef8:	746d                	lui	s0,0xffffb
    7efa:	7261                	lui	tp,0xffff8
    7efc:	69662c67          	0x69662c67
    7f00:	7372                	flw	ft6,60(sp)
    7f02:	7674                	flw	fa3,108(a2)
    7f04:	7261                	lui	tp,0xffff8
    7f06:	7261                	lui	tp,0xffff8
    7f08:	5f202967          	0x5f202967
    7f0c:	615f 7474 6972      	0x69727474615f
    7f12:	7562                	flw	fa0,56(sp)
    7f14:	6574                	flw	fa3,76(a0)
    7f16:	5f5f 2828 5f5f      	0x5f5f28285f5f
    7f1c:	6f66                	flw	ft10,88(sp)
    7f1e:	6d72                	flw	fs10,28(sp)
    7f20:	7461                	lui	s0,0xffff8
    7f22:	5f5f 2820 5f5f      	0x5f5f28205f5f
    7f28:	66727473          	csrrci	s0,0x667,4
    7f2c:	6974                	flw	fa3,84(a0)
    7f2e:	656d                	lui	a0,0x1b
    7f30:	5f5f 202c 6d66      	0x6d66202c5f5f
    7f36:	6174                	flw	fa3,68(a0)
    7f38:	6772                	flw	fa4,28(sp)
    7f3a:	202c                	fld	fa1,64(s0)
    7f3c:	6966                	flw	fs2,88(sp)
    7f3e:	7372                	flw	ft6,60(sp)
    7f40:	7674                	flw	fa3,108(a2)
    7f42:	7261                	lui	tp,0xffff8
    7f44:	7261                	lui	tp,0xffff8
    7f46:	29292967          	0x29292967
    7f4a:	5f00                	lw	s0,56(a4)
    7f4c:	5441                	li	s0,-16
    7f4e:	5845                	li	a6,-15
    7f50:	5449                	li	s0,-14
    7f52:	495f 494e 2054      	0x2054494e495f
    7f58:	554e5f7b          	0x554e5f7b
    7f5c:	4c4c                	lw	a1,28(s0)
    7f5e:	202c                	fld	fa1,64(s0)
    7f60:	2c30                	fld	fa2,88(s0)
    7f62:	7b20                	flw	fs0,112(a4)
    7f64:	4e5f 4c55 7d4c      	0x7d4c4c554e5f
    7f6a:	202c                	fld	fa1,64(s0)
    7f6c:	4e5f7b7b          	0x4e5f7b7b
    7f70:	4c55                	li	s8,21
    7f72:	7d4c                	flw	fa1,60(a0)
    7f74:	202c                	fld	fa1,64(s0)
    7f76:	554e5f7b          	0x554e5f7b
    7f7a:	4c4c                	lw	a1,28(s0)
    7f7c:	2c7d                	jal	823a <_data-0x17dc6>
    7f7e:	3020                	fld	fs0,96(s0)
    7f80:	202c                	fld	fa1,64(s0)
    7f82:	7d30                	flw	fa2,120(a0)
    7f84:	007d                	c.addi	zero,31
    7f86:	535f 5f43 4f4d      	0x4f4d5f43535f
    7f8c:	4f4e                	lw	t5,208(sp)
    7f8e:	4f54                	lw	a3,28(a4)
    7f90:	494e                	lw	s2,208(sp)
    7f92:	4c435f43          	0x4c435f43
    7f96:	204b434f          	fnmadd.s	ft6,fs6,ft4,ft4,rmm
    7f9a:	3936                	fld	fs2,360(sp)
    7f9c:	5f00                	lw	s0,56(a4)
    7f9e:	445f 5145 4155      	0x41555145445f
    7fa4:	494c                	lw	a1,20(a0)
    7fa6:	5946                	lw	s2,112(sp)
    7fa8:	7428                	flw	fa0,104(s0)
    7faa:	7079                	0x7079
    7fac:	2c65                	jal	8264 <_data-0x17d9c>
    7fae:	6176                	flw	ft2,92(sp)
    7fb0:	2972                	fld	fs2,280(sp)
    7fb2:	2820                	fld	fs0,80(s0)
    7fb4:	7428                	flw	fa0,104(s0)
    7fb6:	7079                	0x7079
    7fb8:	2965                	jal	8470 <_data-0x17b90>
    7fba:	5f28                	lw	a0,120(a4)
    7fbc:	755f 6e69 7074      	0x70746e69755f
    7fc2:	7274                	flw	fa3,100(a2)
    7fc4:	745f 2829 6f63      	0x6f632829745f
    7fca:	736e                	flw	ft6,248(sp)
    7fcc:	2074                	fld	fa3,192(s0)
    7fce:	6f76                	flw	ft10,92(sp)
    7fd0:	616c                	flw	fa1,68(a0)
    7fd2:	6974                	flw	fa3,84(a0)
    7fd4:	656c                	flw	fa1,76(a0)
    7fd6:	7620                	flw	fs0,104(a2)
    7fd8:	2064696f          	jal	s2,4e1de <__global_pointer$+0x2d1ae>
    7fdc:	292a                	fld	fs2,136(sp)
    7fde:	7628                	flw	fa0,104(a2)
    7fe0:	7261                	lui	tp,0xffff8
    7fe2:	2929                	jal	83fc <_data-0x17c04>
    7fe4:	5f00                	lw	s0,56(a4)
    7fe6:	755f 635f 6168      	0x6168635f755f
    7fec:	5f72                	lw	t5,60(sp)
    7fee:	6564                	flw	fs1,76(a0)
    7ff0:	6966                	flw	fs2,88(sp)
    7ff2:	656e                	flw	fa0,216(sp)
    7ff4:	2064                	fld	fs1,192(s0)
    7ff6:	5f00                	lw	s0,56(a4)
    7ff8:	415f 4f54 494d      	0x494d4f54415f
    7ffe:	43415f43          	fmadd.d	ft10,ft2,fs4,fs0,unknown
    8002:	5f51                	li	t5,-12
    8004:	4552                	lw	a0,20(sp)
    8006:	204c                	fld	fa1,128(s0)
    8008:	0034                	addi	a3,sp,8
    800a:	535f 5f43 504f      	0x504f5f43535f
    8010:	4e45                	li	t3,17
    8012:	4d5f 5841 3420      	0x342058414d5f
    8018:	5f00                	lw	s0,56(a4)
    801a:	495f 544e 3233      	0x3233544e495f
    8020:	545f 5059 5f45      	0x5f455059545f
    8026:	205f 6f6c 676e      	0x676e6f6c205f
    802c:	6920                	flw	fs0,80(a0)
    802e:	746e                	flw	fs0,248(sp)
    8030:	5f00                	lw	s0,56(a4)
    8032:	705f 6361 656b      	0x656b6361705f
    8038:	2064                	fld	fs1,192(s0)
    803a:	5f5f 7461 7274      	0x727474615f5f
    8040:	6269                	lui	tp,0x1a
    8042:	7475                	lui	s0,0xffffd
    8044:	5f65                	li	t5,-7
    8046:	285f 5f28 705f      	0x705f5f28285f
    804c:	6361                	lui	t1,0x18
    804e:	5f64656b          	0x5f64656b
    8052:	295f 0029 575f      	0x575f0029295f
    8058:	52414843          	fmadd.d	fa6,ft2,ft4,fa0,rmm
    805c:	545f 445f 4645      	0x4645445f545f
    8062:	4e49                	li	t3,18
    8064:	4445                	li	s0,17
    8066:	205f 5f00 4353      	0x43535f00205f
    806c:	545f 5248 4145      	0x41455248545f
    8072:	5f44                	lw	s1,60(a4)
    8074:	4f52                	lw	t5,20(sp)
    8076:	5542                	lw	a0,48(sp)
    8078:	505f5453          	0x505f5453
    807c:	4952                	lw	s2,20(sp)
    807e:	52505f4f          	fnmadd.d	ft10,ft0,ft5,fa0,unknown
    8082:	4345544f          	fnmadd.d	fs0,fa0,fs4,fs0,unknown
    8086:	2054                	fld	fa3,128(s0)
    8088:	3231                	jal	7994 <_data-0x1866c>
    808a:	575f0033          	0x575f0033
    808e:	4e41                	li	t3,16
    8090:	5f54                	lw	a3,60(a4)
    8092:	4f49                	li	t5,18
    8094:	4c5f 4e4f 5f47      	0x5f474e4f4c5f
    809a:	4f4c                	lw	a1,28(a4)
    809c:	474e                	lw	a4,208(sp)
    809e:	3120                	fld	fs0,96(a0)
    80a0:	5f00                	lw	s0,56(a4)
    80a2:	535f4353          	0x535f4353
    80a6:	4e59                	li	t3,22
    80a8:	4f524843          	fmadd.q	fa6,ft4,fs5,fs1,rmm
    80ac:	494e                	lw	s2,208(sp)
    80ae:	455a                	lw	a0,148(sp)
    80b0:	5f44                	lw	s1,60(a4)
    80b2:	4f49                	li	t5,18
    80b4:	3320                	fld	fs0,96(a4)
    80b6:	0032                	0x32
    80b8:	505f 5f43 4552      	0x45525f43505f
    80be:	414d5f43          	fmadd.s	ft10,fs10,fs4,fs0,unknown
    80c2:	5f58                	lw	a4,60(a4)
    80c4:	4658                	lw	a4,12(a2)
    80c6:	5245                	li	tp,-15
    80c8:	535f 5a49 2045      	0x20455a49535f
    80ce:	3731                	jal	7fda <_data-0x18026>
    80d0:	4900                	lw	s0,16(a0)
    80d2:	544e                	lw	s0,240(sp)
    80d4:	465f 5341 3854      	0x38545341465f
    80da:	4d5f 4e49 2820      	0x28204e494d5f
    80e0:	5f2d                	li	t5,-21
    80e2:	495f 544e 465f      	0x465f544e495f
    80e8:	5341                	li	t1,-16
    80ea:	3854                	fld	fa3,176(s0)
    80ec:	4d5f 5841 5f5f      	0x5f5f58414d5f
    80f2:	2d20                	fld	fs0,88(a0)
    80f4:	3120                	fld	fs0,96(a0)
    80f6:	0029                	c.addi	zero,10
    80f8:	5f5f 7361 6573      	0x657373615f5f
    80fe:	7472                	flw	fs0,60(sp)
    8100:	68735f73          	csrrwi	t5,0x687,6
    8104:	7261                	lui	tp,0xffff8
    8106:	6465                	lui	s0,0x19
    8108:	2e28                	fld	fa0,88(a2)
    810a:	2e2e                	fld	ft8,200(sp)
    810c:	2029                	jal	8116 <_data-0x17eea>
    810e:	5f5f 6f6c 6b63      	0x6b636f6c5f5f
    8114:	615f 6e6e 746f      	0x746f6e6e615f
    811a:	7461                	lui	s0,0xffff8
    811c:	2865                	jal	81d4 <_data-0x17e2c>
    811e:	7361                	lui	t1,0xffff8
    8120:	74726573          	csrrsi	a0,0x747,4
    8124:	735f 6168 6572      	0x65726168735f
    812a:	5f64                	lw	s1,124(a4)
    812c:	6f6c                	flw	fa1,92(a4)
    812e:	5f286b63          	bltu	a6,s2,8724 <_data-0x178dc>
    8132:	565f 5f41 5241      	0x52415f41565f
    8138:	5f5f5347          	fmsub.q	ft6,ft10,fs5,fa1,unknown
    813c:	2929                	jal	8556 <_data-0x17aaa>
    813e:	5f00                	lw	s0,56(a4)
    8140:	465f 544c 3233      	0x3233544c465f
    8146:	5f58                	lw	a4,60(a4)
    8148:	5045                	0x5045
    814a:	4f4c4953          	0x4f4c4953
    814e:	5f4e                	lw	t5,240(sp)
    8150:	205f 2e32 3232      	0x32322e32205f
    8156:	3430                	fld	fa2,104(s0)
    8158:	3634                	fld	fa3,104(a2)
    815a:	3430                	fld	fa2,104(s0)
    815c:	3239                	jal	7a6a <_data-0x18596>
    815e:	3035                	jal	798a <_data-0x18676>
    8160:	30333133          	0x30333133
    8164:	3038                	fld	fa4,96(s0)
    8166:	3438                	fld	fa4,104(s0)
    8168:	33363237          	lui	tp,0x33363
    816c:	31363333          	0x31363333
    8170:	3138                	fld	fa4,96(a0)
    8172:	3436                	fld	fs0,360(sp)
    8174:	3630                	fld	fa2,104(a2)
    8176:	6532                	flw	fa0,12(sp)
    8178:	312d                	jal	7da2 <_data-0x1825e>
    817a:	4636                	lw	a2,76(sp)
    817c:	00783233          	sltu	tp,a6,t2
    8180:	5f5f 444c 4c42      	0x4c42444c5f5f
    8186:	445f 4749 5f5f      	0x5f5f4749445f
    818c:	3320                	fld	fs0,96(a4)
    818e:	5f5f0033          	0x5f5f0033
    8192:	6e69                	lui	t3,0x1a
    8194:	3274                	fld	fa3,224(a2)
    8196:	0030                	addi	a2,sp,8
    8198:	4e49                	li	t3,18
    819a:	5f54                	lw	a3,60(a4)
    819c:	4146                	lw	sp,80(sp)
    819e:	32335453          	0x32335453
    81a2:	4d5f 5841 2820      	0x282058414d5f
    81a8:	5f5f 4e49 5f54      	0x5f544e495f5f
    81ae:	4146                	lw	sp,80(sp)
    81b0:	32335453          	0x32335453
    81b4:	4d5f 5841 5f5f      	0x5f5f58414d5f
    81ba:	0029                	c.addi	zero,10
    81bc:	5f5f 6d74 6d5f      	0x6d5f6d745f5f
    81c2:	6e69                	lui	t3,0x1a
    81c4:	5f00                	lw	s0,56(a4)
    81c6:	5845                	li	a6,-15
    81c8:	4150                	lw	a2,4(a0)
    81ca:	4d52                	lw	s10,20(sp)
    81cc:	6e28                	flw	fa0,88(a2)
    81ce:	6d61                	lui	s10,0x18
    81d0:	2c65                	jal	8488 <_data-0x17b78>
    81d2:	7270                	flw	fa2,100(a2)
    81d4:	296f746f          	jal	s0,ff46a <__global_pointer$+0xde43a>
    81d8:	2820                	fld	fs0,80(s0)
    81da:	202a                	fld	ft0,136(sp)
    81dc:	616e                	flw	ft2,216(sp)
    81de:	656d                	lui	a0,0x1b
    81e0:	2029                	jal	81ea <_data-0x17e16>
    81e2:	7270                	flw	fa2,100(a2)
    81e4:	006f746f          	jal	s0,ff1ea <__global_pointer$+0xde1ba>
    81e8:	4e49                	li	t3,18
    81ea:	5054                	lw	a3,36(s0)
    81ec:	5254                	lw	a3,36(a2)
    81ee:	4d5f 4e49 2820      	0x28204e494d5f
    81f4:	5f2d                	li	t5,-21
    81f6:	495f 544e 5450      	0x5450544e495f
    81fc:	5f52                	lw	t5,52(sp)
    81fe:	414d                	li	sp,19
    8200:	5f58                	lw	a4,60(a4)
    8202:	205f 202d 2931      	0x2931202d205f
    8208:	5000                	lw	s0,32(s0)
    820a:	5254                	lw	a3,36(a2)
    820c:	4944                	lw	s1,20(a0)
    820e:	4646                	lw	a2,80(sp)
    8210:	4d5f 4e49 2820      	0x28204e494d5f
    8216:	502d                	0x502d
    8218:	5254                	lw	a3,36(a2)
    821a:	4944                	lw	s1,20(a0)
    821c:	4646                	lw	a2,80(sp)
    821e:	4d5f 5841 2d20      	0x2d2058414d5f
    8224:	3120                	fld	fs0,96(a0)
    8226:	0029                	c.addi	zero,10
    8228:	505f 534f 5849      	0x5849534f505f
    822e:	435f 535f 554f      	0x554f535f435f
    8234:	4352                	lw	t1,20(sp)
    8236:	0045                	c.addi	zero,17
    8238:	5f5f 4955 544e      	0x544e49555f5f
    823e:	414d                	li	sp,19
    8240:	5f58                	lw	a4,60(a4)
    8242:	414d                	li	sp,19
    8244:	5f58                	lw	a4,60(a4)
    8246:	205f 7830 6666      	0x66667830205f
    824c:	6666                	flw	fa2,88(sp)
    824e:	6666                	flw	fa2,88(sp)
    8250:	6666                	flw	fa2,88(sp)
    8252:	6666                	flw	fa2,88(sp)
    8254:	6666                	flw	fa2,88(sp)
    8256:	6666                	flw	fa2,88(sp)
    8258:	6666                	flw	fa2,88(sp)
    825a:	4c55                	li	s8,21
    825c:	004c                	addi	a1,sp,4
    825e:	5f5f 4244 5f4c      	0x5f4c42445f5f
    8264:	414d                	li	sp,19
    8266:	544e                	lw	s0,240(sp)
    8268:	445f 4749 5f5f      	0x5f5f4749445f
    826e:	3520                	fld	fs0,104(a0)
    8270:	535f0033          	0x535f0033
    8274:	504e5f43          	fmadd.s	ft10,ft8,ft4,fa0,unknown
    8278:	4f52                	lw	t5,20(sp)
    827a:	53534543          	fmadd.d	fa0,ft6,fs5,fa0,rmm
    827e:	5f53524f          	fnmadd.q	ft4,ft6,fs5,fa1,unknown
    8282:	464e4f43          	fmadd.q	ft10,ft8,ft4,fs0,rmm
    8286:	3920                	fld	fs0,112(a0)
    8288:	5f00                	lw	s0,56(a4)
    828a:	4152                	lw	sp,20(sp)
    828c:	444e                	lw	s0,208(sp)
    828e:	3834                	fld	fa3,112(s0)
    8290:	535f 4545 5f44      	0x5f444545535f
    8296:	2032                	fld	ft0,264(sp)
    8298:	3028                	fld	fa0,96(s0)
    829a:	3178                	fld	fa4,224(a0)
    829c:	3332                	fld	ft6,296(sp)
    829e:	2934                	fld	fa3,80(a0)
    82a0:	5f00                	lw	s0,56(a4)
    82a2:	535f 5359 4c5f      	0x4c5f5359535f
    82a8:	5f4b434f          	fnmadd.q	ft6,fs6,fs4,fa1,rmm
    82ac:	5f48                	lw	a0,60(a4)
    82ae:	205f 5f00 4353      	0x43535f00205f
    82b4:	535f 5f53 4552      	0x45525f53535f
    82ba:	4c50                	lw	a2,28(s0)
    82bc:	4d5f 5841 3720      	0x372058414d5f
    82c2:	0038                	addi	a4,sp,8
    82c4:	5f5f 5f75 6f6c      	0x6f6c5f755f5f
    82ca:	676e                	flw	fa4,216(sp)
    82cc:	645f 6665 6e69      	0x6e696665645f
    82d2:	6465                	lui	s0,0x19
    82d4:	0020                	addi	s0,sp,8
    82d6:	5f5f 4e49 5f54      	0x5f544e495f5f
    82dc:	414d                	li	sp,19
    82de:	5f58                	lw	a4,60(a4)
    82e0:	205f 7830 6637      	0x66377830205f
    82e6:	6666                	flw	fa2,88(sp)
    82e8:	6666                	flw	fa2,88(sp)
    82ea:	6666                	flw	fa2,88(sp)
    82ec:	5f00                	lw	s0,56(a4)
    82ee:	555f 4e49 3654      	0x36544e49555f
    82f4:	5f34                	lw	a3,120(a4)
    82f6:	5954                	lw	a3,52(a0)
    82f8:	4550                	lw	a2,12(a0)
    82fa:	5f5f 6c20 6e6f      	0x6e6f6c205f5f
    8300:	6f6c2067          	0x6f6c2067
    8304:	676e                	flw	fa4,216(sp)
    8306:	7520                	flw	fs0,104(a0)
    8308:	736e                	flw	ft6,248(sp)
    830a:	6769                	lui	a4,0x1a
    830c:	656e                	flw	fa0,216(sp)
    830e:	2064                	fld	fs1,192(s0)
    8310:	6e69                	lui	t3,0x1a
    8312:	0074                	addi	a3,sp,12
    8314:	616d                	addi	sp,sp,240
    8316:	6e69                	lui	t3,0x1a
    8318:	6f00                	flw	fs0,24(a4)
    831a:	7475                	lui	s0,0xffffd
    831c:	63616d2f          	0x63616d2f
    8320:	6968                	flw	fa0,84(a0)
    8322:	656e                	flw	fa0,216(sp)
    8324:	722d                	lui	tp,0xfffeb
    8326:	7369                	lui	t1,0xffffa
    8328:	632d7663          	bleu	s2,s10,8954 <_data-0x176ac>
    832c:	6f6d6d6f          	jal	s10,dea22 <__global_pointer$+0xbd9f2>
    8330:	2f6e                	fld	ft10,216(sp)
    8332:	7865                	lui	a6,0xffff9
    8334:	6d61                	lui	s10,0x18
    8336:	6c70                	flw	fa2,92(s0)
    8338:	2f65                	jal	8af0 <_data-0x17510>
    833a:	6568                	flw	fa0,76(a0)
    833c:	6c6c                	flw	fa1,92(s0)
    833e:	65672f6f          	jal	t5,7a994 <__global_pointer$+0x59964>
    8342:	656e                	flw	fa0,216(sp)
    8344:	6972                	flw	fs2,28(sp)
    8346:	65682f63          	0x65682f63
    834a:	6c6c                	flw	fa1,92(s0)
    834c:	00632e6f          	jal	t3,3a352 <__global_pointer$+0x19322>

Disassembly of section .debug_frame:

00000000 <.debug_frame>:
   0:	000c                	0xc
   2:	0000                	unimp
   4:	ffff                	0xffff
   6:	ffff                	0xffff
   8:	0001                	nop
   a:	7c01                	lui	s8,0xfffe0
   c:	0d01                	addi	s10,s10,0
   e:	0002                	0x2
  10:	001c                	0x1c
  12:	0000                	unimp
  14:	0000                	unimp
  16:	0000                	unimp
  18:	0128                	addi	a0,sp,136
  1a:	8000                	0x8000
  1c:	0044                	addi	s1,sp,4
  1e:	0000                	unimp
  20:	0e44                	addi	s1,sp,788
  22:	4820                	lw	s0,80(s0)
  24:	0288                	addi	a0,sp,320
  26:	0181                	addi	gp,gp,0
  28:	c16c                	sw	a1,68(a0)
  2a:	c844                	sw	s1,20(s0)
  2c:	0e44                	addi	s1,sp,788
  2e:	0000                	unimp
  30:	000c                	0xc
  32:	0000                	unimp
  34:	0000                	unimp
  36:	0000                	unimp
  38:	016c                	addi	a1,sp,140
  3a:	8000                	0x8000
  3c:	0004                	0x4
  3e:	0000                	unimp
  40:	0018                	0x18
  42:	0000                	unimp
  44:	0000                	unimp
  46:	0000                	unimp
  48:	0170                	addi	a2,sp,140
  4a:	8000                	0x8000
  4c:	0020                	addi	s0,sp,8
  4e:	0000                	unimp
  50:	0e44                	addi	s1,sp,788
  52:	4410                	lw	a2,8(s0)
  54:	0181                	addi	gp,gp,0
  56:	c148                	sw	a0,4(a0)
  58:	0e4c                	addi	a1,sp,788
  5a:	0000                	unimp
  5c:	000c                	0xc
  5e:	0000                	unimp
  60:	ffff                	0xffff
  62:	ffff                	0xffff
  64:	0001                	nop
  66:	7c01                	lui	s8,0xfffe0
  68:	0d01                	addi	s10,s10,0
  6a:	0002                	0x2
  6c:	0018                	0x18
  6e:	0000                	unimp
  70:	005c                	addi	a5,sp,4
  72:	0000                	unimp
  74:	1284                	addi	s1,sp,352
  76:	8000                	0x8000
  78:	0024                	addi	s1,sp,8
  7a:	0000                	unimp
  7c:	0e48                	addi	a0,sp,788
  7e:	4810                	lw	a2,16(s0)
  80:	0181                	addi	gp,gp,0
  82:	c148                	sw	a0,4(a0)
  84:	0e48                	addi	a0,sp,788
	...

Disassembly of section .debug_ranges:

00000000 <.debug_ranges>:
   0:	1284                	addi	s1,sp,352
   2:	8000                	0x8000
   4:	12a8                	addi	a0,sp,360
   6:	8000                	0x8000
	...
